
Allocating common symbols
Common symbol       size              file

console2            0x10              ./io/dev/console.o
isr_handlers        0x400             isr.o
keyboard_output     0x10              ./io/dev/keyboard.o
console1            0x10              ./io/dev/console.o
console3            0x10              ./io/dev/console.o
idt_table           0x800             idt.o
physical_bitmapSize
                    0x10              ./mm/physical.o
idt_pointer         0x10              idt.o
physical_bitmap     0x10              ./mm/physical.o
console4            0x10              ./io/dev/console.o
segmentation_gdtp   0x10              ./mm/segmentation.o
mount0              0x10              ./fs/fat.o
paging_kernelPageDir
                    0x10              ./mm/paging.o
mm_kernelHeap       0x10              ./mm/mm.o
segmentation_gdt    0x20              ./mm/segmentation.o
scheduler_queue     0x400             ./pm/scheduler.o

Memory Configuration

Name             Origin             Length             Attributes
*default*        0x00000000         0xffffffff

Linker script and memory map

                0x00100000                phys = 0x100000
                0xc0001000                virt = 0xc0001000

.setup          0x00100000     0x1000 load address 0x00100000
                0x00100000                setup = .
 *(.setup)
 .setup         0x00100000       0x70 loader.o
                0x00100000                setup
                0x00101000                . = ALIGN (0x1000)
 *fill*         0x00100070      0xf90 00

.kernel         0xc0001000     0x7000 load address 0x00101000
                0xc0001000                kernel = .
 *(.kernel)
 .kernel        0xc0001000      0x215 loader.o
                0xc00010fd                isr20
                0xc000112f                isr25
                0xc00011cf                irq09
                0xc0001074                isr03
                0xc00010cb                isr15
                0xc00010a3                isr10
                0xc0001189                irq02
                0xc00010e9                isr18
                0xc000105f                isr00
                0xc000111b                isr23
                0xc000107b                isr04
                0xc000119d                irq04
                0xc000117f                irq01
                0xc0001107                isr21
                0xc0001201                irq14
                0xc00011b1                irq06
                0xc000109c                isr09
                0xc000114d                isr28
                0xc0001139                isr26
                0xc0001157                isr29
                0xc000116b                isr31
                0xc00010ab                isr11
                0xc00010d5                isr16
                0xc00010bb                isr13
                0xc0001125                isr24
                0xc0001193                irq03
                0xc0001000                start
                0xc00011e3                irq11
                0xc0001175                irq00
                0xc00011f7                irq13
                0xc0001089                isr06
                0xc0001097                isr08
                0xc00011c5                irq08
                0xc0001143                isr27
                0xc000106d                isr02
                0xc0001161                isr30
                0xc00010f3                isr19
                0xc00010c3                isr14
                0xc0001066                isr01
                0xc00010df                isr17
                0xc00011d9                irq10
                0xc0001082                isr05
                0xc000120b                irq15
                0xc00010b3                isr12
                0xc00011a7                irq05
                0xc0001111                isr22
                0xc00011ed                irq12
                0xc00011bb                irq07
                0xc0001090                isr07
 *(.text)
 *fill*         0xc0001215        0xb 00
 .text          0xc0001220      0x430 kernel.o
                0xc00014c9                kernel_main
                0xc00012e3                kernel_init
                0xc0001377                printdir
                0xc0001345                kernel_panic
                0xc0001275                task1
                0xc00012c0                kernel_lock
                0xc00012b6                outportb
                0xc0001231                kernel_shell
                0xc00012cd                kernel_unlock
                0xc00012ab                inportb
                0xc0001290                task2
 .text          0xc0001650       0xc0 idt.o
                0xc000168f                idt_init
                0xc0001650                idt_setEntry
 .text          0xc0001710       0xd0 irq.o
                0xc000179b                irq_init
                0xc0001710                irq_remap
 .text          0xc00017e0      0x1f0 isr.o
                0xc00019c0                isr_setHandler
                0xc0001931                isr_dispatcher
 .text          0xc00019d0       0x20 kprintf.o
                0xc00019d0                kprintf
 .text          0xc00019f0      0x170 ./mm/dma.o
                0xc0001b2a                dma_write
                0xc0001b01                dma_read
                0xc00019f0                dma_transfer
 .text          0xc0001b60      0x290 ./mm/mm.o
                0xc0001c07                mm_free
                0xc0001b60                mm_init
                0xc0001c94                mm_malloc
                0xc0001b98                mm_morecore
 .text          0xc0001df0      0x550 ./mm/paging.o
                0xc0001e0b                paging_clearDirectory
                0xc0001dfc                paging_getPageDirectoryEntry
                0xc00020c9                paging_destroyDirectory
                0xc0002087                paging_createDirectory
                0xc0002277                paging_init
                0xc0001df4                paging_setCurrentPageDir
                0xc0001f47                paging_setPageTableEntry
                0xc0001e45                paging_setPageDirectoryEntry
                0xc000217d                paging_mapKernel
                0xc0001e98                paging_getPageTableEntry
                0xc0001df0                paging_getCurrentPageDir
                0xc0002067                paging_pageFaultHandler
 .text          0xc0002340      0x240 ./mm/physical.o
                0xc0002362                physical_pageAllocAddress
                0xc0002444                physical_pageFree
                0xc000248c                physical_init
                0xc00023b6                physical_pageAlloc
                0xc0002340                physical_isPageFree
                0xc00023b0                physical_getBitmapSize
 .text          0xc0002580      0x160 ./mm/segmentation.o
                0xc00025e3                segmentation_init
                0xc0002580                segmentation_setEntry
 .text          0xc00026e0      0x100 ./pm/elf.o
                0xc00026fe                elf_load
 .text          0xc00027e0      0x1f0 ./pm/process.o
                0xc00027fb                process_spawn
                0xc000288c                process_destroy
                0xc00028c5                process_create
 .text          0xc00029d0      0x130 ./pm/scheduler.o
                0xc0002adc                scheduler_init
                0xc00029de                scheduler_removeProcesss
                0xc0002a8c                scheduler_ltr
                0xc00029f0                scheduler_switch
                0xc0002a92                getESP
                0xc0002a95                scheduler_enable
                0xc0002acc                scheduler_disable
                0xc00029d0                scheduler_addProcess
 .text          0xc0002b00      0x1b0 ./io/io.o
                0xc0002b2d                io_open
                0xc0002b00                io_add
                0xc0002c51                io_control
                0xc0002b1d                io_remove
                0xc0002c7e                io_init
                0xc0002bc0                io_read
                0xc0002c1a                io_seek
                0xc0002b8b                io_close
                0xc0002bed                io_write
 .text          0xc0002cb0       0x70 ./io/dev/bitbucket.o
                0xc0002cbb                bitbucket_write
                0xc0002cb5                bitbucket_close
                0xc0002cca                bitbucket_init
                0xc0002cb0                bitbucket_open
 .text          0xc0002d20      0xcd0 ./io/dev/console.o
                0xc00034f7                console_create
                0xc0003835                console_init
                0xc0003548                console_open
                0xc00036b0                console_write
                0xc0002d20                console_setCursor
                0xc0003619                console_read
                0xc0002d8f                console_putChar
                0xc0003714                console_control
                0xc0003613                console_close
                0xc0002dcc                console_beep
                0xc0002e8e                console_putch
                0xc0003444                console_activate
                0xc0003266                console_cls
                0xc0002deb                console_scrollup
                0xc0002dcd                console_getChar
 .text          0xc00039f0     0x14a0 ./io/dev/floppy.o
                0xc0004c16                floppy_read
                0xc0003b43                floppy_handler
                0xc00040a3                floppy_rwBlock
                0xc0004c8b                floppy_write
                0xc0004a8e                floppy_open
                0xc0003b0f                floppy_off
                0xc0003c9c                floppy_recalibrate
                0xc0003a59                floppy_getbyte
                0xc0003fc8                floppy_blockGeometry
                0xc0004bd2                floppy_close
                0xc0003df1                floppy_seekcylinder
                0xc0004d00                floppy_seek
                0xc0003f61                floppy_reset
                0xc00039f0                floppy_sendbyte
                0xc0003ac6                floppy_on
                0xc0003b50                floppy_wait
                0xc0004a17                floppy_rw
                0xc0004d62                floppy_init
 .text          0xc0004e90      0x1b0 ./io/dev/keyboard.o
                0xc0004e90                keyboard_open
                0xc0004ee5                keyboard_handler
                0xc0004faf                keyboard_init
                0xc0004e95                keyboard_close
                0xc0004e9b                keyboard_read
 .text          0xc0005040      0x4e0 ./fs/dfs.o
                0xc0005040                dfs_add
                0xc0005135                dfs_unmount
                0xc0005218                dfs_delete
                0xc000513b                dfs_open
                0xc00051d6                dfs_seek
                0xc0005417                dfs_list
                0xc00051f7                dfs_control
                0xc0005212                dfs_create
                0xc00050c1                dfs_remove
                0xc00051bb                dfs_write
                0xc000508d                dfs_find
                0xc000527d                dfs_copy
                0xc00054a8                dfs_init
                0xc000518d                dfs_close
                0xc00051a0                dfs_read
                0xc0005323                dfs_rename
                0xc0005126                dfs_mount
 .text          0xc0005520     0x1390 ./fs/fat.o
                0xc00065ff                fat_rename
                0xc0005b51                fat_mount
                0xc0005dac                fat_unmount
                0xc0006605                fat_copy
                0xc00062db                fat_delete
                0xc00058ab                fat_file2entry
                0xc00056b8                fat_rwCluster
                0xc0005660                fat_cluster2block
                0xc0006256                fat_seek
                0xc0005819                fat_getIndex
                0xc0005efc                fat_read
                0xc00062a9                fat_create
                0xc0005de5                fat_open
                0xc0005520                fat_nextCluster
                0xc000660b                fat_list
                0xc00062a3                fat_control
                0xc00057a3                fat_compareName
                0xc000682f                fat_init
                0xc0006250                fat_write
                0xc00055a5                fat_determineType
                0xc0005e40                fat_close
 .text          0xc00068b0      0x7e0 ./fs/vfs.o
                0xc00068b0                vfs_register
                0xc0006e4f                vfs_rename
                0xc00068df                vfs_find
                0xc0006dc7                vfs_delete
                0xc00069e6                vfs_unmount
                0xc0006d38                vfs_create
                0xc0006fbd                vfs_list
                0xc0006af7                vfs_open
                0xc0006c46                vfs_read
                0xc0006d0c                vfs_control
                0xc0007060                vfs_init
                0xc0006ab6                vfs_file2mountpoint
                0xc0006c7a                vfs_write
                0xc0006cd6                vfs_seek
                0xc0006c12                vfs_close
                0xc00068fe                vfs_mount
                0xc0006f06                vfs_copy
                0xc00068d9                vfs_unregister
 .text          0xc0007090      0x420 ./lib/printf.o
                0xc000745b                get
                0xc0007090                printf_putuint
                0xc00071ae                printf_puthex
                0xc0007153                printf_putint
                0xc0007442                print
                0xc0007251                printf
 .text          0xc00074b0      0x200 ./lib/string.o
                0xc00074ec                strcmp
                0xc0007572                strncpy
                0xc0007640                memcpy
                0xc000761a                memset
                0xc000755b                strcpy
                0xc0007665                memcmp
                0xc000750a                strncmp
                0xc00074c6                strrchr
                0xc00074b0                strlen
                0xc00075b2                strstr
                0xc0008000                . = ALIGN (0x1000)
 *fill*         0xc00076b0      0x950 00

.data           0xc0008000     0x1000 load address 0x00108000
                0xc0008000                data = .
 *(.data)
 .data          0xc0008000       0x80 idt.o
                0xc0008000                isr_stubs
 .data          0xc0008080       0x40 irq.o
                0xc0008080                irq_stubs
 .data          0xc00080c0       0x80 isr.o
                0xc00080c0                isr_messages
 .data          0xc0008140       0x30 ./mm/dma.o
                0xc0008168                dma_countport
                0xc0008140                dma_maskreg
                0xc0008158                dma_pageport
                0xc0008148                dma_modereg
                0xc0008160                dma_addressport
                0xc0008150                dma_clearreg
 .data          0xc0008170       0x60 ./io/dev/floppy.o
                0xc0008170                floppy_geometrys
 .data          0xc00081d0       0x80 ./io/dev/keyboard.o
                0xc00081d0                keymap
                0xc0009000                . = ALIGN (0x1000)
 *fill*         0xc0008250      0xdb0 00

.bss            0xc0009000     0x4000 load address 0x00109000
                0xc0009000                bss = .
 *(.bss)
 .bss           0xc0009000     0x1000 loader.o
 .bss           0xc000a000        0x8 kernel.o
                0xc000a004                kernel_lockCount
                0xc000a000                kernel_console
 .bss           0xc000a008        0x4 ./pm/process.o
                0xc000a008                process_total
 .bss           0xc000a00c       0x14 ./pm/scheduler.o
                0xc000a01c                scheduler_tss
                0xc000a014                scheduler_ticks
                0xc000a018                scheduler_currentProcess
                0xc000a010                current_cr3
                0xc000a00c                current_esp
 .bss           0xc000a020        0x4 ./io/dev/console.o
                0xc000a020                console0
 .bss           0xc000a024       0x18 ./io/dev/floppy.o
                0xc000a024                floppy1
                0xc000a028                floppy2
 .bss           0xc000a03c        0x8 ./fs/dfs.o
                0xc000a040                dfs_deviceBottom
                0xc000a03c                dfs_deviceTop
 .bss           0xc000a044       0x10 ./fs/vfs.o
                0xc000a044                vfs_fsTop
                0xc000a050                vfs_mpBottom
                0xc000a04c                vfs_mpTop
                0xc000a048                vfs_fsBottom
                0xc000b000                . = ALIGN (0x1000)
 *fill*         0xc000a054      0xfac 00
 *(COMMON)
 COMMON         0xc000b000      0x810 idt.o
                0xc000b000                idt_table
                0xc000b800                idt_pointer
 COMMON         0xc000b810      0x400 isr.o
                0xc000b810                isr_handlers
 COMMON         0xc000bc10       0x10 ./mm/mm.o
                0xc000bc10                mm_kernelHeap
 COMMON         0xc000bc20       0x10 ./mm/paging.o
                0xc000bc20                paging_kernelPageDir
 COMMON         0xc000bc30       0x20 ./mm/physical.o
                0xc000bc30                physical_bitmapSize
                0xc000bc40                physical_bitmap
 COMMON         0xc000bc50       0x30 ./mm/segmentation.o
                0xc000bc50                segmentation_gdtp
                0xc000bc60                segmentation_gdt
 COMMON         0xc000bc80      0x400 ./pm/scheduler.o
                0xc000bc80                scheduler_queue
 COMMON         0xc000c080       0x40 ./io/dev/console.o
                0xc000c080                console2
                0xc000c090                console1
                0xc000c0a0                console3
                0xc000c0b0                console4
 COMMON         0xc000c0c0       0x10 ./io/dev/keyboard.o
                0xc000c0c0                keyboard_output
 COMMON         0xc000c0d0       0x10 ./fs/fat.o
                0xc000c0d0                mount0
                0xc000d000                . = ALIGN (0x1000)
 *fill*         0xc000c0e0      0xf20 00
                0xc000d000                _end = .
LOAD loader.o
LOAD kernel.o
LOAD idt.o
LOAD irq.o
LOAD isr.o
LOAD kprintf.o
LOAD ./mm/dma.o
LOAD ./mm/mm.o
LOAD ./mm/paging.o
LOAD ./mm/physical.o
LOAD ./mm/segmentation.o
LOAD ./pm/elf.o
LOAD ./pm/process.o
LOAD ./pm/scheduler.o
LOAD ./io/io.o
LOAD ./io/dev/bitbucket.o
LOAD ./io/dev/console.o
LOAD ./io/dev/floppy.o
LOAD ./io/dev/keyboard.o
LOAD ./fs/dfs.o
LOAD ./fs/fat.o
LOAD ./fs/vfs.o
LOAD ./lib/printf.o
LOAD ./lib/string.o
OUTPUT(../../bin/kernel/kernel.coff coff-go32)

.comment        0xc000d000      0x1cc
 .comment       0xc000d000       0x14 kernel.o
 .comment       0xc000d014       0x14 idt.o
 .comment       0xc000d028       0x14 irq.o
 .comment       0xc000d03c       0x14 isr.o
 .comment       0xc000d050       0x14 kprintf.o
 .comment       0xc000d064       0x14 ./mm/dma.o
 .comment       0xc000d078       0x14 ./mm/mm.o
 .comment       0xc000d08c       0x14 ./mm/paging.o
 .comment       0xc000d0a0       0x14 ./mm/physical.o
 .comment       0xc000d0b4       0x14 ./mm/segmentation.o
 .comment       0xc000d0c8       0x14 ./pm/elf.o
 .comment       0xc000d0dc       0x14 ./pm/process.o
 .comment       0xc000d0f0       0x14 ./pm/scheduler.o
 .comment       0xc000d104       0x14 ./io/io.o
 .comment       0xc000d118       0x14 ./io/dev/bitbucket.o
 .comment       0xc000d12c       0x14 ./io/dev/console.o
 .comment       0xc000d140       0x14 ./io/dev/floppy.o
 .comment       0xc000d154       0x14 ./io/dev/keyboard.o
 .comment       0xc000d168       0x14 ./fs/dfs.o
 .comment       0xc000d17c       0x14 ./fs/fat.o
 .comment       0xc000d190       0x14 ./fs/vfs.o
 .comment       0xc000d1a4       0x14 ./lib/printf.o
 .comment       0xc000d1b8       0x14 ./lib/string.o
