
.\kernel\kernel.elf:     file format elf32-i386

Disassembly of section .kernel:

c0001000 <_start>:
c0001000:	bc 00 80 00 c0 	movl   $0xc0008000,%esp
c0001005:	68 00 00 00 00 	pushl  $0x0
c000100a:	9d             	popf   
c000100b:	31 c0          	xorl   %eax,%eax
c000100d:	bf 00 70 00 c0 	movl   $0xc0007000,%edi
c0001012:	b9 00 20 01 c0 	movl   $0xc0012000,%ecx
c0001017:	29 f9          	subl   %edi,%ecx
c0001019:	c1 e9 02       	shrl   $0x2,%ecx
c000101c:	f3 ab          	repz stosl %eax,%es:(%edi)
c000101e:	53             	pushl  %ebx
c000101f:	e8 96 04 00 00 	call   c00014ba <_kernel_main>
c0001024:	f4             	hlt    

c0001025 <isr_common_stub>:
c0001025:	60             	pusha  
c0001026:	1e             	pushl  %ds
c0001027:	06             	pushl  %es
c0001028:	0f a0          	pushl  %fs
c000102a:	0f a8          	pushl  %gs
c000102c:	66 b8 10 00    	movw   $0x10,%ax
c0001030:	8e d8          	movl   %eax,%ds
c0001032:	8e c0          	movl   %eax,%es
c0001034:	8e e0          	movl   %eax,%fs
c0001036:	8e e8          	movl   %eax,%gs
c0001038:	54             	pushl  %esp
c0001039:	e8 fa 06 00 00 	call   c0001738 <_interrupt_dispatcher>
c000103e:	81 c4 04 00 00 	addl   $0x4,%esp
c0001043:	00 
c0001044:	0f a9          	popl   %gs
c0001046:	0f a1          	popl   %fs
c0001048:	07             	popl   %es
c0001049:	1f             	popl   %ds
c000104a:	61             	popa   
c000104b:	81 c4 08 00 00 	addl   $0x8,%esp
c0001050:	00 
c0001051:	cf             	iret   

c0001052 <_disable_int>:
c0001052:	cf             	iret   

c0001053 <_disable_irqA>:
c0001053:	b0 20          	movb   $0x20,%al
c0001055:	e6 20          	outb   %al,$0x20
c0001057:	cf             	iret   

c0001058 <_disable_irqB>:
c0001058:	b0 20          	movb   $0x20,%al
c000105a:	e6 a0          	outb   %al,$0xa0
c000105c:	e6 20          	outb   %al,$0x20
c000105e:	cf             	iret   

c000105f <_isr00>:
c000105f:	6a 00          	pushl  $0x0
c0001061:	6a 00          	pushl  $0x0
c0001063:	eb c0          	jmp    c0001025 <isr_common_stub>

c0001065 <_isr01>:
c0001065:	6a 00          	pushl  $0x0
c0001067:	6a 01          	pushl  $0x1
c0001069:	eb ba          	jmp    c0001025 <isr_common_stub>

c000106b <_isr02>:
c000106b:	6a 00          	pushl  $0x0
c000106d:	6a 02          	pushl  $0x2
c000106f:	eb b4          	jmp    c0001025 <isr_common_stub>

c0001071 <_isr03>:
c0001071:	6a 00          	pushl  $0x0
c0001073:	6a 03          	pushl  $0x3
c0001075:	eb ae          	jmp    c0001025 <isr_common_stub>

c0001077 <_isr04>:
c0001077:	6a 00          	pushl  $0x0
c0001079:	6a 04          	pushl  $0x4
c000107b:	eb a8          	jmp    c0001025 <isr_common_stub>

c000107d <_isr05>:
c000107d:	6a 00          	pushl  $0x0
c000107f:	6a 05          	pushl  $0x5
c0001081:	eb a2          	jmp    c0001025 <isr_common_stub>

c0001083 <_isr06>:
c0001083:	6a 00          	pushl  $0x0
c0001085:	6a 06          	pushl  $0x6
c0001087:	eb 9c          	jmp    c0001025 <isr_common_stub>

c0001089 <_isr07>:
c0001089:	6a 00          	pushl  $0x0
c000108b:	6a 07          	pushl  $0x7
c000108d:	eb 96          	jmp    c0001025 <isr_common_stub>

c000108f <_isr08>:
c000108f:	6a 08          	pushl  $0x8
c0001091:	eb 92          	jmp    c0001025 <isr_common_stub>

c0001093 <_isr09>:
c0001093:	6a 00          	pushl  $0x0
c0001095:	6a 09          	pushl  $0x9
c0001097:	eb 8c          	jmp    c0001025 <isr_common_stub>

c0001099 <_isr10>:
c0001099:	6a 0a          	pushl  $0xa
c000109b:	eb 88          	jmp    c0001025 <isr_common_stub>

c000109d <_isr11>:
c000109d:	6a 0b          	pushl  $0xb
c000109f:	eb 84          	jmp    c0001025 <isr_common_stub>

c00010a1 <_isr12>:
c00010a1:	6a 0c          	pushl  $0xc
c00010a3:	eb 80          	jmp    c0001025 <isr_common_stub>

c00010a5 <_isr13>:
c00010a5:	6a 0d          	pushl  $0xd
c00010a7:	e9 79 ff ff ff 	jmp    c0001025 <isr_common_stub>

c00010ac <_isr14>:
c00010ac:	6a 0e          	pushl  $0xe
c00010ae:	e9 72 ff ff ff 	jmp    c0001025 <isr_common_stub>

c00010b3 <_isr15>:
c00010b3:	6a 00          	pushl  $0x0
c00010b5:	6a 0f          	pushl  $0xf
c00010b7:	e9 69 ff ff ff 	jmp    c0001025 <isr_common_stub>

c00010bc <_isr16>:
c00010bc:	6a 00          	pushl  $0x0
c00010be:	6a 10          	pushl  $0x10
c00010c0:	e9 60 ff ff ff 	jmp    c0001025 <isr_common_stub>

c00010c5 <_isr17>:
c00010c5:	6a 00          	pushl  $0x0
c00010c7:	6a 11          	pushl  $0x11
c00010c9:	e9 57 ff ff ff 	jmp    c0001025 <isr_common_stub>

c00010ce <_isr18>:
c00010ce:	6a 00          	pushl  $0x0
c00010d0:	6a 12          	pushl  $0x12
c00010d2:	e9 4e ff ff ff 	jmp    c0001025 <isr_common_stub>

c00010d7 <_isr19>:
c00010d7:	6a 00          	pushl  $0x0
c00010d9:	6a 13          	pushl  $0x13
c00010db:	e9 45 ff ff ff 	jmp    c0001025 <isr_common_stub>

c00010e0 <_isr20>:
c00010e0:	6a 00          	pushl  $0x0
c00010e2:	6a 14          	pushl  $0x14
c00010e4:	e9 3c ff ff ff 	jmp    c0001025 <isr_common_stub>

c00010e9 <_isr21>:
c00010e9:	6a 00          	pushl  $0x0
c00010eb:	6a 15          	pushl  $0x15
c00010ed:	e9 33 ff ff ff 	jmp    c0001025 <isr_common_stub>

c00010f2 <_isr22>:
c00010f2:	6a 00          	pushl  $0x0
c00010f4:	6a 16          	pushl  $0x16
c00010f6:	e9 2a ff ff ff 	jmp    c0001025 <isr_common_stub>

c00010fb <_isr23>:
c00010fb:	6a 00          	pushl  $0x0
c00010fd:	6a 17          	pushl  $0x17
c00010ff:	e9 21 ff ff ff 	jmp    c0001025 <isr_common_stub>

c0001104 <_isr24>:
c0001104:	6a 00          	pushl  $0x0
c0001106:	6a 18          	pushl  $0x18
c0001108:	e9 18 ff ff ff 	jmp    c0001025 <isr_common_stub>

c000110d <_isr25>:
c000110d:	6a 00          	pushl  $0x0
c000110f:	6a 19          	pushl  $0x19
c0001111:	e9 0f ff ff ff 	jmp    c0001025 <isr_common_stub>

c0001116 <_isr26>:
c0001116:	6a 00          	pushl  $0x0
c0001118:	6a 1a          	pushl  $0x1a
c000111a:	e9 06 ff ff ff 	jmp    c0001025 <isr_common_stub>

c000111f <_isr27>:
c000111f:	6a 00          	pushl  $0x0
c0001121:	6a 1b          	pushl  $0x1b
c0001123:	e9 fd fe ff ff 	jmp    c0001025 <isr_common_stub>

c0001128 <_isr28>:
c0001128:	6a 00          	pushl  $0x0
c000112a:	6a 1c          	pushl  $0x1c
c000112c:	e9 f4 fe ff ff 	jmp    c0001025 <isr_common_stub>

c0001131 <_isr29>:
c0001131:	6a 00          	pushl  $0x0
c0001133:	6a 1d          	pushl  $0x1d
c0001135:	e9 eb fe ff ff 	jmp    c0001025 <isr_common_stub>

c000113a <_isr30>:
c000113a:	6a 00          	pushl  $0x0
c000113c:	6a 1e          	pushl  $0x1e
c000113e:	e9 e2 fe ff ff 	jmp    c0001025 <isr_common_stub>

c0001143 <_isr31>:
c0001143:	6a 00          	pushl  $0x0
c0001145:	6a 1f          	pushl  $0x1f
c0001147:	e9 d9 fe ff ff 	jmp    c0001025 <isr_common_stub>

c000114c <_irq00>:
c000114c:	6a 00          	pushl  $0x0
c000114e:	6a 20          	pushl  $0x20
c0001150:	60             	pusha  
c0001151:	1e             	pushl  %ds
c0001152:	06             	pushl  %es
c0001153:	0f a0          	pushl  %fs
c0001155:	0f a8          	pushl  %gs
c0001157:	66 b8 10 00    	movw   $0x10,%ax
c000115b:	8e d8          	movl   %eax,%ds
c000115d:	8e c0          	movl   %eax,%es
c000115f:	8e e0          	movl   %eax,%fs
c0001161:	8e e8          	movl   %eax,%gs
c0001163:	89 25 08 80 00 	movl   %esp,0xc0008008
c0001168:	c0 
c0001169:	e8 41 19 00 00 	call   c0002aaf <_scheduler_handler>
c000116e:	a1 0c 80 00 c0 	movl   0xc000800c,%eax
c0001173:	0f 22 d8       	movl   %eax,%cr3
c0001176:	8b 25 08 80 00 	movl   0xc0008008,%esp
c000117b:	c0 
c000117c:	b0 20          	movb   $0x20,%al
c000117e:	e6 20          	outb   %al,$0x20
c0001180:	0f a9          	popl   %gs
c0001182:	0f a1          	popl   %fs
c0001184:	07             	popl   %es
c0001185:	1f             	popl   %ds
c0001186:	61             	popa   
c0001187:	81 c4 08 00 00 	addl   $0x8,%esp
c000118c:	00 
c000118d:	cf             	iret   

c000118e <_irq01>:
c000118e:	6a 00          	pushl  $0x0
c0001190:	6a 21          	pushl  $0x21
c0001192:	e9 8e fe ff ff 	jmp    c0001025 <isr_common_stub>

c0001197 <_irq02>:
c0001197:	6a 00          	pushl  $0x0
c0001199:	6a 22          	pushl  $0x22
c000119b:	e9 85 fe ff ff 	jmp    c0001025 <isr_common_stub>

c00011a0 <_irq03>:
c00011a0:	6a 00          	pushl  $0x0
c00011a2:	6a 23          	pushl  $0x23
c00011a4:	e9 7c fe ff ff 	jmp    c0001025 <isr_common_stub>

c00011a9 <_irq04>:
c00011a9:	6a 00          	pushl  $0x0
c00011ab:	6a 24          	pushl  $0x24
c00011ad:	e9 73 fe ff ff 	jmp    c0001025 <isr_common_stub>

c00011b2 <_irq05>:
c00011b2:	6a 00          	pushl  $0x0
c00011b4:	6a 25          	pushl  $0x25
c00011b6:	e9 6a fe ff ff 	jmp    c0001025 <isr_common_stub>

c00011bb <_irq06>:
c00011bb:	6a 00          	pushl  $0x0
c00011bd:	6a 26          	pushl  $0x26
c00011bf:	e9 61 fe ff ff 	jmp    c0001025 <isr_common_stub>

c00011c4 <_irq07>:
c00011c4:	6a 00          	pushl  $0x0
c00011c6:	6a 27          	pushl  $0x27
c00011c8:	e9 58 fe ff ff 	jmp    c0001025 <isr_common_stub>

c00011cd <_irq08>:
c00011cd:	6a 00          	pushl  $0x0
c00011cf:	6a 28          	pushl  $0x28
c00011d1:	e9 4f fe ff ff 	jmp    c0001025 <isr_common_stub>

c00011d6 <_irq09>:
c00011d6:	6a 00          	pushl  $0x0
c00011d8:	6a 29          	pushl  $0x29
c00011da:	e9 46 fe ff ff 	jmp    c0001025 <isr_common_stub>

c00011df <_irq10>:
c00011df:	6a 00          	pushl  $0x0
c00011e1:	6a 2a          	pushl  $0x2a
c00011e3:	e9 3d fe ff ff 	jmp    c0001025 <isr_common_stub>

c00011e8 <_irq11>:
c00011e8:	6a 00          	pushl  $0x0
c00011ea:	6a 2b          	pushl  $0x2b
c00011ec:	e9 34 fe ff ff 	jmp    c0001025 <isr_common_stub>

c00011f1 <_irq12>:
c00011f1:	6a 00          	pushl  $0x0
c00011f3:	6a 2c          	pushl  $0x2c
c00011f5:	e9 2b fe ff ff 	jmp    c0001025 <isr_common_stub>

c00011fa <_irq13>:
c00011fa:	6a 00          	pushl  $0x0
c00011fc:	6a 2d          	pushl  $0x2d
c00011fe:	e9 22 fe ff ff 	jmp    c0001025 <isr_common_stub>

c0001203 <_irq14>:
c0001203:	6a 00          	pushl  $0x0
c0001205:	6a 2e          	pushl  $0x2e
c0001207:	e9 19 fe ff ff 	jmp    c0001025 <isr_common_stub>

c000120c <_irq15>:
c000120c:	6a 00          	pushl  $0x0
c000120e:	6a 2f          	pushl  $0x2f
c0001210:	e9 10 fe ff ff 	jmp    c0001025 <isr_common_stub>
c0001215:	00 00          	addb   %al,(%eax)
c0001217:	00 5b 41       	addb   %bl,0x41(%ebx)
c000121a:	4d             	decl   %ebp
c000121b:	4f             	decl   %edi
c000121c:	53             	pushl  %ebx
c000121d:	5d             	popl   %ebp
c000121e:	3e 00 67 6f    	addb   %ah,%ds:0x6f(%edi)
c0001222:	74 3a          	je     c000125e <_kernel_shell+0x35>
c0001224:	20 25 73 0a 00 	andb   %ah,0x56000a73
c0001229:	56 

c0001229 <_kernel_shell>:
c0001229:	56             	pushl  %esi
c000122a:	53             	pushl  %ebx
c000122b:	81 ec 84 00 00 	subl   $0x84,%esp
c0001230:	00 
c0001231:	8b 9c 24 90 00 	movl   0x90(%esp,1),%ebx
c0001236:	00 00 
c0001238:	8d 74 24 04    	leal   0x4(%esp,1),%esi
c000123c:	83 ec 08       	subl   $0x8,%esp
c000123f:	68 18 12 00 c0 	pushl  $0xc0001218
c0001244:	53             	pushl  %ebx
c0001245:	e8 f4 4a 00 00 	call   c0005d3e <_print>
c000124a:	83 c4 0c       	addl   $0xc,%esp
c000124d:	68 80 00 00 00 	pushl  $0x80
c0001252:	56             	pushl  %esi
c0001253:	53             	pushl  %ebx
c0001254:	e8 fe 4a 00 00 	call   c0005d57 <_get>
c0001259:	83 c4 0c       	addl   $0xc,%esp
c000125c:	56             	pushl  %esi
c000125d:	68 20 12 00 c0 	pushl  $0xc0001220
c0001262:	53             	pushl  %ebx
c0001263:	e8 d6 4a 00 00 	call   c0005d3e <_print>
c0001268:	83 c4 10       	addl   $0x10,%esp
c000126b:	eb cf          	jmp    c000123c <_kernel_shell+0x13>
c000126d:	2f             	das    
c000126e:	64 65 76 69    	jbe    c00012db <_kernel_unlock+0x5>
c0001272:	63 65 2f       	arpl   %sp,0x2f(%ebp)
c0001275:	63 6f 6e       	arpl   %bp,0x6e(%edi)
c0001278:	73 6f          	jae    c00012e9 <_kernel_unlock+0x13>
c000127a:	6c             	insb   (%dx),%es:(%edi)
c000127b:	65 32 00       	xorb   %gs:(%eax),%al

c000127e <_task1>:
c000127e:	83 ec 14       	subl   $0x14,%esp
c0001281:	6a 03          	pushl  $0x3
c0001283:	68 6d 12 00 c0 	pushl  $0xc000126d
c0001288:	e8 dc 42 00 00 	call   c0005569 <_vfs_open>
c000128d:	89 04 24       	movl   %eax,(%esp,1)
c0001290:	e8 94 ff ff ff 	call   c0001229 <_kernel_shell>
c0001295:	83 c4 1c       	addl   $0x1c,%esp
c0001298:	c3             	ret    

c0001299 <_task2>:
c0001299:	c6 05 02 80 0b 	movb   $0x61,0xb8002
c000129e:	00 61 
c00012a0:	80 3d 02 80 0b 	cmpb   $0x61,0xb8002
c00012a5:	00 61 
c00012a7:	0f 94 c0       	sete   %al
c00012aa:	83 c0 61       	addl   $0x61,%eax
c00012ad:	a2 02 80 0b 00 	movb   %al,0xb8002
c00012b2:	eb ec          	jmp    c00012a0 <_task2+0x7>

c00012b4 <_inportb>:
c00012b4:	8b 54 24 04    	movl   0x4(%esp,1),%edx
c00012b8:	ec             	inb    (%dx),%al
c00012b9:	25 ff 00 00 00 	andl   $0xff,%eax
c00012be:	c3             	ret    

c00012bf <_outportb>:
c00012bf:	8b 54 24 04    	movl   0x4(%esp,1),%edx
c00012c3:	8a 44 24 08    	movb   0x8(%esp,1),%al
c00012c7:	ee             	outb   %al,(%dx)
c00012c8:	c3             	ret    

c00012c9 <_kernel_lock>:
c00012c9:	fa             	cli    
c00012ca:	a1 00 80 00 c0 	movl   0xc0008000,%eax
c00012cf:	40             	incl   %eax
c00012d0:	a3 00 80 00 c0 	movl   %eax,0xc0008000
c00012d5:	c3             	ret    

c00012d6 <_kernel_unlock>:
c00012d6:	a1 00 80 00 c0 	movl   0xc0008000,%eax
c00012db:	48             	decl   %eax
c00012dc:	a3 00 80 00 c0 	movl   %eax,0xc0008000
c00012e1:	a1 00 80 00 c0 	movl   0xc0008000,%eax
c00012e6:	85 c0          	testl  %eax,%eax
c00012e8:	7f 01          	jg     c00012eb <_kernel_unlock+0x15>
c00012ea:	fb             	sti    
c00012eb:	c3             	ret    
c00012ec:	2f             	das    
c00012ed:	64 65 76 69    	jbe    c000135a <_kernel_init+0x5d>
c00012f1:	63 65 2f       	arpl   %sp,0x2f(%ebp)
c00012f4:	63 6f 6e       	arpl   %bp,0x6e(%edi)
c00012f7:	73 6f          	jae    c0001368 <_kernel_init+0x6b>
c00012f9:	6c             	insb   (%dx),%es:(%edi)
c00012fa:	65 31 00       	xorl   %eax,%gs:(%eax)

c00012fd <_kernel_init>:
c00012fd:	53             	pushl  %ebx
c00012fe:	83 ec 0c       	subl   $0xc,%esp
c0001301:	fa             	cli    
c0001302:	a1 00 80 00 c0 	movl   0xc0008000,%eax
c0001307:	40             	incl   %eax
c0001308:	a3 00 80 00 c0 	movl   %eax,0xc0008000
c000130d:	6a 34          	pushl  $0x34
c000130f:	6a 00          	pushl  $0x0
c0001311:	68 00 90 00 c0 	pushl  $0xc0009000
c0001316:	e8 f4 4b 00 00 	call   c0005f0f <_memset>
c000131b:	c7 05 04 90 00 	movl   $0x0,0xc0009004
c0001320:	c0 00 00 00 00 
c0001325:	e8 97 06 00 00 	call   c00019c1 <_interrupt_init>
c000132a:	83 c4 04       	addl   $0x4,%esp
c000132d:	8b 44 24 1c    	movl   0x1c(%esp,1),%eax
c0001331:	ff 70 08       	pushl  0x8(%eax)
c0001334:	e8 ef 09 00 00 	call   c0001d28 <_mm_init>
c0001339:	e8 71 46 00 00 	call   c00059af <_vfs_init>
c000133e:	e8 13 1a 00 00 	call   c0002d56 <_io_init>
c0001343:	e8 1d 18 00 00 	call   c0002b65 <_scheduler_init>
c0001348:	e8 60 07 00 00 	call   c0001aad <_syscall_init>
c000134d:	83 c4 08       	addl   $0x8,%esp
c0001350:	6a 03          	pushl  $0x3
c0001352:	68 ec 12 00 c0 	pushl  $0xc00012ec
c0001357:	e8 0d 42 00 00 	call   c0005569 <_vfs_open>
c000135c:	89 c3          	movl   %eax,%ebx
c000135e:	83 c4 10       	addl   $0x10,%esp
c0001361:	85 c0          	testl  %eax,%eax
c0001363:	75 05          	jne    c000136a <_kernel_init+0x6d>
c0001365:	e8 4f 00 00 00 	call   c00013b9 <_kernel_panic>
c000136a:	89 1d 20 90 00 	movl   %ebx,0xc0009020
c000136f:	c0 
c0001370:	a1 00 80 00 c0 	movl   0xc0008000,%eax
c0001375:	48             	decl   %eax
c0001376:	a3 00 80 00 c0 	movl   %eax,0xc0008000
c000137b:	a1 00 80 00 c0 	movl   0xc0008000,%eax
c0001380:	85 c0          	testl  %eax,%eax
c0001382:	7f 01          	jg     c0001385 <_kernel_init+0x88>
c0001384:	fb             	sti    
c0001385:	83 c4 08       	addl   $0x8,%esp
c0001388:	5b             	popl   %ebx
c0001389:	c3             	ret    

c000138a <_kernel_printf>:
c000138a:	83 ec 10       	subl   $0x10,%esp
c000138d:	8d 44 24 18    	leal   0x18(%esp,1),%eax
c0001391:	50             	pushl  %eax
c0001392:	ff 74 24 18    	pushl  0x18(%esp,1)
c0001396:	ff 35 20 90 00 	pushl  0xc0009020
c000139b:	c0 
c000139c:	e8 f8 47 00 00 	call   c0005b99 <_printf>
c00013a1:	83 c4 1c       	addl   $0x1c,%esp
c00013a4:	c3             	ret    
c00013a5:	41             	incl   %ecx
c00013a6:	4d             	decl   %ebp
c00013a7:	4f             	decl   %edi
c00013a8:	53             	pushl  %ebx
c00013a9:	20 4b 65       	andb   %cl,0x65(%ebx)
c00013ac:	72 6e          	jb     c000141c <_kernel_panic+0x63>
c00013ae:	65 6c          	insb   (%dx),%es:(%edi)
c00013b0:	20 50 61       	andb   %dl,0x61(%eax)
c00013b3:	6e             	outsb  %ds:(%esi),(%dx)
c00013b4:	69 63 21 0a 00 	imull  $0xec83000a,0x21(%ebx),%esp
c00013b9:	83 ec 

c00013b9 <_kernel_panic>:
c00013b9:	83 ec 18       	subl   $0x18,%esp
c00013bc:	68 a5 13 00 c0 	pushl  $0xc00013a5
c00013c1:	e8 c4 ff ff ff 	call   c000138a <_kernel_printf>
c00013c6:	83 c4 10       	addl   $0x10,%esp
c00013c9:	eb fe          	jmp    c00013c9 <_kernel_panic+0x10>
c00013cb:	90             	nop    
c00013cc:	57             	pushl  %edi
c00013cd:	65 6c          	insb   (%dx),%es:(%edi)
c00013cf:	63 6f 6d       	arpl   %bp,0x6d(%edi)
c00013d2:	65 21 20       	andl   %esp,%gs:(%eax)
c00013d5:	2d 20 50 72 65 	subl   $0x65725020,%eax
c00013da:	73 73          	jae    c000144f <_kernel_panic+0x96>
c00013dc:	20 6b 65       	andb   %ch,0x65(%ebx)
c00013df:	79 73          	jns    c0001454 <_kernel_panic+0x9b>
c00013e1:	20 46 31       	andb   %al,0x31(%esi)
c00013e4:	20 74 6f 20    	andb   %dh,0x20(%edi,%ebp,2)
c00013e8:	46             	incl   %esi
c00013e9:	34 20          	xorb   $0x20,%al
c00013eb:	74 6f          	je     c000145c <_kernel_panic+0xa3>
c00013ed:	20 6e 61       	andb   %ch,0x61(%esi)
c00013f0:	76 69          	jbe    c000145b <_kernel_panic+0xa2>
c00013f2:	67 61          	addr16 popa 
c00013f4:	74 65          	je     c000145b <_kernel_panic+0xa2>
c00013f6:	20 76 69       	andb   %dh,0x69(%esi)
c00013f9:	72 74          	jb     c000146f <_kernel_panic+0xb6>
c00013fb:	75 61          	jne    c000145e <_kernel_panic+0xa5>
c00013fd:	6c             	insb   (%dx),%es:(%edi)
c00013fe:	20 63 6f       	andb   %ah,0x6f(%ebx)
c0001401:	6e             	outsb  %ds:(%esi),(%dx)
c0001402:	73 6f          	jae    c0001473 <_kernel_panic+0xba>
c0001404:	6c             	insb   (%dx),%es:(%edi)
c0001405:	65 73 0a       	jae    c0001412 <_kernel_panic+0x59>
c0001408:	0a 00          	orb    (%eax),%al
c000140a:	89 f6          	movl   %esi,%esi
c000140c:	6d             	insl   (%dx),%es:(%edi)
c000140d:	6f             	outsl  %ds:(%esi),(%dx)
c000140e:	75 6e          	jne    c000147e <_kernel_panic+0xc5>
c0001410:	74 69          	je     c000147b <_kernel_panic+0xc2>
c0001412:	6e             	outsb  %ds:(%esi),(%dx)
c0001413:	67 20 64 65    	addr16 andb %ah,0x65(si)
c0001417:	76 69          	jbe    c0001482 <_kernel_panic+0xc9>
c0001419:	63 65 20       	arpl   %sp,0x20(%ebp)
c000141c:	2f             	das    
c000141d:	64 65 76 69    	jbe    c000148a <_kernel_panic+0xd1>
c0001421:	63 65 2f       	arpl   %sp,0x2f(%ebp)
c0001424:	66 6c          	insb   (%dx),%es:(%edi)
c0001426:	6f             	outsl  %ds:(%esi),(%dx)
c0001427:	70 70          	jo     c0001499 <_kernel_panic+0xe0>
c0001429:	79 31          	jns    c000145c <_kernel_panic+0xa3>
c000142b:	20 74 6f 20    	andb   %dh,0x20(%edi,%ebp,2)
c000142f:	2f             	das    
c0001430:	66 61          	popa   
c0001432:	74 2f          	je     c0001463 <_kernel_panic+0xaa>
c0001434:	20 61 73       	andb   %ah,0x73(%ecx)
c0001437:	20 61 20       	andb   %ah,0x20(%ecx)
c000143a:	46             	incl   %esi
c000143b:	41             	incl   %ecx
c000143c:	54             	pushl  %esp
c000143d:	20 66 69       	andb   %ah,0x69(%esi)
c0001440:	6c             	insb   (%dx),%es:(%edi)
c0001441:	65 20 73 79    	andb   %dh,%gs:0x79(%ebx)
c0001445:	73 74          	jae    c00014bb <_kernel_main+0x1>
c0001447:	65 6d          	insl   (%dx),%es:(%edi)
c0001449:	2e 20 00       	andb   %al,%cs:(%eax)
c000144c:	2f             	das    
c000144d:	66 61          	popa   
c000144f:	74 2f          	je     c0001480 <_kernel_panic+0xc7>
c0001451:	00 2f          	addb   %ch,(%edi)
c0001453:	64 65 76 69    	jbe    c00014c0 <_kernel_main+0x6>
c0001457:	63 65 2f       	arpl   %sp,0x2f(%ebp)
c000145a:	66 6c          	insb   (%dx),%es:(%edi)
c000145c:	6f             	outsl  %ds:(%esi),(%dx)
c000145d:	70 70          	jo     c00014cf <_kernel_main+0x15>
c000145f:	79 31          	jns    c0001492 <_kernel_panic+0xd9>
c0001461:	00 64 6f 6e    	addb   %ah,0x6e(%edi,%ebp,2)
c0001465:	65 2e 0a 00    	orb    %cs:%gs:(%eax),%al
c0001469:	2f             	das    
c000146a:	66 61          	popa   
c000146c:	74 2f          	je     c000149d <_kernel_panic+0xe4>
c000146e:	42             	incl   %edx
c000146f:	4f             	decl   %edi
c0001470:	4f             	decl   %edi
c0001471:	54             	pushl  %esp
c0001472:	2f             	das    
c0001473:	54             	pushl  %esp
c0001474:	45             	incl   %ebp
c0001475:	53             	pushl  %ebx
c0001476:	54             	pushl  %esp
c0001477:	2e 42          	incl   %edx
c0001479:	49             	decl   %ecx
c000147a:	4e             	decl   %esi
c000147b:	00 66 61       	addb   %ah,0x61(%esi)
c000147e:	69 6c 65 64 20 	imull  $0x206f7420,0x64(%ebp,2),%ebp
c0001483:	74 6f 20 
c0001486:	6f             	outsl  %ds:(%esi),(%dx)
c0001487:	70 65          	jo     c00014ee <_kernel_main+0x34>
c0001489:	6e             	outsb  %ds:(%esi),(%dx)
c000148a:	20 2f          	andb   %ch,(%edi)
c000148c:	64 65 76 69    	jbe    c00014f9 <_kernel_main+0x3f>
c0001490:	63 65 2f       	arpl   %sp,0x2f(%ebp)
c0001493:	63 6f 6e       	arpl   %bp,0x6e(%edi)
c0001496:	73 6f          	jae    c0001507 <_kernel_main+0x4d>
c0001498:	6c             	insb   (%dx),%es:(%edi)
c0001499:	65 31 0a       	xorl   %ecx,%gs:(%edx)
c000149c:	00 68 61       	addb   %ch,0x61(%eax)
c000149f:	6e             	outsb  %ds:(%esi),(%dx)
c00014a0:	67 69 6e 67 3a 	addr16 imull $0x2d2d203a,0x67(bp),%ebp
c00014a5:	20 2d 2d 
c00014a8:	3e 69 6e 66 69 	imull  $0x74696e69,%ds:0x66(%esi),%ebp
c00014ad:	6e 69 74 
c00014b0:	65 6c          	insb   (%dx),%es:(%edi)
c00014b2:	6f             	outsl  %ds:(%esi),(%dx)
c00014b3:	6f             	outsl  %ds:(%esi),(%dx)
c00014b4:	70 3c          	jo     c00014f2 <_kernel_main+0x38>
c00014b6:	2d 2d 0a 00 53 	subl   $0x53000a2d,%eax

c00014ba <_kernel_main>:
c00014ba:	53             	pushl  %ebx
c00014bb:	83 ec 14       	subl   $0x14,%esp
c00014be:	ff 74 24 1c    	pushl  0x1c(%esp,1)
c00014c2:	e8 36 fe ff ff 	call   c00012fd <_kernel_init>
c00014c7:	c7 04 24 cc 13 	movl   $0xc00013cc,(%esp,1)
c00014cc:	00 c0 
c00014ce:	e8 b7 fe ff ff 	call   c000138a <_kernel_printf>
c00014d3:	c7 04 24 0c 14 	movl   $0xc000140c,(%esp,1)
c00014d8:	00 c0 
c00014da:	e8 ab fe ff ff 	call   c000138a <_kernel_printf>
c00014df:	83 c4 0c       	addl   $0xc,%esp
c00014e2:	6a 01          	pushl  $0x1
c00014e4:	68 4c 14 00 c0 	pushl  $0xc000144c
c00014e9:	68 52 14 00 c0 	pushl  $0xc0001452
c00014ee:	e8 a3 3e 00 00 	call   c0005396 <_vfs_mount>
c00014f3:	c7 04 24 62 14 	movl   $0xc0001462,(%esp,1)
c00014f8:	00 c0 
c00014fa:	e8 8b fe ff ff 	call   c000138a <_kernel_printf>
c00014ff:	83 c4 08       	addl   $0x8,%esp
c0001502:	6a 03          	pushl  $0x3
c0001504:	68 ec 12 00 c0 	pushl  $0xc00012ec
c0001509:	e8 5b 40 00 00 	call   c0005569 <_vfs_open>
c000150e:	89 c3          	movl   %eax,%ebx
c0001510:	83 c4 10       	addl   $0x10,%esp
c0001513:	85 c0          	testl  %eax,%eax
c0001515:	74 3a          	je     c0001551 <_kernel_main+0x97>
c0001517:	83 ec 08       	subl   $0x8,%esp
c000151a:	68 00 10 00 00 	pushl  $0x1000
c000151f:	68 99 12 00 c0 	pushl  $0xc0001299
c0001524:	e8 58 13 00 00 	call   c0002881 <_process_create>
c0001529:	89 04 24       	movl   %eax,(%esp,1)
c000152c:	e8 d7 14 00 00 	call   c0002a08 <_scheduler_addProcess>
c0001531:	83 c4 08       	addl   $0x8,%esp
c0001534:	53             	pushl  %ebx
c0001535:	68 69 14 00 c0 	pushl  $0xc0001469
c000153a:	e8 29 12 00 00 	call   c0002768 <_process_spawn>
c000153f:	e8 ed 15 00 00 	call   c0002b31 <_scheduler_enable>
c0001544:	89 1c 24       	movl   %ebx,(%esp,1)
c0001547:	e8 dd fc ff ff 	call   c0001229 <_kernel_shell>
c000154c:	83 c4 10       	addl   $0x10,%esp
c000154f:	eb 10          	jmp    c0001561 <_kernel_main+0xa7>
c0001551:	83 ec 0c       	subl   $0xc,%esp
c0001554:	68 7c 14 00 c0 	pushl  $0xc000147c
c0001559:	e8 2c fe ff ff 	call   c000138a <_kernel_printf>
c000155e:	83 c4 10       	addl   $0x10,%esp
c0001561:	83 ec 0c       	subl   $0xc,%esp
c0001564:	68 9d 14 00 c0 	pushl  $0xc000149d
c0001569:	e8 1c fe ff ff 	call   c000138a <_kernel_printf>
c000156e:	e8 46 fe ff ff 	call   c00013b9 <_kernel_panic>
c0001573:	83 c4 18       	addl   $0x18,%esp
c0001576:	5b             	popl   %ebx
c0001577:	c3             	ret    
c0001578:	44             	incl   %esp
c0001579:	69 76 69 64 65 	imull  $0x42206564,0x69(%esi),%esi
c000157e:	20 42 
c0001580:	79 20          	jns    c00015a2 <_kernel_main+0xe8>
c0001582:	5a             	popl   %edx
c0001583:	65 72 6f       	jb     c00015f5 <_kernel_main+0x13b>
c0001586:	00 44 65 62    	addb   %al,0x62(%ebp,2)
c000158a:	75 67          	jne    c00015f3 <_kernel_main+0x139>
c000158c:	00 4e 6f       	addb   %cl,0x6f(%esi)
c000158f:	6e             	outsb  %ds:(%esi),(%dx)
c0001590:	20 4d 61       	andb   %cl,0x61(%ebp)
c0001593:	73 6b          	jae    c0001600 <_kernel_main+0x146>
c0001595:	61             	popa   
c0001596:	62 6c 65 20    	boundl 0x20(%ebp,2),%ebp
c000159a:	49             	decl   %ecx
c000159b:	6e             	outsb  %ds:(%esi),(%dx)
c000159c:	74 65          	je     c0001603 <_kernel_main+0x149>
c000159e:	72 72          	jb     c0001612 <_kernel_main+0x158>
c00015a0:	75 70          	jne    c0001612 <_kernel_main+0x158>
c00015a2:	74 00          	je     c00015a4 <_kernel_main+0xea>
c00015a4:	42             	incl   %edx
c00015a5:	72 65          	jb     c000160c <_kernel_main+0x152>
c00015a7:	61             	popa   
c00015a8:	6b 70 6f 69    	imull  $0x69,0x6f(%eax),%esi
c00015ac:	6e             	outsb  %ds:(%esi),(%dx)
c00015ad:	74 00          	je     c00015af <_kernel_main+0xf5>
c00015af:	49             	decl   %ecx
c00015b0:	6e             	outsb  %ds:(%esi),(%dx)
c00015b1:	74 6f          	je     c0001622 <_kernel_main+0x168>
c00015b3:	20 44 65 74    	andb   %al,0x74(%ebp,2)
c00015b7:	65 63 74 65 64 	arpl   %si,%gs:0x64(%ebp,2)
c00015bc:	20 4f 76       	andb   %cl,0x76(%edi)
c00015bf:	65 72 66       	jb     c0001628 <_kernel_main+0x16e>
c00015c2:	6c             	insb   (%dx),%es:(%edi)
c00015c3:	6f             	outsl  %ds:(%esi),(%dx)
c00015c4:	77 00          	ja     c00015c6 <_kernel_main+0x10c>
c00015c6:	4f             	decl   %edi
c00015c7:	75 74          	jne    c000163d <_kernel_main+0x183>
c00015c9:	20 6f 66       	andb   %ch,0x66(%edi)
c00015cc:	20 42 6f       	andb   %al,0x6f(%edx)
c00015cf:	75 6e          	jne    c000163f <_kernel_main+0x185>
c00015d1:	64 73 00       	jae    c00015d4 <_kernel_main+0x11a>
c00015d4:	49             	decl   %ecx
c00015d5:	6e             	outsb  %ds:(%esi),(%dx)
c00015d6:	76 61          	jbe    c0001639 <_kernel_main+0x17f>
c00015d8:	6c             	insb   (%dx),%es:(%edi)
c00015d9:	69 64 20 4f 70 	imull  $0x646f6370,0x4f(%eax,1),%esp
c00015de:	63 6f 64 
c00015e1:	65 00 4e 6f    	addb   %cl,%gs:0x6f(%esi)
c00015e5:	20 43 6f       	andb   %al,0x6f(%ebx)
c00015e8:	70 72          	jo     c000165c <_kernel_main+0x1a2>
c00015ea:	6f             	outsl  %ds:(%esi),(%dx)
c00015eb:	63 65 73       	arpl   %sp,0x73(%ebp)
c00015ee:	73 6f          	jae    c000165f <_kernel_main+0x1a5>
c00015f0:	72 00          	jb     c00015f2 <_kernel_main+0x138>
c00015f2:	44             	incl   %esp
c00015f3:	6f             	outsl  %ds:(%esi),(%dx)
c00015f4:	75 62          	jne    c0001658 <_kernel_main+0x19e>
c00015f6:	6c             	insb   (%dx),%es:(%edi)
c00015f7:	65 20 46 61    	andb   %al,%gs:0x61(%esi)
c00015fb:	75 6c          	jne    c0001669 <_kernel_main+0x1af>
c00015fd:	74 00          	je     c00015ff <_kernel_main+0x145>
c00015ff:	43             	incl   %ebx
c0001600:	6f             	outsl  %ds:(%esi),(%dx)
c0001601:	70 72          	jo     c0001675 <_kernel_main+0x1bb>
c0001603:	6f             	outsl  %ds:(%esi),(%dx)
c0001604:	63 65 73       	arpl   %sp,0x73(%ebp)
c0001607:	73 6f          	jae    c0001678 <_kernel_main+0x1be>
c0001609:	72 20          	jb     c000162b <_kernel_main+0x171>
c000160b:	53             	pushl  %ebx
c000160c:	65 67 6d       	addr16 insl (%dx),%es:(%di)
c000160f:	65 6e          	outsb  %ds:(%esi),(%dx)
c0001611:	74 20          	je     c0001633 <_kernel_main+0x179>
c0001613:	4f             	decl   %edi
c0001614:	76 65          	jbe    c000167b <_kernel_main+0x1c1>
c0001616:	72 72          	jb     c000168a <_kernel_main+0x1d0>
c0001618:	75 6e          	jne    c0001688 <_kernel_main+0x1ce>
c000161a:	00 42 61       	addb   %al,0x61(%edx)
c000161d:	64 20 54 53 53 	andb   %dl,%fs:0x53(%ebx,%edx,2)
c0001622:	00 53 65       	addb   %dl,0x65(%ebx)
c0001625:	67 6d          	addr16 insl (%dx),%es:(%di)
c0001627:	65 6e          	outsb  %ds:(%esi),(%dx)
c0001629:	74 20          	je     c000164b <_kernel_main+0x191>
c000162b:	4e             	decl   %esi
c000162c:	6f             	outsl  %ds:(%esi),(%dx)
c000162d:	74 20          	je     c000164f <_kernel_main+0x195>
c000162f:	50             	pushl  %eax
c0001630:	72 65          	jb     c0001697 <_kernel_main+0x1dd>
c0001632:	73 65          	jae    c0001699 <_kernel_main+0x1df>
c0001634:	6e             	outsb  %ds:(%esi),(%dx)
c0001635:	74 00          	je     c0001637 <_kernel_main+0x17d>
c0001637:	53             	pushl  %ebx
c0001638:	74 61          	je     c000169b <_kernel_main+0x1e1>
c000163a:	63 6b 20       	arpl   %bp,0x20(%ebx)
c000163d:	46             	incl   %esi
c000163e:	61             	popa   
c000163f:	75 6c          	jne    c00016ad <_kernel_main+0x1f3>
c0001641:	74 00          	je     c0001643 <_kernel_main+0x189>
c0001643:	47             	incl   %edi
c0001644:	65 6e          	outsb  %ds:(%esi),(%dx)
c0001646:	65 72 61       	jb     c00016aa <_kernel_main+0x1f0>
c0001649:	6c             	insb   (%dx),%es:(%edi)
c000164a:	20 50 72       	andb   %dl,0x72(%eax)
c000164d:	6f             	outsl  %ds:(%esi),(%dx)
c000164e:	74 65          	je     c00016b5 <_kernel_main+0x1fb>
c0001650:	63 74 69 6f    	arpl   %si,0x6f(%ecx,%ebp,2)
c0001654:	6e             	outsb  %ds:(%esi),(%dx)
c0001655:	20 46 61       	andb   %al,0x61(%esi)
c0001658:	75 6c          	jne    c00016c6 <_kernel_main+0x20c>
c000165a:	74 00          	je     c000165c <_kernel_main+0x1a2>
c000165c:	50             	pushl  %eax
c000165d:	61             	popa   
c000165e:	67 65 20 46 61 	addr16 andb %al,%gs:0x61(bp)
c0001663:	75 6c          	jne    c00016d1 <_kernel_main+0x217>
c0001665:	74 00          	je     c0001667 <_kernel_main+0x1ad>
c0001667:	55             	pushl  %ebp
c0001668:	6e             	outsb  %ds:(%esi),(%dx)
c0001669:	6b 6e 6f 77    	imull  $0x77,0x6f(%esi),%ebp
c000166d:	6e             	outsb  %ds:(%esi),(%dx)
c000166e:	20 49 6e       	andb   %cl,0x6e(%ecx)
c0001671:	74 65          	je     c00016d8 <_kernel_main+0x21e>
c0001673:	72 72          	jb     c00016e7 <_kernel_main+0x22d>
c0001675:	75 70          	jne    c00016e7 <_kernel_main+0x22d>
c0001677:	74 00          	je     c0001679 <_kernel_main+0x1bf>
c0001679:	43             	incl   %ebx
c000167a:	6f             	outsl  %ds:(%esi),(%dx)
c000167b:	70 72          	jo     c00016ef <_kernel_main+0x235>
c000167d:	6f             	outsl  %ds:(%esi),(%dx)
c000167e:	63 65 73       	arpl   %sp,0x73(%ebp)
c0001681:	73 6f          	jae    c00016f2 <_kernel_main+0x238>
c0001683:	72 20          	jb     c00016a5 <_kernel_main+0x1eb>
c0001685:	46             	incl   %esi
c0001686:	61             	popa   
c0001687:	75 6c          	jne    c00016f5 <_kernel_main+0x23b>
c0001689:	74 00          	je     c000168b <_kernel_main+0x1d1>
c000168b:	41             	incl   %ecx
c000168c:	6c             	insb   (%dx),%es:(%edi)
c000168d:	69 67 6e 6d 65 	imull  $0x746e656d,0x6e(%edi),%esp
c0001692:	6e 74 
c0001694:	20 43 68       	andb   %al,0x68(%ebx)
c0001697:	65 63 6b 00    	arpl   %bp,%gs:0x0(%ebx)
c000169b:	4d             	decl   %ebp
c000169c:	61             	popa   
c000169d:	63 68 69       	arpl   %bp,0x69(%eax)
c00016a0:	6e             	outsb  %ds:(%esi),(%dx)
c00016a1:	65 20 43 68    	andb   %al,%gs:0x68(%ebx)
c00016a5:	65 63 6b 00    	arpl   %bp,%gs:0x0(%ebx)
c00016a9:	52             	pushl  %edx
c00016aa:	65 73 65       	jae    c0001712 <_kernel_main+0x258>
c00016ad:	72 76          	jb     c0001725 <_kernel_main+0x26b>
c00016af:	65 64 00 0a    	addb   %cl,%fs:%gs:(%edx)
c00016b3:	25 73 0a 00 09 	andl   $0x9000a73,%eax
c00016b8:	43             	incl   %ebx
c00016b9:	53             	pushl  %ebx
c00016ba:	3a 25 78 20 45 	cmpb   0x49452078,%ah
c00016bf:	49 
c00016c0:	50             	pushl  %eax
c00016c1:	3a 25 78 0a 00 	cmpb   0x9000a78,%ah
c00016c6:	09 
c00016c7:	44             	incl   %esp
c00016c8:	53             	pushl  %ebx
c00016c9:	3a 25 78 20 45 	cmpb   0x53452078,%ah
c00016ce:	53 
c00016cf:	3a 25 78 20 46 	cmpb   0x53462078,%ah
c00016d4:	53 
c00016d5:	3a 25 78 20 47 	cmpb   0x53472078,%ah
c00016da:	53 
c00016db:	3a 25 78 0a 00 	cmpb   0x9000a78,%ah
c00016e0:	09 
c00016e1:	45             	incl   %ebp
c00016e2:	44             	incl   %esp
c00016e3:	49             	decl   %ecx
c00016e4:	3a 25 78 20 45 	cmpb   0x53452078,%ah
c00016e9:	53 
c00016ea:	49             	decl   %ecx
c00016eb:	3a 25 78 20 45 	cmpb   0x42452078,%ah
c00016f0:	42 
c00016f1:	50             	pushl  %eax
c00016f2:	3a 25 78 20 45 	cmpb   0x53452078,%ah
c00016f7:	53 
c00016f8:	50             	pushl  %eax
c00016f9:	3a 25 78 0a 00 	cmpb   0x9000a78,%ah
c00016fe:	09 
c00016ff:	45             	incl   %ebp
c0001700:	42             	incl   %edx
c0001701:	58             	popl   %eax
c0001702:	3a 25 78 20 45 	cmpb   0x44452078,%ah
c0001707:	44 
c0001708:	58             	popl   %eax
c0001709:	3a 25 78 20 45 	cmpb   0x43452078,%ah
c000170e:	43 
c000170f:	58             	popl   %eax
c0001710:	3a 25 78 20 45 	cmpb   0x41452078,%ah
c0001715:	41 
c0001716:	58             	popl   %eax
c0001717:	3a 25 78 0a 00 	cmpb   0x9000a78,%ah
c000171c:	09 
c000171d:	45             	incl   %ebp
c000171e:	46             	incl   %esi
c000171f:	4c             	decl   %esp
c0001720:	41             	incl   %ecx
c0001721:	47             	incl   %edi
c0001722:	53             	pushl  %ebx
c0001723:	3a 25 78 20 20 	cmpb   0x53202078,%ah
c0001728:	53 
c0001729:	53             	pushl  %ebx
c000172a:	30 3a          	xorb   %bh,(%edx)
c000172c:	25 78 20 45 53 	andl   $0x53452078,%eax
c0001731:	50             	pushl  %eax
c0001732:	30 3a          	xorb   %bh,(%edx)
c0001734:	25 78 0a 00 56 	andl   $0x56000a78,%eax

c0001738 <_interrupt_dispatcher>:
c0001738:	56             	pushl  %esi
c0001739:	53             	pushl  %ebx
c000173a:	83 ec 04       	subl   $0x4,%esp
c000173d:	8b 5c 24 10    	movl   0x10(%esp,1),%ebx
c0001741:	8b 43 30       	movl   0x30(%ebx),%eax
c0001744:	8b 14 85 40 98 	movl   0xc0009840(,%eax,4),%edx
c0001749:	00 c0 
c000174b:	85 d2          	testl  %edx,%edx
c000174d:	74 10          	je     c000175f <_interrupt_dispatcher+0x27>
c000174f:	83 ec 0c       	subl   $0xc,%esp
c0001752:	53             	pushl  %ebx
c0001753:	ff d2          	call   *%edx
c0001755:	89 c6          	movl   %eax,%esi
c0001757:	83 c4 10       	addl   $0x10,%esp
c000175a:	e9 a2 00 00 00 	jmp    c0001801 <_interrupt_dispatcher+0xc9>
c000175f:	be 00 00 00 00 	movl   $0x0,%esi
c0001764:	83 f8 1f       	cmpl   $0x1f,%eax
c0001767:	0f 87 94 00 00 	ja     c0001801 <_interrupt_dispatcher+0xc9>
c000176c:	00 
c000176d:	83 ec 08       	subl   $0x8,%esp
c0001770:	ff 34 85 c0 60 	pushl  0xc00060c0(,%eax,4)
c0001775:	00 c0 
c0001777:	68 b2 16 00 c0 	pushl  $0xc00016b2
c000177c:	e8 09 fc ff ff 	call   c000138a <_kernel_printf>
c0001781:	83 c4 0c       	addl   $0xc,%esp
c0001784:	ff 73 38       	pushl  0x38(%ebx)
c0001787:	ff 73 3c       	pushl  0x3c(%ebx)
c000178a:	68 b7 16 00 c0 	pushl  $0xc00016b7
c000178f:	e8 f6 fb ff ff 	call   c000138a <_kernel_printf>
c0001794:	83 c4 04       	addl   $0x4,%esp
c0001797:	ff 73 0c       	pushl  0xc(%ebx)
c000179a:	ff 73 08       	pushl  0x8(%ebx)
c000179d:	ff 73 04       	pushl  0x4(%ebx)
c00017a0:	ff 33          	pushl  (%ebx)
c00017a2:	68 c6 16 00 c0 	pushl  $0xc00016c6
c00017a7:	e8 de fb ff ff 	call   c000138a <_kernel_printf>
c00017ac:	83 c4 14       	addl   $0x14,%esp
c00017af:	ff 73 1c       	pushl  0x1c(%ebx)
c00017b2:	ff 73 18       	pushl  0x18(%ebx)
c00017b5:	ff 73 14       	pushl  0x14(%ebx)
c00017b8:	ff 73 10       	pushl  0x10(%ebx)
c00017bb:	68 e0 16 00 c0 	pushl  $0xc00016e0
c00017c0:	e8 c5 fb ff ff 	call   c000138a <_kernel_printf>
c00017c5:	83 c4 14       	addl   $0x14,%esp
c00017c8:	ff 73 2c       	pushl  0x2c(%ebx)
c00017cb:	ff 73 28       	pushl  0x28(%ebx)
c00017ce:	ff 73 24       	pushl  0x24(%ebx)
c00017d1:	ff 73 20       	pushl  0x20(%ebx)
c00017d4:	68 fe 16 00 c0 	pushl  $0xc00016fe
c00017d9:	e8 ac fb ff ff 	call   c000138a <_kernel_printf>
c00017de:	83 c4 20       	addl   $0x20,%esp
c00017e1:	ff 73 44       	pushl  0x44(%ebx)
c00017e4:	ff 73 48       	pushl  0x48(%ebx)
c00017e7:	ff 73 40       	pushl  0x40(%ebx)
c00017ea:	68 1c 17 00 c0 	pushl  $0xc000171c
c00017ef:	e8 96 fb ff ff 	call   c000138a <_kernel_printf>
c00017f4:	e8 c0 fb ff ff 	call   c00013b9 <_kernel_panic>
c00017f9:	be 00 00 00 00 	movl   $0x0,%esi
c00017fe:	83 c4 10       	addl   $0x10,%esp
c0001801:	8b 53 30       	movl   0x30(%ebx),%edx
c0001804:	8d 42 d8       	leal   0xffffffd8(%edx),%eax
c0001807:	83 f8 07       	cmpl   $0x7,%eax
c000180a:	77 14          	ja     c0001820 <_interrupt_dispatcher+0xe8>
c000180c:	83 ec 08       	subl   $0x8,%esp
c000180f:	6a 20          	pushl  $0x20
c0001811:	68 a0 00 00 00 	pushl  $0xa0
c0001816:	e8 a4 fa ff ff 	call   c00012bf <_outportb>
c000181b:	83 c4 10       	addl   $0x10,%esp
c000181e:	eb 17          	jmp    c0001837 <_interrupt_dispatcher+0xff>
c0001820:	8d 42 e0       	leal   0xffffffe0(%edx),%eax
c0001823:	83 f8 0f       	cmpl   $0xf,%eax
c0001826:	77 0f          	ja     c0001837 <_interrupt_dispatcher+0xff>
c0001828:	83 ec 08       	subl   $0x8,%esp
c000182b:	6a 20          	pushl  $0x20
c000182d:	6a 20          	pushl  $0x20
c000182f:	e8 8b fa ff ff 	call   c00012bf <_outportb>
c0001834:	83 c4 10       	addl   $0x10,%esp
c0001837:	89 f0          	movl   %esi,%eax
c0001839:	83 c4 04       	addl   $0x4,%esp
c000183c:	5b             	popl   %ebx
c000183d:	5e             	popl   %esi
c000183e:	c3             	ret    

c000183f <_interrupt_setHandler>:
c000183f:	8b 54 24 04    	movl   0x4(%esp,1),%edx
c0001843:	b8 00 00 00 00 	movl   $0x0,%eax
c0001848:	81 fa ff 00 00 	cmpl   $0xff,%edx
c000184d:	00 
c000184e:	77 10          	ja     c0001860 <_interrupt_setHandler+0x21>
c0001850:	8b 44 24 08    	movl   0x8(%esp,1),%eax
c0001854:	89 04 95 40 98 	movl   %eax,0xc0009840(,%edx,4)
c0001859:	00 c0 
c000185b:	b8 01 00 00 00 	movl   $0x1,%eax
c0001860:	c3             	ret    

c0001861 <_interrupt_setTableEntry>:
c0001861:	53             	pushl  %ebx
c0001862:	8b 5c 24 0c    	movl   0xc(%esp,1),%ebx
c0001866:	b9 00 00 00 00 	movl   $0x0,%ecx
c000186b:	8a 4c 24 08    	movb   0x8(%esp,1),%cl
c000186f:	ba 40 90 00 c0 	movl   $0xc0009040,%edx
c0001874:	89 d8          	movl   %ebx,%eax
c0001876:	c1 e8 10       	shrl   $0x10,%eax
c0001879:	66 89 44 ca 06 	movw   %ax,0x6(%edx,%ecx,8)
c000187e:	66 89 1c ca    	movw   %bx,(%edx,%ecx,8)
c0001882:	8a 44 24 14    	movb   0x14(%esp,1),%al
c0001886:	83 e0 03       	andl   $0x3,%eax
c0001889:	c1 e0 05       	shll   $0x5,%eax
c000188c:	83 c8 8e       	orl    $0xffffff8e,%eax
c000188f:	88 44 ca 05    	movb   %al,0x5(%edx,%ecx,8)
c0001893:	80 64 ca 04 e0 	andb   $0xe0,0x4(%edx,%ecx,8)
c0001898:	8b 44 24 10    	movl   0x10(%esp,1),%eax
c000189c:	66 89 44 ca 02 	movw   %ax,0x2(%edx,%ecx,8)
c00018a1:	5b             	popl   %ebx
c00018a2:	c3             	ret    

c00018a3 <_interrupt_remapPIC>:
c00018a3:	83 ec 14       	subl   $0x14,%esp
c00018a6:	6a 11          	pushl  $0x11
c00018a8:	6a 20          	pushl  $0x20
c00018aa:	e8 10 fa ff ff 	call   c00012bf <_outportb>
c00018af:	83 c4 08       	addl   $0x8,%esp
c00018b2:	6a 11          	pushl  $0x11
c00018b4:	68 a0 00 00 00 	pushl  $0xa0
c00018b9:	e8 01 fa ff ff 	call   c00012bf <_outportb>
c00018be:	83 c4 08       	addl   $0x8,%esp
c00018c1:	6a 20          	pushl  $0x20
c00018c3:	6a 21          	pushl  $0x21
c00018c5:	e8 f5 f9 ff ff 	call   c00012bf <_outportb>
c00018ca:	83 c4 08       	addl   $0x8,%esp
c00018cd:	6a 28          	pushl  $0x28
c00018cf:	68 a1 00 00 00 	pushl  $0xa1
c00018d4:	e8 e6 f9 ff ff 	call   c00012bf <_outportb>
c00018d9:	83 c4 08       	addl   $0x8,%esp
c00018dc:	6a 04          	pushl  $0x4
c00018de:	6a 21          	pushl  $0x21
c00018e0:	e8 da f9 ff ff 	call   c00012bf <_outportb>
c00018e5:	83 c4 08       	addl   $0x8,%esp
c00018e8:	6a 02          	pushl  $0x2
c00018ea:	68 a1 00 00 00 	pushl  $0xa1
c00018ef:	e8 cb f9 ff ff 	call   c00012bf <_outportb>
c00018f4:	83 c4 08       	addl   $0x8,%esp
c00018f7:	6a 01          	pushl  $0x1
c00018f9:	6a 21          	pushl  $0x21
c00018fb:	e8 bf f9 ff ff 	call   c00012bf <_outportb>
c0001900:	83 c4 08       	addl   $0x8,%esp
c0001903:	6a 01          	pushl  $0x1
c0001905:	68 a1 00 00 00 	pushl  $0xa1
c000190a:	e8 b0 f9 ff ff 	call   c00012bf <_outportb>
c000190f:	83 c4 08       	addl   $0x8,%esp
c0001912:	6a 00          	pushl  $0x0
c0001914:	6a 21          	pushl  $0x21
c0001916:	e8 a4 f9 ff ff 	call   c00012bf <_outportb>
c000191b:	83 c4 08       	addl   $0x8,%esp
c000191e:	6a 00          	pushl  $0x0
c0001920:	68 a1 00 00 00 	pushl  $0xa1
c0001925:	e8 95 f9 ff ff 	call   c00012bf <_outportb>
c000192a:	83 c4 1c       	addl   $0x1c,%esp
c000192d:	c3             	ret    

c000192e <_interrupt_enable>:
c000192e:	56             	pushl  %esi
c000192f:	53             	pushl  %ebx
c0001930:	8b 5c 24 0c    	movl   0xc(%esp,1),%ebx
c0001934:	8b 74 24 10    	movl   0x10(%esp,1),%esi
c0001938:	b8 00 00 00 00 	movl   $0x0,%eax
c000193d:	81 fb ff 00 00 	cmpl   $0xff,%ebx
c0001942:	00 
c0001943:	77 2e          	ja     c0001973 <_interrupt_enable+0x45>
c0001945:	6a 00          	pushl  $0x0
c0001947:	6a 08          	pushl  $0x8
c0001949:	ff 34 9d 00 60 	pushl  0xc0006000(,%ebx,4)
c000194e:	00 c0 
c0001950:	b8 00 00 00 00 	movl   $0x0,%eax
c0001955:	88 d8          	movb   %bl,%al
c0001957:	50             	pushl  %eax
c0001958:	e8 04 ff ff ff 	call   c0001861 <_interrupt_setTableEntry>
c000195d:	83 c4 10       	addl   $0x10,%esp
c0001960:	b8 01 00 00 00 	movl   $0x1,%eax
c0001965:	85 f6          	testl  %esi,%esi
c0001967:	74 0a          	je     c0001973 <_interrupt_enable+0x45>
c0001969:	56             	pushl  %esi
c000196a:	53             	pushl  %ebx
c000196b:	e8 cf fe ff ff 	call   c000183f <_interrupt_setHandler>
c0001970:	83 c4 08       	addl   $0x8,%esp
c0001973:	5b             	popl   %ebx
c0001974:	5e             	popl   %esi
c0001975:	c3             	ret    

c0001976 <_interrupt_disable>:
c0001976:	8b 54 24 04    	movl   0x4(%esp,1),%edx
c000197a:	b8 00 00 00 00 	movl   $0x0,%eax
c000197f:	81 fa ff 00 00 	cmpl   $0xff,%edx
c0001984:	00 
c0001985:	77 39          	ja     c00019c0 <_interrupt_disable+0x4a>
c0001987:	8d 42 e0       	leal   0xffffffe0(%edx),%eax
c000198a:	b9 53 10 00 c0 	movl   $0xc0001053,%ecx
c000198f:	83 f8 07       	cmpl   $0x7,%eax
c0001992:	76 12          	jbe    c00019a6 <_interrupt_disable+0x30>
c0001994:	8d 42 d8       	leal   0xffffffd8(%edx),%eax
c0001997:	b9 58 10 00 c0 	movl   $0xc0001058,%ecx
c000199c:	83 f8 07       	cmpl   $0x7,%eax
c000199f:	76 05          	jbe    c00019a6 <_interrupt_disable+0x30>
c00019a1:	b9 52 10 00 c0 	movl   $0xc0001052,%ecx
c00019a6:	6a 00          	pushl  $0x0
c00019a8:	6a 08          	pushl  $0x8
c00019aa:	51             	pushl  %ecx
c00019ab:	b8 00 00 00 00 	movl   $0x0,%eax
c00019b0:	88 d0          	movb   %dl,%al
c00019b2:	50             	pushl  %eax
c00019b3:	e8 a9 fe ff ff 	call   c0001861 <_interrupt_setTableEntry>
c00019b8:	b8 01 00 00 00 	movl   $0x1,%eax
c00019bd:	83 c4 10       	addl   $0x10,%esp
c00019c0:	c3             	ret    

c00019c1 <_interrupt_init>:
c00019c1:	53             	pushl  %ebx
c00019c2:	83 ec 0c       	subl   $0xc,%esp
c00019c5:	66 c7 05 40 9c 	movw   $0x7ff,0xc0009c40
c00019ca:	00 c0 ff 07 
c00019ce:	c7 05 42 9c 00 	movl   $0xc0009040,0xc0009c42
c00019d3:	c0 40 90 00 c0 
c00019d8:	68 00 08 00 00 	pushl  $0x800
c00019dd:	6a 00          	pushl  $0x0
c00019df:	68 40 90 00 c0 	pushl  $0xc0009040
c00019e4:	e8 26 45 00 00 	call   c0005f0f <_memset>
c00019e9:	e8 b5 fe ff ff 	call   c00018a3 <_interrupt_remapPIC>
c00019ee:	b8 40 98 00 c0 	movl   $0xc0009840,%eax
c00019f3:	83 c4 10       	addl   $0x10,%esp
c00019f6:	ba 40 9c 00 c0 	movl   $0xc0009c40,%edx
c00019fb:	c7 00 00 00 00 	movl   $0x0,(%eax)
c0001a00:	00 
c0001a01:	83 c0 04       	addl   $0x4,%eax
c0001a04:	39 c2          	cmpl   %eax,%edx
c0001a06:	75 f3          	jne    c00019fb <_interrupt_init+0x3a>
c0001a08:	bb 00 00 00 00 	movl   $0x0,%ebx
c0001a0d:	6a 00          	pushl  $0x0
c0001a0f:	53             	pushl  %ebx
c0001a10:	e8 19 ff ff ff 	call   c000192e <_interrupt_enable>
c0001a15:	43             	incl   %ebx
c0001a16:	83 c4 08       	addl   $0x8,%esp
c0001a19:	83 fb 20       	cmpl   $0x20,%ebx
c0001a1c:	75 ef          	jne    c0001a0d <_interrupt_init+0x4c>
c0001a1e:	53             	pushl  %ebx
c0001a1f:	e8 52 ff ff ff 	call   c0001976 <_interrupt_disable>
c0001a24:	43             	incl   %ebx
c0001a25:	83 c4 04       	addl   $0x4,%esp
c0001a28:	83 fb 30       	cmpl   $0x30,%ebx
c0001a2b:	75 f1          	jne    c0001a1e <_interrupt_init+0x5d>
c0001a2d:	b8 40 9c 00 c0 	movl   $0xc0009c40,%eax
c0001a32:	0f 01 18       	lidt   (%eax)
c0001a35:	83 c4 08       	addl   $0x8,%esp
c0001a38:	5b             	popl   %ebx
c0001a39:	c3             	ret    
c0001a3a:	90             	nop    
c0001a3b:	90             	nop    
c0001a3c:	90             	nop    
c0001a3d:	90             	nop    
c0001a3e:	90             	nop    
c0001a3f:	90             	nop    
c0001a40:	90             	nop    
c0001a41:	90             	nop    
c0001a42:	90             	nop    
c0001a43:	90             	nop    
c0001a44:	90             	nop    
c0001a45:	90             	nop    
c0001a46:	90             	nop    
c0001a47:	90             	nop    

c0001a48 <_syscall_handler>:
c0001a48:	53             	pushl  %ebx
c0001a49:	83 ec 08       	subl   $0x8,%esp
c0001a4c:	8b 5c 24 10    	movl   0x10(%esp,1),%ebx
c0001a50:	8b 43 2c       	movl   0x2c(%ebx),%eax
c0001a53:	c7 43 2c ff ff 	movl   $0xffffffff,0x2c(%ebx)
c0001a58:	ff ff 
c0001a5a:	83 f8 12       	cmpl   $0x12,%eax
c0001a5d:	77 1a          	ja     c0001a79 <_syscall_handler+0x31>
c0001a5f:	8b 14 c5 50 9c 	movl   0xc0009c50(,%eax,8),%edx
c0001a64:	00 c0 
c0001a66:	85 d2          	testl  %edx,%edx
c0001a68:	74 0f          	je     c0001a79 <_syscall_handler+0x31>
c0001a6a:	83 3c c5 54 9c 	cmpl   $0x0,0xc0009c54(,%eax,8)
c0001a6f:	00 c0 00 
c0001a72:	75 05          	jne    c0001a79 <_syscall_handler+0x31>
c0001a74:	ff d2          	call   *%edx
c0001a76:	89 43 2c       	movl   %eax,0x2c(%ebx)
c0001a79:	b8 00 00 00 00 	movl   $0x0,%eax
c0001a7e:	83 c4 08       	addl   $0x8,%esp
c0001a81:	5b             	popl   %ebx
c0001a82:	c3             	ret    

c0001a83 <_syscall_add>:
c0001a83:	8b 54 24 04    	movl   0x4(%esp,1),%edx
c0001a87:	b8 00 00 00 00 	movl   $0x0,%eax
c0001a8c:	83 fa 12       	cmpl   $0x12,%edx
c0001a8f:	77 1b          	ja     c0001aac <_syscall_add+0x29>
c0001a91:	8b 44 24 08    	movl   0x8(%esp,1),%eax
c0001a95:	89 04 d5 50 9c 	movl   %eax,0xc0009c50(,%edx,8)
c0001a9a:	00 c0 
c0001a9c:	8b 44 24 0c    	movl   0xc(%esp,1),%eax
c0001aa0:	89 04 d5 54 9c 	movl   %eax,0xc0009c54(,%edx,8)
c0001aa5:	00 c0 
c0001aa7:	b8 01 00 00 00 	movl   $0x1,%eax
c0001aac:	c3             	ret    

c0001aad <_syscall_init>:
c0001aad:	83 ec 0c       	subl   $0xc,%esp
c0001ab0:	b8 50 9c 00 c0 	movl   $0xc0009c50,%eax
c0001ab5:	c7 00 00 00 00 	movl   $0x0,(%eax)
c0001aba:	00 
c0001abb:	c7 40 04 00 00 	movl   $0x0,0x4(%eax)
c0001ac0:	00 00 
c0001ac2:	83 c0 08       	addl   $0x8,%eax
c0001ac5:	3d e8 9c 00 c0 	cmpl   $0xc0009ce8,%eax
c0001aca:	75 e9          	jne    c0001ab5 <_syscall_init+0x8>
c0001acc:	6a 02          	pushl  $0x2
c0001ace:	68 69 55 00 c0 	pushl  $0xc0005569
c0001ad3:	6a 00          	pushl  $0x0
c0001ad5:	e8 a9 ff ff ff 	call   c0001a83 <_syscall_add>
c0001ada:	6a 01          	pushl  $0x1
c0001adc:	68 4d 56 00 c0 	pushl  $0xc000564d
c0001ae1:	6a 01          	pushl  $0x1
c0001ae3:	e8 9b ff ff ff 	call   c0001a83 <_syscall_add>
c0001ae8:	6a 03          	pushl  $0x3
c0001aea:	68 81 56 00 c0 	pushl  $0xc0005681
c0001aef:	6a 02          	pushl  $0x2
c0001af1:	e8 8d ff ff ff 	call   c0001a83 <_syscall_add>
c0001af6:	83 c4 24       	addl   $0x24,%esp
c0001af9:	6a 03          	pushl  $0x3
c0001afb:	68 b5 56 00 c0 	pushl  $0xc00056b5
c0001b00:	6a 03          	pushl  $0x3
c0001b02:	e8 7c ff ff ff 	call   c0001a83 <_syscall_add>
c0001b07:	6a 03          	pushl  $0x3
c0001b09:	68 11 57 00 c0 	pushl  $0xc0005711
c0001b0e:	6a 04          	pushl  $0x4
c0001b10:	e8 6e ff ff ff 	call   c0001a83 <_syscall_add>
c0001b15:	6a 03          	pushl  $0x3
c0001b17:	68 11 57 00 c0 	pushl  $0xc0005711
c0001b1c:	6a 05          	pushl  $0x5
c0001b1e:	e8 60 ff ff ff 	call   c0001a83 <_syscall_add>
c0001b23:	83 c4 24       	addl   $0x24,%esp
c0001b26:	6a 03          	pushl  $0x3
c0001b28:	68 96 53 00 c0 	pushl  $0xc0005396
c0001b2d:	6a 06          	pushl  $0x6
c0001b2f:	e8 4f ff ff ff 	call   c0001a83 <_syscall_add>
c0001b34:	6a 01          	pushl  $0x1
c0001b36:	68 58 54 00 c0 	pushl  $0xc0005458
c0001b3b:	6a 07          	pushl  $0x7
c0001b3d:	e8 41 ff ff ff 	call   c0001a83 <_syscall_add>
c0001b42:	6a 01          	pushl  $0x1
c0001b44:	68 73 57 00 c0 	pushl  $0xc0005773
c0001b49:	6a 08          	pushl  $0x8
c0001b4b:	e8 33 ff ff ff 	call   c0001a83 <_syscall_add>
c0001b50:	83 c4 24       	addl   $0x24,%esp
c0001b53:	6a 01          	pushl  $0x1
c0001b55:	68 d0 57 00 c0 	pushl  $0xc00057d0
c0001b5a:	6a 09          	pushl  $0x9
c0001b5c:	e8 22 ff ff ff 	call   c0001a83 <_syscall_add>
c0001b61:	6a 02          	pushl  $0x2
c0001b63:	68 2d 58 00 c0 	pushl  $0xc000582d
c0001b68:	6a 0a          	pushl  $0xa
c0001b6a:	e8 14 ff ff ff 	call   c0001a83 <_syscall_add>
c0001b6f:	6a 02          	pushl  $0x2
c0001b71:	68 b1 58 00 c0 	pushl  $0xc00058b1
c0001b76:	6a 0b          	pushl  $0xb
c0001b78:	e8 06 ff ff ff 	call   c0001a83 <_syscall_add>
c0001b7d:	83 c4 24       	addl   $0x24,%esp
c0001b80:	6a 01          	pushl  $0x1
c0001b82:	68 35 59 00 c0 	pushl  $0xc0005935
c0001b87:	6a 0c          	pushl  $0xc
c0001b89:	e8 f5 fe ff ff 	call   c0001a83 <_syscall_add>
c0001b8e:	6a 02          	pushl  $0x2
c0001b90:	68 60 1d 00 c0 	pushl  $0xc0001d60
c0001b95:	6a 12          	pushl  $0x12
c0001b97:	e8 e7 fe ff ff 	call   c0001a83 <_syscall_add>
c0001b9c:	68 48 1a 00 c0 	pushl  $0xc0001a48
c0001ba1:	68 ff 00 00 00 	pushl  $0xff
c0001ba6:	e8 83 fd ff ff 	call   c000192e <_interrupt_enable>
c0001bab:	83 c4 2c       	addl   $0x2c,%esp
c0001bae:	c3             	ret    
c0001baf:	90             	nop    
c0001bb0:	90             	nop    
c0001bb1:	90             	nop    
c0001bb2:	90             	nop    
c0001bb3:	90             	nop    
c0001bb4:	90             	nop    
c0001bb5:	90             	nop    
c0001bb6:	90             	nop    
c0001bb7:	90             	nop    

c0001bb8 <_dma_transfer>:
c0001bb8:	56             	pushl  %esi
c0001bb9:	53             	pushl  %ebx
c0001bba:	83 ec 0c       	subl   $0xc,%esp
c0001bbd:	8a 44 24 18    	movb   0x18(%esp,1),%al
c0001bc1:	8b 74 24 20    	movl   0x20(%esp,1),%esi
c0001bc5:	4e             	decl   %esi
c0001bc6:	fa             	cli    
c0001bc7:	bb 00 00 00 00 	movl   $0x0,%ebx
c0001bcc:	88 c3          	movb   %al,%bl
c0001bce:	83 c8 04       	orl    $0x4,%eax
c0001bd1:	25 ff 00 00 00 	andl   $0xff,%eax
c0001bd6:	50             	pushl  %eax
c0001bd7:	b8 00 00 00 00 	movl   $0x0,%eax
c0001bdc:	8a 83 40 61 00 	movb   0xc0006140(%ebx),%al
c0001be1:	c0 
c0001be2:	50             	pushl  %eax
c0001be3:	e8 d7 f6 ff ff 	call   c00012bf <_outportb>
c0001be8:	83 c4 08       	addl   $0x8,%esp
c0001beb:	6a 00          	pushl  $0x0
c0001bed:	b8 00 00 00 00 	movl   $0x0,%eax
c0001bf2:	8a 83 50 61 00 	movb   0xc0006150(%ebx),%al
c0001bf7:	c0 
c0001bf8:	50             	pushl  %eax
c0001bf9:	e8 c1 f6 ff ff 	call   c00012bf <_outportb>
c0001bfe:	83 c4 08       	addl   $0x8,%esp
c0001c01:	b8 00 00 00 00 	movl   $0x0,%eax
c0001c06:	8a 44 24 24    	movb   0x24(%esp,1),%al
c0001c0a:	50             	pushl  %eax
c0001c0b:	b8 00 00 00 00 	movl   $0x0,%eax
c0001c10:	8a 83 48 61 00 	movb   0xc0006148(%ebx),%al
c0001c15:	c0 
c0001c16:	50             	pushl  %eax
c0001c17:	e8 a3 f6 ff ff 	call   c00012bf <_outportb>
c0001c1c:	83 c4 08       	addl   $0x8,%esp
c0001c1f:	b8 00 00 00 00 	movl   $0x0,%eax
c0001c24:	8a 44 24 1c    	movb   0x1c(%esp,1),%al
c0001c28:	50             	pushl  %eax
c0001c29:	b8 00 00 00 00 	movl   $0x0,%eax
c0001c2e:	8a 83 60 61 00 	movb   0xc0006160(%ebx),%al
c0001c33:	c0 
c0001c34:	50             	pushl  %eax
c0001c35:	e8 85 f6 ff ff 	call   c00012bf <_outportb>
c0001c3a:	83 c4 08       	addl   $0x8,%esp
c0001c3d:	8b 54 24 1c    	movl   0x1c(%esp,1),%edx
c0001c41:	0f b6 c6       	movzbl %dh,%eax
c0001c44:	50             	pushl  %eax
c0001c45:	b8 00 00 00 00 	movl   $0x0,%eax
c0001c4a:	8a 83 60 61 00 	movb   0xc0006160(%ebx),%al
c0001c4f:	c0 
c0001c50:	50             	pushl  %eax
c0001c51:	e8 69 f6 ff ff 	call   c00012bf <_outportb>
c0001c56:	83 c4 08       	addl   $0x8,%esp
c0001c59:	8b 44 24 1c    	movl   0x1c(%esp,1),%eax
c0001c5d:	c1 e8 10       	shrl   $0x10,%eax
c0001c60:	25 ff 00 00 00 	andl   $0xff,%eax
c0001c65:	50             	pushl  %eax
c0001c66:	b8 00 00 00 00 	movl   $0x0,%eax
c0001c6b:	8a 83 58 61 00 	movb   0xc0006158(%ebx),%al
c0001c70:	c0 
c0001c71:	50             	pushl  %eax
c0001c72:	e8 48 f6 ff ff 	call   c00012bf <_outportb>
c0001c77:	83 c4 08       	addl   $0x8,%esp
c0001c7a:	89 f0          	movl   %esi,%eax
c0001c7c:	25 ff 00 00 00 	andl   $0xff,%eax
c0001c81:	50             	pushl  %eax
c0001c82:	b8 00 00 00 00 	movl   $0x0,%eax
c0001c87:	8a 83 68 61 00 	movb   0xc0006168(%ebx),%al
c0001c8c:	c0 
c0001c8d:	50             	pushl  %eax
c0001c8e:	e8 2c f6 ff ff 	call   c00012bf <_outportb>
c0001c93:	83 c4 08       	addl   $0x8,%esp
c0001c96:	89 f0          	movl   %esi,%eax
c0001c98:	0f b6 f4       	movzbl %ah,%esi
c0001c9b:	56             	pushl  %esi
c0001c9c:	b8 00 00 00 00 	movl   $0x0,%eax
c0001ca1:	8a 83 68 61 00 	movb   0xc0006168(%ebx),%al
c0001ca6:	c0 
c0001ca7:	50             	pushl  %eax
c0001ca8:	e8 12 f6 ff ff 	call   c00012bf <_outportb>
c0001cad:	83 c4 08       	addl   $0x8,%esp
c0001cb0:	53             	pushl  %ebx
c0001cb1:	b8 00 00 00 00 	movl   $0x0,%eax
c0001cb6:	8a 83 40 61 00 	movb   0xc0006140(%ebx),%al
c0001cbb:	c0 
c0001cbc:	50             	pushl  %eax
c0001cbd:	e8 fd f5 ff ff 	call   c00012bf <_outportb>
c0001cc2:	fb             	sti    
c0001cc3:	83 c4 14       	addl   $0x14,%esp
c0001cc6:	5b             	popl   %ebx
c0001cc7:	5e             	popl   %esi
c0001cc8:	c3             	ret    

c0001cc9 <_dma_read>:
c0001cc9:	83 ec 0e       	subl   $0xe,%esp
c0001ccc:	8a 54 24 12    	movb   0x12(%esp,1),%dl
c0001cd0:	88 d0          	movb   %dl,%al
c0001cd2:	83 e0 03       	andl   $0x3,%eax
c0001cd5:	83 c8 48       	orl    $0x48,%eax
c0001cd8:	66 50          	pushw  %ax
c0001cda:	ff 74 24 1c    	pushl  0x1c(%esp,1)
c0001cde:	ff 74 24 1c    	pushl  0x1c(%esp,1)
c0001ce2:	81 e2 ff 00 00 	andl   $0xff,%edx
c0001ce7:	00 
c0001ce8:	52             	pushl  %edx
c0001ce9:	e8 ca fe ff ff 	call   c0001bb8 <_dma_transfer>
c0001cee:	83 c4 1c       	addl   $0x1c,%esp
c0001cf1:	c3             	ret    

c0001cf2 <_dma_write>:
c0001cf2:	83 ec 0e       	subl   $0xe,%esp
c0001cf5:	8a 54 24 12    	movb   0x12(%esp,1),%dl
c0001cf9:	88 d0          	movb   %dl,%al
c0001cfb:	83 e0 03       	andl   $0x3,%eax
c0001cfe:	83 c8 44       	orl    $0x44,%eax
c0001d01:	66 50          	pushw  %ax
c0001d03:	ff 74 24 1c    	pushl  0x1c(%esp,1)
c0001d07:	ff 74 24 1c    	pushl  0x1c(%esp,1)
c0001d0b:	81 e2 ff 00 00 	andl   $0xff,%edx
c0001d10:	00 
c0001d11:	52             	pushl  %edx
c0001d12:	e8 a1 fe ff ff 	call   c0001bb8 <_dma_transfer>
c0001d17:	83 c4 1c       	addl   $0x1c,%esp
c0001d1a:	c3             	ret    
c0001d1b:	90             	nop    
c0001d1c:	90             	nop    
c0001d1d:	90             	nop    
c0001d1e:	90             	nop    
c0001d1f:	90             	nop    
c0001d20:	90             	nop    
c0001d21:	90             	nop    
c0001d22:	90             	nop    
c0001d23:	90             	nop    
c0001d24:	90             	nop    
c0001d25:	90             	nop    
c0001d26:	90             	nop    
c0001d27:	90             	nop    

c0001d28 <_mm_init>:
c0001d28:	83 ec 18       	subl   $0x18,%esp
c0001d2b:	ff 74 24 1c    	pushl  0x1c(%esp,1)
c0001d2f:	e8 5a 07 00 00 	call   c000248e <_physical_init>
c0001d34:	e8 66 08 00 00 	call   c000259f <_segmentation_init>
c0001d39:	e8 a0 05 00 00 	call   c00022de <_paging_init>
c0001d3e:	c7 05 24 90 00 	movl   $0xd0000000,0xc0009024
c0001d43:	c0 00 00 00 d0 
c0001d48:	c7 05 28 90 00 	movl   $0x0,0xc0009028
c0001d4d:	c0 00 00 00 00 
c0001d52:	c7 05 2c 90 00 	movl   $0x0,0xc000902c
c0001d57:	c0 00 00 00 00 
c0001d5c:	83 c4 1c       	addl   $0x1c,%esp
c0001d5f:	c3             	ret    

c0001d60 <_mm_morecore>:
c0001d60:	57             	pushl  %edi
c0001d61:	56             	pushl  %esi
c0001d62:	53             	pushl  %ebx
c0001d63:	8b 5c 24 10    	movl   0x10(%esp,1),%ebx
c0001d67:	8b 44 24 14    	movl   0x14(%esp,1),%eax
c0001d6b:	c1 e8 0c       	shrl   $0xc,%eax
c0001d6e:	8d 50 01       	leal   0x1(%eax),%edx
c0001d71:	83 7b 28 00    	cmpl   $0x0,0x28(%ebx)
c0001d75:	75 09          	jne    c0001d80 <_mm_morecore+0x20>
c0001d77:	8b 43 24       	movl   0x24(%ebx),%eax
c0001d7a:	89 43 28       	movl   %eax,0x28(%ebx)
c0001d7d:	89 43 2c       	movl   %eax,0x2c(%ebx)
c0001d80:	8b 7b 28       	movl   0x28(%ebx),%edi
c0001d83:	8d 72 ff       	leal   0xffffffff(%edx),%esi
c0001d86:	85 d2          	testl  %edx,%edx
c0001d88:	7e 42          	jle    c0001dcc <_mm_morecore+0x6c>
c0001d8a:	e8 5f 06 00 00 	call   c00023ee <_physical_pageAlloc>
c0001d8f:	85 c0          	testl  %eax,%eax
c0001d91:	75 07          	jne    c0001d9a <_mm_morecore+0x3a>
c0001d93:	bf 00 00 00 00 	movl   $0x0,%edi
c0001d98:	eb 32          	jmp    c0001dcc <_mm_morecore+0x6c>
c0001d9a:	6a 01          	pushl  $0x1
c0001d9c:	50             	pushl  %eax
c0001d9d:	ff 73 28       	pushl  0x28(%ebx)
c0001da0:	ff 73 1c       	pushl  0x1c(%ebx)
c0001da3:	e8 de 02 00 00 	call   c0002086 <_paging_setPageTableEntry>
c0001da8:	83 c4 0c       	addl   $0xc,%esp
c0001dab:	68 00 10 00 00 	pushl  $0x1000
c0001db0:	6a 00          	pushl  $0x0
c0001db2:	ff 73 28       	pushl  0x28(%ebx)
c0001db5:	e8 55 41 00 00 	call   c0005f0f <_memset>
c0001dba:	81 43 28 00 10 	addl   $0x1000,0x28(%ebx)
c0001dbf:	00 00 
c0001dc1:	4e             	decl   %esi
c0001dc2:	8d 46 01       	leal   0x1(%esi),%eax
c0001dc5:	83 c4 10       	addl   $0x10,%esp
c0001dc8:	85 c0          	testl  %eax,%eax
c0001dca:	7f be          	jg     c0001d8a <_mm_morecore+0x2a>
c0001dcc:	89 f8          	movl   %edi,%eax
c0001dce:	5b             	popl   %ebx
c0001dcf:	5e             	popl   %esi
c0001dd0:	5f             	popl   %edi
c0001dd1:	c3             	ret    

c0001dd2 <_mm_free>:
c0001dd2:	83 ec 0c       	subl   $0xc,%esp
c0001dd5:	e8 ef f4 ff ff 	call   c00012c9 <_kernel_lock>
c0001dda:	8b 54 24 10    	movl   0x10(%esp,1),%edx
c0001dde:	83 ea 0c       	subl   $0xc,%edx
c0001de1:	a1 2c 90 00 c0 	movl   0xc000902c,%eax
c0001de6:	85 c0          	testl  %eax,%eax
c0001de8:	75 5d          	jne    c0001e47 <_mm_free+0x75>
c0001dea:	eb 0a          	jmp    c0001df6 <_mm_free+0x24>
c0001dec:	39 c2          	cmpl   %eax,%edx
c0001dee:	74 0d          	je     c0001dfd <_mm_free+0x2b>
c0001df0:	8b 00          	movl   (%eax),%eax
c0001df2:	85 c0          	testl  %eax,%eax
c0001df4:	75 f6          	jne    c0001dec <_mm_free+0x1a>
c0001df6:	e8 db f4 ff ff 	call   c00012d6 <_kernel_unlock>
c0001dfb:	eb 5e          	jmp    c0001e5b <_mm_free+0x89>
c0001dfd:	c7 40 08 00 00 	movl   $0x0,0x8(%eax)
c0001e02:	00 00 
c0001e04:	8b 0d 2c 90 00 	movl   0xc000902c,%ecx
c0001e09:	c0 
c0001e0a:	85 c9          	testl  %ecx,%ecx
c0001e0c:	75 2a          	jne    c0001e38 <_mm_free+0x66>
c0001e0e:	eb 30          	jmp    c0001e40 <_mm_free+0x6e>
c0001e10:	8b 41 04       	movl   0x4(%ecx),%eax
c0001e13:	03 42 04       	addl   0x4(%edx),%eax
c0001e16:	83 c0 0c       	addl   $0xc,%eax
c0001e19:	89 41 04       	movl   %eax,0x4(%ecx)
c0001e1c:	8b 01          	movl   (%ecx),%eax
c0001e1e:	8b 10          	movl   (%eax),%edx
c0001e20:	89 11          	movl   %edx,(%ecx)
c0001e22:	83 79 08 00    	cmpl   $0x0,0x8(%ecx)
c0001e26:	75 0a          	jne    c0001e32 <_mm_free+0x60>
c0001e28:	85 d2          	testl  %edx,%edx
c0001e2a:	74 06          	je     c0001e32 <_mm_free+0x60>
c0001e2c:	83 7a 08 00    	cmpl   $0x0,0x8(%edx)
c0001e30:	74 de          	je     c0001e10 <_mm_free+0x3e>
c0001e32:	8b 09          	movl   (%ecx),%ecx
c0001e34:	85 c9          	testl  %ecx,%ecx
c0001e36:	74 08          	je     c0001e40 <_mm_free+0x6e>
c0001e38:	83 79 08 00    	cmpl   $0x0,0x8(%ecx)
c0001e3c:	75 f4          	jne    c0001e32 <_mm_free+0x60>
c0001e3e:	eb 0d          	jmp    c0001e4d <_mm_free+0x7b>
c0001e40:	e8 91 f4 ff ff 	call   c00012d6 <_kernel_unlock>
c0001e45:	eb 14          	jmp    c0001e5b <_mm_free+0x89>
c0001e47:	39 c2          	cmpl   %eax,%edx
c0001e49:	75 a5          	jne    c0001df0 <_mm_free+0x1e>
c0001e4b:	eb b0          	jmp    c0001dfd <_mm_free+0x2b>
c0001e4d:	8b 11          	movl   (%ecx),%edx
c0001e4f:	85 d2          	testl  %edx,%edx
c0001e51:	74 df          	je     c0001e32 <_mm_free+0x60>
c0001e53:	83 7a 08 00    	cmpl   $0x0,0x8(%edx)
c0001e57:	74 b7          	je     c0001e10 <_mm_free+0x3e>
c0001e59:	eb d7          	jmp    c0001e32 <_mm_free+0x60>
c0001e5b:	83 c4 0c       	addl   $0xc,%esp
c0001e5e:	c3             	ret    

c0001e5f <_mm_malloc>:
c0001e5f:	57             	pushl  %edi
c0001e60:	56             	pushl  %esi
c0001e61:	53             	pushl  %ebx
c0001e62:	8b 7c 24 10    	movl   0x10(%esp,1),%edi
c0001e66:	e8 5e f4 ff ff 	call   c00012c9 <_kernel_lock>
c0001e6b:	85 ff          	testl  %edi,%edi
c0001e6d:	75 0f          	jne    c0001e7e <_mm_malloc+0x1f>
c0001e6f:	e8 62 f4 ff ff 	call   c00012d6 <_kernel_unlock>
c0001e74:	b8 00 00 00 00 	movl   $0x0,%eax
c0001e79:	e9 bf 00 00 00 	jmp    c0001f3d <_mm_malloc+0xde>
c0001e7e:	8d 47 07       	leal   0x7(%edi),%eax
c0001e81:	83 e0 f8       	andl   $0xfffffff8,%eax
c0001e84:	8d 70 0c       	leal   0xc(%eax),%esi
c0001e87:	8b 1d 2c 90 00 	movl   0xc000902c,%ebx
c0001e8c:	c0 
c0001e8d:	85 db          	testl  %ebx,%ebx
c0001e8f:	74 11          	je     c0001ea2 <_mm_malloc+0x43>
c0001e91:	83 7b 08 00    	cmpl   $0x0,0x8(%ebx)
c0001e95:	75 05          	jne    c0001e9c <_mm_malloc+0x3d>
c0001e97:	3b 73 04       	cmpl   0x4(%ebx),%esi
c0001e9a:	76 1f          	jbe    c0001ebb <_mm_malloc+0x5c>
c0001e9c:	8b 1b          	movl   (%ebx),%ebx
c0001e9e:	85 db          	testl  %ebx,%ebx
c0001ea0:	75 ef          	jne    c0001e91 <_mm_malloc+0x32>
c0001ea2:	83 ec 08       	subl   $0x8,%esp
c0001ea5:	56             	pushl  %esi
c0001ea6:	68 00 90 00 c0 	pushl  $0xc0009000
c0001eab:	e8 b0 fe ff ff 	call   c0001d60 <_mm_morecore>
c0001eb0:	89 c3          	movl   %eax,%ebx
c0001eb2:	83 c4 10       	addl   $0x10,%esp
c0001eb5:	85 c0          	testl  %eax,%eax
c0001eb7:	75 32          	jne    c0001eeb <_mm_malloc+0x8c>
c0001eb9:	eb 24          	jmp    c0001edf <_mm_malloc+0x80>
c0001ebb:	8d 04 1e       	leal   (%esi,%ebx,1),%eax
c0001ebe:	8b 53 04       	movl   0x4(%ebx),%edx
c0001ec1:	29 f2          	subl   %esi,%edx
c0001ec3:	89 50 04       	movl   %edx,0x4(%eax)
c0001ec6:	c7 40 08 00 00 	movl   $0x0,0x8(%eax)
c0001ecb:	00 00 
c0001ecd:	8b 13          	movl   (%ebx),%edx
c0001ecf:	89 10          	movl   %edx,(%eax)
c0001ed1:	89 7b 04       	movl   %edi,0x4(%ebx)
c0001ed4:	c7 43 08 01 00 	movl   $0x1,0x8(%ebx)
c0001ed9:	00 00 
c0001edb:	89 03          	movl   %eax,(%ebx)
c0001edd:	eb 56          	jmp    c0001f35 <_mm_malloc+0xd6>
c0001edf:	e8 f2 f3 ff ff 	call   c00012d6 <_kernel_unlock>
c0001ee4:	b8 00 00 00 00 	movl   $0x0,%eax
c0001ee9:	eb 52          	jmp    c0001f3d <_mm_malloc+0xde>
c0001eeb:	8d 0c 06       	leal   (%esi,%eax,1),%ecx
c0001eee:	f7 c6 ff 0f 00 	testl  $0xfff,%esi
c0001ef3:	00 
c0001ef4:	74 1c          	je     c0001f12 <_mm_malloc+0xb3>
c0001ef6:	89 f0          	movl   %esi,%eax
c0001ef8:	c1 f8 1f       	sarl   $0x1f,%eax
c0001efb:	c1 e8 14       	shrl   $0x14,%eax
c0001efe:	8d 14 06       	leal   (%esi,%eax,1),%edx
c0001f01:	81 e2 ff 0f 00 	andl   $0xfff,%edx
c0001f06:	00 
c0001f07:	29 c2          	subl   %eax,%edx
c0001f09:	b8 f4 0f 00 00 	movl   $0xff4,%eax
c0001f0e:	29 d0          	subl   %edx,%eax
c0001f10:	eb 07          	jmp    c0001f19 <_mm_malloc+0xba>
c0001f12:	b8 f4 0f 00 00 	movl   $0xff4,%eax
c0001f17:	29 f0          	subl   %esi,%eax
c0001f19:	89 41 04       	movl   %eax,0x4(%ecx)
c0001f1c:	c7 41 08 00 00 	movl   $0x0,0x8(%ecx)
c0001f21:	00 00 
c0001f23:	c7 01 00 00 00 	movl   $0x0,(%ecx)
c0001f28:	00 
c0001f29:	89 7b 04       	movl   %edi,0x4(%ebx)
c0001f2c:	c7 43 08 01 00 	movl   $0x1,0x8(%ebx)
c0001f31:	00 00 
c0001f33:	89 0b          	movl   %ecx,(%ebx)
c0001f35:	e8 9c f3 ff ff 	call   c00012d6 <_kernel_unlock>
c0001f3a:	8d 43 0c       	leal   0xc(%ebx),%eax
c0001f3d:	5b             	popl   %ebx
c0001f3e:	5e             	popl   %esi
c0001f3f:	5f             	popl   %edi
c0001f40:	c3             	ret    
c0001f41:	90             	nop    
c0001f42:	90             	nop    
c0001f43:	90             	nop    
c0001f44:	90             	nop    
c0001f45:	90             	nop    
c0001f46:	90             	nop    
c0001f47:	90             	nop    

c0001f48 <_paging_getCurrentPageDir>:
c0001f48:	0f 20 d8       	movl   %cr3,%eax
c0001f4b:	c3             	ret    

c0001f4c <_paging_setCurrentPageDir>:
c0001f4c:	8b 44 24 04    	movl   0x4(%esp,1),%eax
c0001f50:	0f 22 d8       	movl   %eax,%cr3
c0001f53:	c3             	ret    

c0001f54 <_paging_getPageDirectoryEntry>:
c0001f54:	8b 44 24 08    	movl   0x8(%esp,1),%eax
c0001f58:	c1 e8 16       	shrl   $0x16,%eax
c0001f5b:	c1 e0 02       	shll   $0x2,%eax
c0001f5e:	03 44 24 04    	addl   0x4(%esp,1),%eax
c0001f62:	c3             	ret    

c0001f63 <_paging_clearDirectory>:
c0001f63:	53             	pushl  %ebx
c0001f64:	83 ec 0c       	subl   $0xc,%esp
c0001f67:	8b 5c 24 14    	movl   0x14(%esp,1),%ebx
c0001f6b:	68 00 10 00 00 	pushl  $0x1000
c0001f70:	6a 00          	pushl  $0x0
c0001f72:	53             	pushl  %ebx
c0001f73:	e8 97 3f 00 00 	call   c0005f0f <_memset>
c0001f78:	b9 00 00 00 00 	movl   $0x0,%ecx
c0001f7d:	83 c4 10       	addl   $0x10,%esp
c0001f80:	8d 14 19       	leal   (%ecx,%ebx,1),%edx
c0001f83:	8a 02          	movb   (%edx),%al
c0001f85:	83 e0 fa       	andl   $0xfffffffa,%eax
c0001f88:	83 c8 02       	orl    $0x2,%eax
c0001f8b:	88 02          	movb   %al,(%edx)
c0001f8d:	83 c1 04       	addl   $0x4,%ecx
c0001f90:	81 f9 00 10 00 	cmpl   $0x1000,%ecx
c0001f95:	00 
c0001f96:	75 e8          	jne    c0001f80 <_paging_clearDirectory+0x1d>
c0001f98:	83 c4 08       	addl   $0x8,%esp
c0001f9b:	5b             	popl   %ebx
c0001f9c:	c3             	ret    

c0001f9d <_paging_setPageDirectoryEntry>:
c0001f9d:	56             	pushl  %esi
c0001f9e:	53             	pushl  %ebx
c0001f9f:	83 ec 04       	subl   $0x4,%esp
c0001fa2:	8b 74 24 18    	movl   0x18(%esp,1),%esi
c0001fa6:	ff 74 24 14    	pushl  0x14(%esp,1)
c0001faa:	ff 74 24 14    	pushl  0x14(%esp,1)
c0001fae:	e8 a1 ff ff ff 	call   c0001f54 <_paging_getPageDirectoryEntry>
c0001fb3:	83 c4 08       	addl   $0x8,%esp
c0001fb6:	89 c3          	movl   %eax,%ebx
c0001fb8:	83 7c 24 1c 00 	cmpl   $0x0,0x1c(%esp,1)
c0001fbd:	74 13          	je     c0001fd2 <_paging_setPageDirectoryEntry+0x35>
c0001fbf:	83 ec 04       	subl   $0x4,%esp
c0001fc2:	68 00 10 00 00 	pushl  $0x1000
c0001fc7:	6a 00          	pushl  $0x0
c0001fc9:	56             	pushl  %esi
c0001fca:	e8 40 3f 00 00 	call   c0005f0f <_memset>
c0001fcf:	83 c4 10       	addl   $0x10,%esp
c0001fd2:	c6 03 03       	movb   $0x3,(%ebx)
c0001fd5:	80 63 01 fe    	andb   $0xfe,0x1(%ebx)
c0001fd9:	89 f2          	movl   %esi,%edx
c0001fdb:	81 e2 00 f0 ff 	andl   $0xfffff000,%edx
c0001fe0:	ff 
c0001fe1:	8b 03          	movl   (%ebx),%eax
c0001fe3:	25 ff 01 00 00 	andl   $0x1ff,%eax
c0001fe8:	09 d0          	orl    %edx,%eax
c0001fea:	89 03          	movl   %eax,(%ebx)
c0001fec:	83 c4 04       	addl   $0x4,%esp
c0001fef:	5b             	popl   %ebx
c0001ff0:	5e             	popl   %esi
c0001ff1:	c3             	ret    

c0001ff2 <_paging_getPageTableEntry>:
c0001ff2:	55             	pushl  %ebp
c0001ff3:	57             	pushl  %edi
c0001ff4:	56             	pushl  %esi
c0001ff5:	53             	pushl  %ebx
c0001ff6:	83 ec 0c       	subl   $0xc,%esp
c0001ff9:	8b 7c 24 20    	movl   0x20(%esp,1),%edi
c0001ffd:	ff 74 24 24    	pushl  0x24(%esp,1)
c0002001:	57             	pushl  %edi
c0002002:	e8 4d ff ff ff 	call   c0001f54 <_paging_getPageDirectoryEntry>
c0002007:	83 c4 08       	addl   $0x8,%esp
c000200a:	8a 50 01       	movb   0x1(%eax),%dl
c000200d:	c0 ea 04       	shrb   $0x4,%dl
c0002010:	81 e2 ff 00 00 	andl   $0xff,%edx
c0002015:	00 
c0002016:	b9 00 00 00 00 	movl   $0x0,%ecx
c000201b:	8a 48 02       	movb   0x2(%eax),%cl
c000201e:	c1 e1 04       	shll   $0x4,%ecx
c0002021:	09 d1          	orl    %edx,%ecx
c0002023:	8a 40 03       	movb   0x3(%eax),%al
c0002026:	25 ff 00 00 00 	andl   $0xff,%eax
c000202b:	c1 e0 0c       	shll   $0xc,%eax
c000202e:	09 c8          	orl    %ecx,%eax
c0002030:	89 c5          	movl   %eax,%ebp
c0002032:	c1 e5 0c       	shll   $0xc,%ebp
c0002035:	75 37          	jne    c000206e <_paging_getPageTableEntry+0x7c>
c0002037:	e8 b2 03 00 00 	call   c00023ee <_physical_pageAlloc>
c000203c:	89 c5          	movl   %eax,%ebp
c000203e:	6a 01          	pushl  $0x1
c0002040:	50             	pushl  %eax
c0002041:	ff 74 24 2c    	pushl  0x2c(%esp,1)
c0002045:	57             	pushl  %edi
c0002046:	e8 52 ff ff ff 	call   c0001f9d <_paging_setPageDirectoryEntry>
c000204b:	bb 00 04 00 00 	movl   $0x400,%ebx
c0002050:	83 c4 10       	addl   $0x10,%esp
c0002053:	8b 74 24 24    	movl   0x24(%esp,1),%esi
c0002057:	81 c6 00 10 00 	addl   $0x1000,%esi
c000205c:	00 
c000205d:	6a 00          	pushl  $0x0
c000205f:	6a 00          	pushl  $0x0
c0002061:	56             	pushl  %esi
c0002062:	57             	pushl  %edi
c0002063:	e8 1e 00 00 00 	call   c0002086 <_paging_setPageTableEntry>
c0002068:	83 c4 10       	addl   $0x10,%esp
c000206b:	4b             	decl   %ebx
c000206c:	75 ef          	jne    c000205d <_paging_getPageTableEntry+0x6b>
c000206e:	8b 44 24 24    	movl   0x24(%esp,1),%eax
c0002072:	c1 e8 0a       	shrl   $0xa,%eax
c0002075:	25 fc 0f 00 00 	andl   $0xffc,%eax
c000207a:	8d 44 05 00    	leal   0x0(%ebp,%eax,1),%eax
c000207e:	83 c4 0c       	addl   $0xc,%esp
c0002081:	5b             	popl   %ebx
c0002082:	5e             	popl   %esi
c0002083:	5f             	popl   %edi
c0002084:	5d             	popl   %ebp
c0002085:	c3             	ret    

c0002086 <_paging_setPageTableEntry>:
c0002086:	83 ec 14       	subl   $0x14,%esp
c0002089:	8b 44 24 1c    	movl   0x1c(%esp,1),%eax
c000208d:	05 ff 0f 00 00 	addl   $0xfff,%eax
c0002092:	25 00 f0 ff ff 	andl   $0xfffff000,%eax
c0002097:	50             	pushl  %eax
c0002098:	ff 74 24 1c    	pushl  0x1c(%esp,1)
c000209c:	e8 51 ff ff ff 	call   c0001ff2 <_paging_getPageTableEntry>
c00020a1:	8b 4c 24 2c    	movl   0x2c(%esp,1),%ecx
c00020a5:	83 e1 01       	andl   $0x1,%ecx
c00020a8:	8b 10          	movl   (%eax),%edx
c00020aa:	83 e2 fe       	andl   $0xfffffffe,%edx
c00020ad:	09 ca          	orl    %ecx,%edx
c00020af:	89 10          	movl   %edx,(%eax)
c00020b1:	8a 10          	movb   (%eax),%dl
c00020b3:	83 ca 02       	orl    $0x2,%edx
c00020b6:	83 e2 03       	andl   $0x3,%edx
c00020b9:	88 10          	movb   %dl,(%eax)
c00020bb:	80 60 01 fe    	andb   $0xfe,0x1(%eax)
c00020bf:	8b 4c 24 28    	movl   0x28(%esp,1),%ecx
c00020c3:	81 c1 ff 0f 00 	addl   $0xfff,%ecx
c00020c8:	00 
c00020c9:	81 e1 00 f0 ff 	andl   $0xfffff000,%ecx
c00020ce:	ff 
c00020cf:	8b 10          	movl   (%eax),%edx
c00020d1:	81 e2 ff 01 00 	andl   $0x1ff,%edx
c00020d6:	00 
c00020d7:	09 ca          	orl    %ecx,%edx
c00020d9:	89 10          	movl   %edx,(%eax)
c00020db:	83 c4 1c       	addl   $0x1c,%esp
c00020de:	c3             	ret    
c00020df:	90             	nop    
c00020e0:	50             	pushl  %eax
c00020e1:	61             	popa   
c00020e2:	67 65 20 46 61 	addr16 andb %al,%gs:0x61(bp)
c00020e7:	75 6c          	jne    c0002155 <_paging_destroyDirectory+0x13>
c00020e9:	74 20          	je     c000210b <_paging_pageFaultHandler+0x4>
c00020eb:	61             	popa   
c00020ec:	74 20          	je     c000210e <_paging_pageFaultHandler+0x7>
c00020ee:	43             	incl   %ebx
c00020ef:	53             	pushl  %ebx
c00020f0:	3a 45 49       	cmpb   0x49(%ebp),%al
c00020f3:	50             	pushl  %eax
c00020f4:	20 25 64 3a 25 	andb   %ah,0x78253a64
c00020f9:	78 
c00020fa:	20 41 64       	andb   %al,0x64(%ecx)
c00020fd:	64 72 65       	jb     c0002165 <_paging_destroyDirectory+0x23>
c0002100:	73 73          	jae    c0002175 <_paging_destroyDirectory+0x33>
c0002102:	20 25 78 0a 00 	andb   %ah,0x83000a78
c0002107:	83 

c0002107 <_paging_pageFaultHandler>:
c0002107:	83 ec 0c       	subl   $0xc,%esp
c000210a:	8b 54 24 10    	movl   0x10(%esp,1),%edx
c000210e:	0f 20 d0       	movl   %cr2,%eax
c0002111:	50             	pushl  %eax
c0002112:	ff 72 38       	pushl  0x38(%edx)
c0002115:	ff 72 3c       	pushl  0x3c(%edx)
c0002118:	68 e0 20 00 c0 	pushl  $0xc00020e0
c000211d:	e8 68 f2 ff ff 	call   c000138a <_kernel_printf>
c0002122:	83 c4 10       	addl   $0x10,%esp
c0002125:	eb fe          	jmp    c0002125 <_paging_pageFaultHandler+0x1e>

c0002127 <_paging_createDirectory>:
c0002127:	53             	pushl  %ebx
c0002128:	83 ec 08       	subl   $0x8,%esp
c000212b:	e8 be 02 00 00 	call   c00023ee <_physical_pageAlloc>
c0002130:	89 c3          	movl   %eax,%ebx
c0002132:	83 ec 0c       	subl   $0xc,%esp
c0002135:	50             	pushl  %eax
c0002136:	e8 28 fe ff ff 	call   c0001f63 <_paging_clearDirectory>
c000213b:	89 d8          	movl   %ebx,%eax
c000213d:	83 c4 18       	addl   $0x18,%esp
c0002140:	5b             	popl   %ebx
c0002141:	c3             	ret    

c0002142 <_paging_destroyDirectory>:
c0002142:	55             	pushl  %ebp
c0002143:	57             	pushl  %edi
c0002144:	56             	pushl  %esi
c0002145:	53             	pushl  %ebx
c0002146:	83 ec 0c       	subl   $0xc,%esp
c0002149:	8b 6c 24 20    	movl   0x20(%esp,1),%ebp
c000214d:	bf 04 00 00 00 	movl   $0x4,%edi
c0002152:	8a 44 3d 01    	movb   0x1(%ebp,%edi,1),%al
c0002156:	c0 e8 04       	shrb   $0x4,%al
c0002159:	25 ff 00 00 00 	andl   $0xff,%eax
c000215e:	ba 00 00 00 00 	movl   $0x0,%edx
c0002163:	8a 54 3d 02    	movb   0x2(%ebp,%edi,1),%dl
c0002167:	c1 e2 04       	shll   $0x4,%edx
c000216a:	09 c2          	orl    %eax,%edx
c000216c:	b8 00 00 00 00 	movl   $0x0,%eax
c0002171:	8a 44 3d 03    	movb   0x3(%ebp,%edi,1),%al
c0002175:	c1 e0 0c       	shll   $0xc,%eax
c0002178:	09 d0          	orl    %edx,%eax
c000217a:	89 c6          	movl   %eax,%esi
c000217c:	c1 e6 0c       	shll   $0xc,%esi
c000217f:	74 55          	je     c00021d6 <_paging_destroyDirectory+0x94>
c0002181:	bb 00 00 00 00 	movl   $0x0,%ebx
c0002186:	8a 44 1e 01    	movb   0x1(%esi,%ebx,1),%al
c000218a:	c0 e8 04       	shrb   $0x4,%al
c000218d:	25 ff 00 00 00 	andl   $0xff,%eax
c0002192:	ba 00 00 00 00 	movl   $0x0,%edx
c0002197:	8a 54 1e 02    	movb   0x2(%esi,%ebx,1),%dl
c000219b:	c1 e2 04       	shll   $0x4,%edx
c000219e:	09 c2          	orl    %eax,%edx
c00021a0:	b8 00 00 00 00 	movl   $0x0,%eax
c00021a5:	8a 44 1e 03    	movb   0x3(%esi,%ebx,1),%al
c00021a9:	c1 e0 0c       	shll   $0xc,%eax
c00021ac:	09 d0          	orl    %edx,%eax
c00021ae:	c1 e0 0c       	shll   $0xc,%eax
c00021b1:	74 0c          	je     c00021bf <_paging_destroyDirectory+0x7d>
c00021b3:	83 ec 0c       	subl   $0xc,%esp
c00021b6:	50             	pushl  %eax
c00021b7:	e8 8a 02 00 00 	call   c0002446 <_physical_pageFree>
c00021bc:	83 c4 10       	addl   $0x10,%esp
c00021bf:	83 c3 04       	addl   $0x4,%ebx
c00021c2:	81 fb 00 10 00 	cmpl   $0x1000,%ebx
c00021c7:	00 
c00021c8:	75 bc          	jne    c0002186 <_paging_destroyDirectory+0x44>
c00021ca:	83 ec 0c       	subl   $0xc,%esp
c00021cd:	56             	pushl  %esi
c00021ce:	e8 73 02 00 00 	call   c0002446 <_physical_pageFree>
c00021d3:	83 c4 10       	addl   $0x10,%esp
c00021d6:	83 c7 04       	addl   $0x4,%edi
c00021d9:	81 ff 00 0c 00 	cmpl   $0xc00,%edi
c00021de:	00 
c00021df:	0f 85 6d ff ff 	jne    c0002152 <_paging_destroyDirectory+0x10>
c00021e4:	ff 
c00021e5:	83 ec 0c       	subl   $0xc,%esp
c00021e8:	55             	pushl  %ebp
c00021e9:	e8 58 02 00 00 	call   c0002446 <_physical_pageFree>
c00021ee:	83 c4 1c       	addl   $0x1c,%esp
c00021f1:	5b             	popl   %ebx
c00021f2:	5e             	popl   %esi
c00021f3:	5f             	popl   %edi
c00021f4:	5d             	popl   %ebp
c00021f5:	c3             	ret    

c00021f6 <_paging_mapKernel>:
c00021f6:	53             	pushl  %ebx
c00021f7:	83 ec 08       	subl   $0x8,%esp
c00021fa:	8b 5c 24 10    	movl   0x10(%esp,1),%ebx
c00021fe:	6a 00          	pushl  $0x0
c0002200:	6a 00          	pushl  $0x0
c0002202:	ff 35 1c 90 00 	pushl  0xc000901c
c0002207:	c0 
c0002208:	e8 47 fd ff ff 	call   c0001f54 <_paging_getPageDirectoryEntry>
c000220d:	83 c4 08       	addl   $0x8,%esp
c0002210:	8a 50 01       	movb   0x1(%eax),%dl
c0002213:	c0 ea 04       	shrb   $0x4,%dl
c0002216:	81 e2 ff 00 00 	andl   $0xff,%edx
c000221b:	00 
c000221c:	b9 00 00 00 00 	movl   $0x0,%ecx
c0002221:	8a 48 02       	movb   0x2(%eax),%cl
c0002224:	c1 e1 04       	shll   $0x4,%ecx
c0002227:	09 d1          	orl    %edx,%ecx
c0002229:	8a 40 03       	movb   0x3(%eax),%al
c000222c:	25 ff 00 00 00 	andl   $0xff,%eax
c0002231:	c1 e0 0c       	shll   $0xc,%eax
c0002234:	09 c8          	orl    %ecx,%eax
c0002236:	c1 e0 0c       	shll   $0xc,%eax
c0002239:	50             	pushl  %eax
c000223a:	6a 00          	pushl  $0x0
c000223c:	53             	pushl  %ebx
c000223d:	e8 5b fd ff ff 	call   c0001f9d <_paging_setPageDirectoryEntry>
c0002242:	6a 00          	pushl  $0x0
c0002244:	68 00 00 00 c0 	pushl  $0xc0000000
c0002249:	ff 35 1c 90 00 	pushl  0xc000901c
c000224e:	c0 
c000224f:	e8 00 fd ff ff 	call   c0001f54 <_paging_getPageDirectoryEntry>
c0002254:	83 c4 08       	addl   $0x8,%esp
c0002257:	8a 50 01       	movb   0x1(%eax),%dl
c000225a:	c0 ea 04       	shrb   $0x4,%dl
c000225d:	81 e2 ff 00 00 	andl   $0xff,%edx
c0002262:	00 
c0002263:	b9 00 00 00 00 	movl   $0x0,%ecx
c0002268:	8a 48 02       	movb   0x2(%eax),%cl
c000226b:	c1 e1 04       	shll   $0x4,%ecx
c000226e:	09 d1          	orl    %edx,%ecx
c0002270:	8a 40 03       	movb   0x3(%eax),%al
c0002273:	25 ff 00 00 00 	andl   $0xff,%eax
c0002278:	c1 e0 0c       	shll   $0xc,%eax
c000227b:	09 c8          	orl    %ecx,%eax
c000227d:	c1 e0 0c       	shll   $0xc,%eax
c0002280:	50             	pushl  %eax
c0002281:	68 00 00 00 c0 	pushl  $0xc0000000
c0002286:	53             	pushl  %ebx
c0002287:	e8 11 fd ff ff 	call   c0001f9d <_paging_setPageDirectoryEntry>
c000228c:	83 c4 20       	addl   $0x20,%esp
c000228f:	6a 00          	pushl  $0x0
c0002291:	68 00 00 00 d0 	pushl  $0xd0000000
c0002296:	ff 35 1c 90 00 	pushl  0xc000901c
c000229b:	c0 
c000229c:	e8 b3 fc ff ff 	call   c0001f54 <_paging_getPageDirectoryEntry>
c00022a1:	83 c4 08       	addl   $0x8,%esp
c00022a4:	8a 50 01       	movb   0x1(%eax),%dl
c00022a7:	c0 ea 04       	shrb   $0x4,%dl
c00022aa:	81 e2 ff 00 00 	andl   $0xff,%edx
c00022af:	00 
c00022b0:	b9 00 00 00 00 	movl   $0x0,%ecx
c00022b5:	8a 48 02       	movb   0x2(%eax),%cl
c00022b8:	c1 e1 04       	shll   $0x4,%ecx
c00022bb:	09 d1          	orl    %edx,%ecx
c00022bd:	8a 40 03       	movb   0x3(%eax),%al
c00022c0:	25 ff 00 00 00 	andl   $0xff,%eax
c00022c5:	c1 e0 0c       	shll   $0xc,%eax
c00022c8:	09 c8          	orl    %ecx,%eax
c00022ca:	c1 e0 0c       	shll   $0xc,%eax
c00022cd:	50             	pushl  %eax
c00022ce:	68 00 00 00 d0 	pushl  $0xd0000000
c00022d3:	53             	pushl  %ebx
c00022d4:	e8 c4 fc ff ff 	call   c0001f9d <_paging_setPageDirectoryEntry>
c00022d9:	83 c4 18       	addl   $0x18,%esp
c00022dc:	5b             	popl   %ebx
c00022dd:	c3             	ret    

c00022de <_paging_init>:
c00022de:	56             	pushl  %esi
c00022df:	53             	pushl  %ebx
c00022e0:	83 ec 0c       	subl   $0xc,%esp
c00022e3:	68 07 21 00 c0 	pushl  $0xc0002107
c00022e8:	6a 0e          	pushl  $0xe
c00022ea:	e8 3f f6 ff ff 	call   c000192e <_interrupt_enable>
c00022ef:	e8 33 fe ff ff 	call   c0002127 <_paging_createDirectory>
c00022f4:	a3 1c 90 00 c0 	movl   %eax,0xc000901c
c00022f9:	bb 00 00 00 00 	movl   $0x0,%ebx
c00022fe:	83 c4 10       	addl   $0x10,%esp
c0002301:	6a 01          	pushl  $0x1
c0002303:	53             	pushl  %ebx
c0002304:	53             	pushl  %ebx
c0002305:	ff 35 1c 90 00 	pushl  0xc000901c
c000230a:	c0 
c000230b:	e8 76 fd ff ff 	call   c0002086 <_paging_setPageTableEntry>
c0002310:	81 c3 00 10 00 	addl   $0x1000,%ebx
c0002315:	00 
c0002316:	83 c4 10       	addl   $0x10,%esp
c0002319:	81 fb 00 00 40 	cmpl   $0x400000,%ebx
c000231e:	00 
c000231f:	75 e0          	jne    c0002301 <_paging_init+0x23>
c0002321:	bb 00 10 10 00 	movl   $0x101000,%ebx
c0002326:	be 00 10 00 c0 	movl   $0xc0001000,%esi
c000232b:	eb 1e          	jmp    c000234b <_paging_init+0x6d>
c000232d:	6a 01          	pushl  $0x1
c000232f:	53             	pushl  %ebx
c0002330:	56             	pushl  %esi
c0002331:	ff 35 1c 90 00 	pushl  0xc000901c
c0002336:	c0 
c0002337:	e8 4a fd ff ff 	call   c0002086 <_paging_setPageTableEntry>
c000233c:	81 c6 00 10 00 	addl   $0x1000,%esi
c0002341:	00 
c0002342:	81 c3 00 10 00 	addl   $0x1000,%ebx
c0002347:	00 
c0002348:	83 c4 10       	addl   $0x10,%esp
c000234b:	e8 98 00 00 00 	call   c00023e8 <_physical_getBitmapSize>
c0002350:	05 00 20 11 00 	addl   $0x112000,%eax
c0002355:	39 c3          	cmpl   %eax,%ebx
c0002357:	72 d4          	jb     c000232d <_paging_init+0x4f>
c0002359:	ff 35 1c 90 00 	pushl  0xc000901c
c000235e:	c0 
c000235f:	e8 e8 fb ff ff 	call   c0001f4c <_paging_setCurrentPageDir>
c0002364:	0f 20 c0       	movl   %cr0,%eax
c0002367:	0d 00 00 00 80 	orl    $0x80000000,%eax
c000236c:	0f 22 c0       	movl   %eax,%cr0
c000236f:	83 c4 08       	addl   $0x8,%esp
c0002372:	5b             	popl   %ebx
c0002373:	5e             	popl   %esi
c0002374:	c3             	ret    
c0002375:	90             	nop    
c0002376:	90             	nop    
c0002377:	90             	nop    

c0002378 <_physical_isPageFree>:
c0002378:	8b 4c 24 04    	movl   0x4(%esp,1),%ecx
c000237c:	89 ca          	movl   %ecx,%edx
c000237e:	c1 ea 0f       	shrl   $0xf,%edx
c0002381:	a1 00 9d 00 c0 	movl   0xc0009d00,%eax
c0002386:	0f be 04 02    	movsbl (%edx,%eax,1),%eax
c000238a:	c1 e9 0c       	shrl   $0xc,%ecx
c000238d:	f7 d1          	notl   %ecx
c000238f:	83 e1 07       	andl   $0x7,%ecx
c0002392:	d3 f8          	sarl   %cl,%eax
c0002394:	f7 d0          	notl   %eax
c0002396:	83 e0 01       	andl   $0x1,%eax
c0002399:	c3             	ret    

c000239a <_physical_pageAllocAddress>:
c000239a:	56             	pushl  %esi
c000239b:	53             	pushl  %ebx
c000239c:	8b 44 24 0c    	movl   0xc(%esp,1),%eax
c00023a0:	05 ff 0f 00 00 	addl   $0xfff,%eax
c00023a5:	89 c2          	movl   %eax,%edx
c00023a7:	81 e2 00 f0 ff 	andl   $0xfffff000,%edx
c00023ac:	ff 
c00023ad:	89 d0          	movl   %edx,%eax
c00023af:	c1 e8 0f       	shrl   $0xf,%eax
c00023b2:	89 c6          	movl   %eax,%esi
c00023b4:	03 35 00 9d 00 	addl   0xc0009d00,%esi
c00023b9:	c0 
c00023ba:	8a 1e          	movb   (%esi),%bl
c00023bc:	89 d0          	movl   %edx,%eax
c00023be:	c1 e8 0c       	shrl   $0xc,%eax
c00023c1:	f7 d0          	notl   %eax
c00023c3:	89 c1          	movl   %eax,%ecx
c00023c5:	83 e1 07       	andl   $0x7,%ecx
c00023c8:	0f be c3       	movsbl %bl,%eax
c00023cb:	d3 f8          	sarl   %cl,%eax
c00023cd:	a8 01          	testb  $0x1,%al
c00023cf:	74 07          	je     c00023d8 <_physical_pageAllocAddress+0x3e>
c00023d1:	ba 00 00 00 00 	movl   $0x0,%edx
c00023d6:	eb 0b          	jmp    c00023e3 <_physical_pageAllocAddress+0x49>
c00023d8:	b8 01 00 00 00 	movl   $0x1,%eax
c00023dd:	d3 e0          	shll   %cl,%eax
c00023df:	09 d8          	orl    %ebx,%eax
c00023e1:	88 06          	movb   %al,(%esi)
c00023e3:	89 d0          	movl   %edx,%eax
c00023e5:	5b             	popl   %ebx
c00023e6:	5e             	popl   %esi
c00023e7:	c3             	ret    

c00023e8 <_physical_getBitmapSize>:
c00023e8:	a1 f0 9c 00 c0 	movl   0xc0009cf0,%eax
c00023ed:	c3             	ret    

c00023ee <_physical_pageAlloc>:
c00023ee:	53             	pushl  %ebx
c00023ef:	83 ec 08       	subl   $0x8,%esp
c00023f2:	e8 d2 ee ff ff 	call   c00012c9 <_kernel_lock>
c00023f7:	8b 1d 00 9d 00 	movl   0xc0009d00,%ebx
c00023fc:	c0 
c00023fd:	ba 00 10 00 01 	movl   $0x1001000,%edx
c0002402:	f6 83 00 02 00 	testb  $0x40,0x200(%ebx)
c0002407:	00 40 
c0002409:	74 24          	je     c000242f <_physical_pageAlloc+0x41>
c000240b:	ba 00 10 00 01 	movl   $0x1001000,%edx
c0002410:	81 c2 00 10 00 	addl   $0x1000,%edx
c0002415:	00 
c0002416:	89 d0          	movl   %edx,%eax
c0002418:	c1 e8 0f       	shrl   $0xf,%eax
c000241b:	0f be 04 18    	movsbl (%eax,%ebx,1),%eax
c000241f:	89 d1          	movl   %edx,%ecx
c0002421:	c1 e9 0c       	shrl   $0xc,%ecx
c0002424:	f7 d1          	notl   %ecx
c0002426:	83 e1 07       	andl   $0x7,%ecx
c0002429:	d3 f8          	sarl   %cl,%eax
c000242b:	a8 01          	testb  $0x1,%al
c000242d:	75 e1          	jne    c0002410 <_physical_pageAlloc+0x22>
c000242f:	52             	pushl  %edx
c0002430:	e8 65 ff ff ff 	call   c000239a <_physical_pageAllocAddress>
c0002435:	89 c3          	movl   %eax,%ebx
c0002437:	83 c4 04       	addl   $0x4,%esp
c000243a:	e8 97 ee ff ff 	call   c00012d6 <_kernel_unlock>
c000243f:	89 d8          	movl   %ebx,%eax
c0002441:	83 c4 08       	addl   $0x8,%esp
c0002444:	5b             	popl   %ebx
c0002445:	c3             	ret    

c0002446 <_physical_pageFree>:
c0002446:	56             	pushl  %esi
c0002447:	53             	pushl  %ebx
c0002448:	83 ec 04       	subl   $0x4,%esp
c000244b:	8b 5c 24 10    	movl   0x10(%esp,1),%ebx
c000244f:	e8 75 ee ff ff 	call   c00012c9 <_kernel_lock>
c0002454:	89 d8          	movl   %ebx,%eax
c0002456:	c1 e8 0f       	shrl   $0xf,%eax
c0002459:	89 c6          	movl   %eax,%esi
c000245b:	03 35 00 9d 00 	addl   0xc0009d00,%esi
c0002460:	c0 
c0002461:	8a 16          	movb   (%esi),%dl
c0002463:	c1 eb 0c       	shrl   $0xc,%ebx
c0002466:	f7 d3          	notl   %ebx
c0002468:	89 d9          	movl   %ebx,%ecx
c000246a:	83 e1 07       	andl   $0x7,%ecx
c000246d:	0f be c2       	movsbl %dl,%eax
c0002470:	d3 f8          	sarl   %cl,%eax
c0002472:	a8 01          	testb  $0x1,%al
c0002474:	74 0d          	je     c0002483 <_physical_pageFree+0x3d>
c0002476:	b8 01 00 00 00 	movl   $0x1,%eax
c000247b:	d3 e0          	shll   %cl,%eax
c000247d:	f7 d0          	notl   %eax
c000247f:	21 d0          	andl   %edx,%eax
c0002481:	88 06          	movb   %al,(%esi)
c0002483:	e8 4e ee ff ff 	call   c00012d6 <_kernel_unlock>
c0002488:	83 c4 04       	addl   $0x4,%esp
c000248b:	5b             	popl   %ebx
c000248c:	5e             	popl   %esi
c000248d:	c3             	ret    

c000248e <_physical_init>:
c000248e:	56             	pushl  %esi
c000248f:	53             	pushl  %ebx
c0002490:	83 ec 08       	subl   $0x8,%esp
c0002493:	8b 44 24 14    	movl   0x14(%esp,1),%eax
c0002497:	c1 e8 0a       	shrl   $0xa,%eax
c000249a:	c1 e0 08       	shll   $0x8,%eax
c000249d:	05 00 01 00 00 	addl   $0x100,%eax
c00024a2:	c1 e8 03       	shrl   $0x3,%eax
c00024a5:	a3 f0 9c 00 c0 	movl   %eax,0xc0009cf0
c00024aa:	c7 05 00 9d 00 	movl   $0xc0012000,0xc0009d00
c00024af:	c0 00 20 01 c0 
c00024b4:	50             	pushl  %eax
c00024b5:	6a 00          	pushl  $0x0
c00024b7:	68 00 20 01 c0 	pushl  $0xc0012000
c00024bc:	e8 4e 3a 00 00 	call   c0005f0f <_memset>
c00024c1:	bb 00 00 0a 00 	movl   $0xa0000,%ebx
c00024c6:	83 c4 10       	addl   $0x10,%esp
c00024c9:	53             	pushl  %ebx
c00024ca:	e8 cb fe ff ff 	call   c000239a <_physical_pageAllocAddress>
c00024cf:	81 c3 00 10 00 	addl   $0x1000,%ebx
c00024d4:	00 
c00024d5:	83 c4 04       	addl   $0x4,%esp
c00024d8:	81 fb 00 00 10 	cmpl   $0x100000,%ebx
c00024dd:	00 
c00024de:	75 e9          	jne    c00024c9 <_physical_init+0x3b>
c00024e0:	bb 00 10 10 00 	movl   $0x101000,%ebx
c00024e5:	be 00 20 11 00 	movl   $0x112000,%esi
c00024ea:	a1 f0 9c 00 c0 	movl   0xc0009cf0,%eax
c00024ef:	01 f0          	addl   %esi,%eax
c00024f1:	39 c3          	cmpl   %eax,%ebx
c00024f3:	73 1b          	jae    c0002510 <_physical_init+0x82>
c00024f5:	53             	pushl  %ebx
c00024f6:	e8 9f fe ff ff 	call   c000239a <_physical_pageAllocAddress>
c00024fb:	81 c3 00 10 00 	addl   $0x1000,%ebx
c0002500:	00 
c0002501:	89 f0          	movl   %esi,%eax
c0002503:	03 05 f0 9c 00 	addl   0xc0009cf0,%eax
c0002508:	c0 
c0002509:	83 c4 04       	addl   $0x4,%esp
c000250c:	39 c3          	cmpl   %eax,%ebx
c000250e:	72 e5          	jb     c00024f5 <_physical_init+0x67>
c0002510:	83 c4 04       	addl   $0x4,%esp
c0002513:	5b             	popl   %ebx
c0002514:	5e             	popl   %esi
c0002515:	c3             	ret    
c0002516:	90             	nop    
c0002517:	90             	nop    

c0002518 <_segmentation_setEntry>:
c0002518:	56             	pushl  %esi
c0002519:	53             	pushl  %ebx
c000251a:	8b 54 24 0c    	movl   0xc(%esp,1),%edx
c000251e:	8b 5c 24 10    	movl   0x10(%esp,1),%ebx
c0002522:	8b 4c 24 14    	movl   0x14(%esp,1),%ecx
c0002526:	89 d0          	movl   %edx,%eax
c0002528:	c1 f8 1f       	sarl   $0x1f,%eax
c000252b:	c1 e8 1d       	shrl   $0x1d,%eax
c000252e:	01 d0          	addl   %edx,%eax
c0002530:	c1 f8 03       	sarl   $0x3,%eax
c0002533:	be 20 9d 00 c0 	movl   $0xc0009d20,%esi
c0002538:	66 89 5c c6 02 	movw   %bx,0x2(%esi,%eax,8)
c000253d:	89 da          	movl   %ebx,%edx
c000253f:	c1 ea 10       	shrl   $0x10,%edx
c0002542:	88 14 c5 24 9d 	movb   %dl,0xc0009d24(,%eax,8)
c0002547:	00 c0 
c0002549:	c1 eb 18       	shrl   $0x18,%ebx
c000254c:	88 1c c5 27 9d 	movb   %bl,0xc0009d27(,%eax,8)
c0002551:	00 c0 
c0002553:	66 89 0c c6    	movw   %cx,(%esi,%eax,8)
c0002557:	c1 e9 10       	shrl   $0x10,%ecx
c000255a:	83 e1 0f       	andl   $0xf,%ecx
c000255d:	8a 54 24 1c    	movb   0x1c(%esp,1),%dl
c0002561:	83 e2 f0       	andl   $0xfffffff0,%edx
c0002564:	09 d1          	orl    %edx,%ecx
c0002566:	88 0c c5 26 9d 	movb   %cl,0xc0009d26(,%eax,8)
c000256b:	00 c0 
c000256d:	8b 54 24 18    	movl   0x18(%esp,1),%edx
c0002571:	88 14 c5 25 9d 	movb   %dl,0xc0009d25(,%eax,8)
c0002576:	00 c0 
c0002578:	5b             	popl   %ebx
c0002579:	5e             	popl   %esi
c000257a:	c3             	ret    

c000257b <_segmentation_ltr>:
c000257b:	0f 00 5c 24 04 	ltr    0x4(%esp,1)
c0002580:	c3             	ret    

c0002581 <_segmentation_reload>:
c0002581:	b8 10 9d 00 c0 	movl   $0xc0009d10,%eax
c0002586:	0f 01 10       	lgdt   (%eax)
c0002589:	66 b8 10 00    	movw   $0x10,%ax
c000258d:	8e d8          	movl   %eax,%ds
c000258f:	8e d0          	movl   %eax,%ss
c0002591:	8e c0          	movl   %eax,%es
c0002593:	8e e0          	movl   %eax,%fs
c0002595:	8e e8          	movl   %eax,%gs
c0002597:	ea 9e 25 00 c0 	ljmp   0x8,0xc000259e
c000259c:	08 00 
c000259e:	c3             	ret    

c000259f <_segmentation_init>:
c000259f:	83 ec 10       	subl   $0x10,%esp
c00025a2:	66 c7 05 10 9d 	movw   $0x1f,0xc0009d10
c00025a7:	00 c0 1f 00 
c00025ab:	c7 05 12 9d 00 	movl   $0xc0009d20,0xc0009d12
c00025b0:	c0 20 9d 00 c0 
c00025b5:	6a 20          	pushl  $0x20
c00025b7:	6a 00          	pushl  $0x0
c00025b9:	68 20 9d 00 c0 	pushl  $0xc0009d20
c00025be:	e8 4c 39 00 00 	call   c0005f0f <_memset>
c00025c3:	6a 00          	pushl  $0x0
c00025c5:	6a 00          	pushl  $0x0
c00025c7:	6a 00          	pushl  $0x0
c00025c9:	6a 00          	pushl  $0x0
c00025cb:	6a 00          	pushl  $0x0
c00025cd:	e8 46 ff ff ff 	call   c0002518 <_segmentation_setEntry>
c00025d2:	83 c4 24       	addl   $0x24,%esp
c00025d5:	68 cf 00 00 00 	pushl  $0xcf
c00025da:	68 9a 00 00 00 	pushl  $0x9a
c00025df:	6a ff          	pushl  $0xffffffff
c00025e1:	6a 00          	pushl  $0x0
c00025e3:	6a 08          	pushl  $0x8
c00025e5:	e8 2e ff ff ff 	call   c0002518 <_segmentation_setEntry>
c00025ea:	68 cf 00 00 00 	pushl  $0xcf
c00025ef:	68 92 00 00 00 	pushl  $0x92
c00025f4:	6a ff          	pushl  $0xffffffff
c00025f6:	6a 00          	pushl  $0x0
c00025f8:	6a 10          	pushl  $0x10
c00025fa:	e8 19 ff ff ff 	call   c0002518 <_segmentation_setEntry>
c00025ff:	83 c4 28       	addl   $0x28,%esp
c0002602:	6a 00          	pushl  $0x0
c0002604:	6a 00          	pushl  $0x0
c0002606:	6a 00          	pushl  $0x0
c0002608:	6a 00          	pushl  $0x0
c000260a:	6a 18          	pushl  $0x18
c000260c:	e8 07 ff ff ff 	call   c0002518 <_segmentation_setEntry>
c0002611:	e8 6b ff ff ff 	call   c0002581 <_segmentation_reload>
c0002616:	83 c4 20       	addl   $0x20,%esp
c0002619:	c3             	ret    
c000261a:	90             	nop    
c000261b:	90             	nop    
c000261c:	90             	nop    
c000261d:	90             	nop    
c000261e:	90             	nop    
c000261f:	90             	nop    
c0002620:	90             	nop    
c0002621:	90             	nop    
c0002622:	90             	nop    
c0002623:	90             	nop    
c0002624:	90             	nop    
c0002625:	90             	nop    
c0002626:	90             	nop    
c0002627:	90             	nop    
c0002628:	5b             	popl   %ebx
c0002629:	25 64 5d 20 6e 	andl   $0x6e205d64,%eax
c000262e:	61             	popa   
c000262f:	6d             	insl   (%dx),%es:(%edi)
c0002630:	65 20 69 6e    	andb   %ch,%gs:0x6e(%ecx)
c0002634:	64 65 78 3a    	js     c0002672 <_elf_load+0x2c>
c0002638:	20 25 64 20 61 	andb   %ah,0x64612064
c000263d:	64 
c000263e:	64 72 3a       	jb     c000267b <_elf_load+0x35>
c0002641:	20 25 78 0a 00 	andb   %ah,0x57000a78
c0002646:	57 

c0002646 <_elf_load>:
c0002646:	57             	pushl  %edi
c0002647:	56             	pushl  %esi
c0002648:	53             	pushl  %ebx
c0002649:	83 ec 60       	subl   $0x60,%esp
c000264c:	8b 74 24 70    	movl   0x70(%esp,1),%esi
c0002650:	8d 44 24 2c    	leal   0x2c(%esp,1),%eax
c0002654:	83 ec 04       	subl   $0x4,%esp
c0002657:	6a 34          	pushl  $0x34
c0002659:	50             	pushl  %eax
c000265a:	56             	pushl  %esi
c000265b:	e8 21 30 00 00 	call   c0005681 <_vfs_read>
c0002660:	83 c4 10       	addl   $0x10,%esp
c0002663:	ba ff ff ff ff 	movl   $0xffffffff,%edx
c0002668:	83 f8 ff       	cmpl   $0xffffffff,%eax
c000266b:	0f 84 a7 00 00 	je     c0002718 <_elf_load+0xd2>
c0002670:	00 
c0002671:	80 7c 24 2c 7f 	cmpb   $0x7f,0x2c(%esp,1)
c0002676:	74 1e          	je     c0002696 <_elf_load+0x50>
c0002678:	80 7c 24 2d 45 	cmpb   $0x45,0x2d(%esp,1)
c000267d:	74 17          	je     c0002696 <_elf_load+0x50>
c000267f:	80 7c 24 2e 4c 	cmpb   $0x4c,0x2e(%esp,1)
c0002684:	74 10          	je     c0002696 <_elf_load+0x50>
c0002686:	ba fe ff ff ff 	movl   $0xfffffffe,%edx
c000268b:	80 7c 24 2f 46 	cmpb   $0x46,0x2f(%esp,1)
c0002690:	0f 85 82 00 00 	jne    c0002718 <_elf_load+0xd2>
c0002695:	00 
c0002696:	ba fd ff ff ff 	movl   $0xfffffffd,%edx
c000269b:	80 7c 24 30 01 	cmpb   $0x1,0x30(%esp,1)
c00026a0:	75 76          	jne    c0002718 <_elf_load+0xd2>
c00026a2:	eb 0b          	jmp    c00026af <_elf_load+0x69>
c00026a4:	b8 fc ff ff ff 	movl   $0xfffffffc,%eax
c00026a9:	89 c2          	movl   %eax,%edx
c00026ab:	29 da          	subl   %ebx,%edx
c00026ad:	eb 69          	jmp    c0002718 <_elf_load+0xd2>
c00026af:	83 ec 04       	subl   $0x4,%esp
c00026b2:	6a 00          	pushl  $0x0
c00026b4:	ff 74 24 54    	pushl  0x54(%esp,1)
c00026b8:	56             	pushl  %esi
c00026b9:	e8 53 30 00 00 	call   c0005711 <_vfs_seek>
c00026be:	83 c4 10       	addl   $0x10,%esp
c00026c1:	66 83 7c 24 5c 	cmpw   $0x0,0x5c(%esp,1)
c00026c6:	00 
c00026c7:	74 4a          	je     c0002713 <_elf_load+0xcd>
c00026c9:	bb 00 00 00 00 	movl   $0x0,%ebx
c00026ce:	8d 7c 24 04    	leal   0x4(%esp,1),%edi
c00026d2:	83 ec 04       	subl   $0x4,%esp
c00026d5:	66 8b 44 24 5a 	movw   0x5a(%esp,1),%ax
c00026da:	25 ff ff 00 00 	andl   $0xffff,%eax
c00026df:	50             	pushl  %eax
c00026e0:	57             	pushl  %edi
c00026e1:	56             	pushl  %esi
c00026e2:	e8 9a 2f 00 00 	call   c0005681 <_vfs_read>
c00026e7:	83 c4 10       	addl   $0x10,%esp
c00026ea:	83 f8 ff       	cmpl   $0xffffffff,%eax
c00026ed:	74 b5          	je     c00026a4 <_elf_load+0x5e>
c00026ef:	ff 74 24 10    	pushl  0x10(%esp,1)
c00026f3:	ff 74 24 08    	pushl  0x8(%esp,1)
c00026f7:	53             	pushl  %ebx
c00026f8:	68 28 26 00 c0 	pushl  $0xc0002628
c00026fd:	e8 88 ec ff ff 	call   c000138a <_kernel_printf>
c0002702:	43             	incl   %ebx
c0002703:	8b 44 24 6c    	movl   0x6c(%esp,1),%eax
c0002707:	25 ff ff 00 00 	andl   $0xffff,%eax
c000270c:	83 c4 10       	addl   $0x10,%esp
c000270f:	39 c3          	cmpl   %eax,%ebx
c0002711:	7c bf          	jl     c00026d2 <_elf_load+0x8c>
c0002713:	ba 00 00 00 00 	movl   $0x0,%edx
c0002718:	89 d0          	movl   %edx,%eax
c000271a:	83 c4 60       	addl   $0x60,%esp
c000271d:	5b             	popl   %ebx
c000271e:	5e             	popl   %esi
c000271f:	5f             	popl   %edi
c0002720:	c3             	ret    
c0002721:	90             	nop    
c0002722:	90             	nop    
c0002723:	90             	nop    
c0002724:	90             	nop    
c0002725:	90             	nop    
c0002726:	90             	nop    
c0002727:	90             	nop    
c0002728:	73 69          	jae    c0002793 <_process_spawn+0x2b>
c000272a:	7a 65          	jp     c0002791 <_process_spawn+0x29>
c000272c:	20 3d 20 25 64 	andb   %bh,0xa642520
c0002731:	0a 
c0002732:	00 72 65       	addb   %dh,0x65(%edx)
c0002735:	61             	popa   
c0002736:	64 20 69 6e    	andb   %ch,%fs:0x6e(%ecx)
c000273a:	20 62 75       	andb   %ah,0x75(%edx)
c000273d:	66 66 65 72 0a 	jb     c000274c <_elf_load+0x106>
c0002742:	00 90 61 64 64 	addb   %dl,0x69646461(%eax)
c0002747:	69 
c0002748:	6e             	outsb  %ds:(%esi),(%dx)
c0002749:	67 20 70 72    	addr16 andb %dh,0x72(bx+si)
c000274d:	6f             	outsl  %ds:(%esi),(%dx)
c000274e:	63 65 73       	arpl   %sp,0x73(%ebp)
c0002751:	73 20          	jae    c0002773 <_process_spawn+0xb>
c0002753:	25 64 20 74 6f 	andl   $0x6f742064,%eax
c0002758:	20 74 68 65    	andb   %dh,0x65(%eax,%ebp,2)
c000275c:	20 73 63       	andb   %dh,0x63(%ebx)
c000275f:	68 65 64 75 6c 	pushl  $0x6c756465
c0002764:	65 72 0a       	jb     c0002771 <_process_spawn+0x9>
	...

c0002768 <_process_spawn>:
c0002768:	57             	pushl  %edi
c0002769:	56             	pushl  %esi
c000276a:	53             	pushl  %ebx
c000276b:	83 ec 08       	subl   $0x8,%esp
c000276e:	6a 01          	pushl  $0x1
c0002770:	ff 74 24 1c    	pushl  0x1c(%esp,1)
c0002774:	e8 f0 2d 00 00 	call   c0005569 <_vfs_open>
c0002779:	89 c3          	movl   %eax,%ebx
c000277b:	83 c4 10       	addl   $0x10,%esp
c000277e:	85 c0          	testl  %eax,%eax
c0002780:	0f 84 9c 00 00 	je     c0002822 <_process_spawn+0xba>
c0002785:	00 
c0002786:	83 ec 04       	subl   $0x4,%esp
c0002789:	6a 02          	pushl  $0x2
c000278b:	6a 00          	pushl  $0x0
c000278d:	50             	pushl  %eax
c000278e:	e8 7e 2f 00 00 	call   c0005711 <_vfs_seek>
c0002793:	89 c6          	movl   %eax,%esi
c0002795:	83 c4 08       	addl   $0x8,%esp
c0002798:	50             	pushl  %eax
c0002799:	68 28 27 00 c0 	pushl  $0xc0002728
c000279e:	e8 e7 eb ff ff 	call   c000138a <_kernel_printf>
c00027a3:	89 34 24       	movl   %esi,(%esp,1)
c00027a6:	e8 b4 f6 ff ff 	call   c0001e5f <_mm_malloc>
c00027ab:	89 c7          	movl   %eax,%edi
c00027ad:	83 c4 0c       	addl   $0xc,%esp
c00027b0:	6a 00          	pushl  $0x0
c00027b2:	6a 00          	pushl  $0x0
c00027b4:	53             	pushl  %ebx
c00027b5:	e8 57 2f 00 00 	call   c0005711 <_vfs_seek>
c00027ba:	83 c4 0c       	addl   $0xc,%esp
c00027bd:	56             	pushl  %esi
c00027be:	57             	pushl  %edi
c00027bf:	53             	pushl  %ebx
c00027c0:	e8 bc 2e 00 00 	call   c0005681 <_vfs_read>
c00027c5:	83 c4 10       	addl   $0x10,%esp
c00027c8:	83 f8 ff       	cmpl   $0xffffffff,%eax
c00027cb:	74 55          	je     c0002822 <_process_spawn+0xba>
c00027cd:	83 ec 0c       	subl   $0xc,%esp
c00027d0:	68 33 27 00 c0 	pushl  $0xc0002733
c00027d5:	e8 b0 eb ff ff 	call   c000138a <_kernel_printf>
c00027da:	83 c4 08       	addl   $0x8,%esp
c00027dd:	56             	pushl  %esi
c00027de:	57             	pushl  %edi
c00027df:	e8 9d 00 00 00 	call   c0002881 <_process_create>
c00027e4:	89 c6          	movl   %eax,%esi
c00027e6:	83 c4 10       	addl   $0x10,%esp
c00027e9:	85 c0          	testl  %eax,%eax
c00027eb:	74 22          	je     c000280f <_process_spawn+0xa7>
c00027ed:	8b 44 24 14    	movl   0x14(%esp,1),%eax
c00027f1:	89 46 20       	movl   %eax,0x20(%esi)
c00027f4:	83 ec 08       	subl   $0x8,%esp
c00027f7:	ff 76 04       	pushl  0x4(%esi)
c00027fa:	68 44 27 00 c0 	pushl  $0xc0002744
c00027ff:	e8 86 eb ff ff 	call   c000138a <_kernel_printf>
c0002804:	89 34 24       	movl   %esi,(%esp,1)
c0002807:	e8 fc 01 00 00 	call   c0002a08 <_scheduler_addProcess>
c000280c:	83 c4 10       	addl   $0x10,%esp
c000280f:	83 ec 0c       	subl   $0xc,%esp
c0002812:	53             	pushl  %ebx
c0002813:	e8 35 2e 00 00 	call   c000564d <_vfs_close>
c0002818:	b8 00 00 00 00 	movl   $0x0,%eax
c000281d:	83 c4 10       	addl   $0x10,%esp
c0002820:	eb 05          	jmp    c0002827 <_process_spawn+0xbf>
c0002822:	b8 ff ff ff ff 	movl   $0xffffffff,%eax
c0002827:	5b             	popl   %ebx
c0002828:	5e             	popl   %esi
c0002829:	5f             	popl   %edi
c000282a:	c3             	ret    

c000282b <_process_kill>:
c000282b:	53             	pushl  %ebx
c000282c:	83 ec 08       	subl   $0x8,%esp
c000282f:	8b 44 24 10    	movl   0x10(%esp,1),%eax
c0002833:	85 c0          	testl  %eax,%eax
c0002835:	74 40          	je     c0002877 <_process_kill+0x4c>
c0002837:	83 ec 0c       	subl   $0xc,%esp
c000283a:	50             	pushl  %eax
c000283b:	e8 0f 02 00 00 	call   c0002a4f <_scheduler_removeProcesss>
c0002840:	89 c3          	movl   %eax,%ebx
c0002842:	83 c4 10       	addl   $0x10,%esp
c0002845:	85 c0          	testl  %eax,%eax
c0002847:	74 2e          	je     c0002877 <_process_kill+0x4c>
c0002849:	83 ec 0c       	subl   $0xc,%esp
c000284c:	ff 70 1c       	pushl  0x1c(%eax)
c000284f:	e8 ee f8 ff ff 	call   c0002142 <_paging_destroyDirectory>
c0002854:	83 c4 04       	addl   $0x4,%esp
c0002857:	ff 73 10       	pushl  0x10(%ebx)
c000285a:	e8 e7 fb ff ff 	call   c0002446 <_physical_pageFree>
c000285f:	89 1c 24       	movl   %ebx,(%esp,1)
c0002862:	e8 6b f5 ff ff 	call   c0001dd2 <_mm_free>
c0002867:	ff 0d 04 80 00 	decl   0xc0008004
c000286c:	c0 
c000286d:	b8 00 00 00 00 	movl   $0x0,%eax
c0002872:	83 c4 10       	addl   $0x10,%esp
c0002875:	eb 05          	jmp    c000287c <_process_kill+0x51>
c0002877:	b8 ff ff ff ff 	movl   $0xffffffff,%eax
c000287c:	83 c4 08       	addl   $0x8,%esp
c000287f:	5b             	popl   %ebx
c0002880:	c3             	ret    

c0002881 <_process_create>:
c0002881:	55             	pushl  %ebp
c0002882:	57             	pushl  %edi
c0002883:	56             	pushl  %esi
c0002884:	53             	pushl  %ebx
c0002885:	83 ec 18       	subl   $0x18,%esp
c0002888:	8b 6c 24 30    	movl   0x30(%esp,1),%ebp
c000288c:	6a 34          	pushl  $0x34
c000288e:	e8 cc f5 ff ff 	call   c0001e5f <_mm_malloc>
c0002893:	89 c6          	movl   %eax,%esi
c0002895:	83 c4 10       	addl   $0x10,%esp
c0002898:	85 c0          	testl  %eax,%eax
c000289a:	0f 84 51 01 00 	je     c00029f1 <_process_create+0x170>
c000289f:	00 
c00028a0:	a1 04 80 00 c0 	movl   0xc0008004,%eax
c00028a5:	40             	incl   %eax
c00028a6:	a3 04 80 00 c0 	movl   %eax,0xc0008004
c00028ab:	89 46 04       	movl   %eax,0x4(%esi)
c00028ae:	c7 46 24 00 00 	movl   $0x30000000,0x24(%esi)
c00028b3:	00 30 
c00028b5:	c7 46 2c 00 00 	movl   $0x0,0x2c(%esi)
c00028ba:	00 00 
c00028bc:	c7 46 28 00 00 	movl   $0x0,0x28(%esi)
c00028c1:	00 00 
c00028c3:	c7 46 08 01 00 	movl   $0x1,0x8(%esi)
c00028c8:	00 00 
c00028ca:	c7 46 0c 00 00 	movl   $0x0,0xc(%esi)
c00028cf:	00 00 
c00028d1:	e8 51 f8 ff ff 	call   c0002127 <_paging_createDirectory>
c00028d6:	89 46 1c       	movl   %eax,0x1c(%esi)
c00028d9:	83 ec 0c       	subl   $0xc,%esp
c00028dc:	50             	pushl  %eax
c00028dd:	e8 14 f9 ff ff 	call   c00021f6 <_paging_mapKernel>
c00028e2:	e8 07 fb ff ff 	call   c00023ee <_physical_pageAlloc>
c00028e7:	89 c3          	movl   %eax,%ebx
c00028e9:	6a 01          	pushl  $0x1
c00028eb:	50             	pushl  %eax
c00028ec:	68 00 00 00 20 	pushl  $0x20000000
c00028f1:	ff 76 1c       	pushl  0x1c(%esi)
c00028f4:	e8 8d f7 ff ff 	call   c0002086 <_paging_setPageTableEntry>
c00028f9:	89 5e 10       	movl   %ebx,0x10(%esi)
c00028fc:	8b 5e 04       	movl   0x4(%esi),%ebx
c00028ff:	c1 e3 0c       	shll   $0xc,%ebx
c0002902:	81 c3 40 9d 00 	addl   $0xc0009d40,%ebx
c0002907:	c0 
c0002908:	89 5e 18       	movl   %ebx,0x18(%esi)
c000290b:	8d bb b4 0f 00 	leal   0xfb4(%ebx),%edi
c0002910:	00 
c0002911:	83 c4 1c       	addl   $0x1c,%esp
c0002914:	6a 4c          	pushl  $0x4c
c0002916:	6a 00          	pushl  $0x0
c0002918:	57             	pushl  %edi
c0002919:	e8 f1 35 00 00 	call   c0005f0f <_memset>
c000291e:	c7 47 3c 08 00 	movl   $0x8,0x3c(%edi)
c0002923:	00 00 
c0002925:	c7 83 b4 0f 00 	movl   $0x10,0xfb4(%ebx)
c000292a:	00 10 00 00 00 
c000292f:	c7 47 04 10 00 	movl   $0x10,0x4(%edi)
c0002934:	00 00 
c0002936:	c7 47 08 10 00 	movl   $0x10,0x8(%edi)
c000293b:	00 00 
c000293d:	c7 47 0c 10 00 	movl   $0x10,0xc(%edi)
c0002942:	00 00 
c0002944:	c7 47 40 02 02 	movl   $0x202,0x40(%edi)
c0002949:	00 00 
c000294b:	83 c4 10       	addl   $0x10,%esp
c000294e:	89 e8          	movl   %ebp,%eax
c0002950:	c1 f8 1f       	sarl   $0x1f,%eax
c0002953:	c1 e8 14       	shrl   $0x14,%eax
c0002956:	01 e8          	addl   %ebp,%eax
c0002958:	c1 f8 0c       	sarl   $0xc,%eax
c000295b:	40             	incl   %eax
c000295c:	89 04 24       	movl   %eax,(%esp,1)
c000295f:	85 c0          	testl  %eax,%eax
c0002961:	7e 77          	jle    c00029da <_process_create+0x159>
c0002963:	8b 44 24 20    	movl   0x20(%esp,1),%eax
c0002967:	89 44 24 08    	movl   %eax,0x8(%esp,1)
c000296b:	c7 44 24 04 00 	movl   $0x0,0x4(%esp,1)
c0002970:	00 00 00 
c0002973:	bd 00 00 00 10 	movl   $0x10000000,%ebp
c0002978:	e8 71 fa ff ff 	call   c00023ee <_physical_pageAlloc>
c000297d:	89 c3          	movl   %eax,%ebx
c000297f:	6a 01          	pushl  $0x1
c0002981:	50             	pushl  %eax
c0002982:	55             	pushl  %ebp
c0002983:	ff 35 1c 90 00 	pushl  0xc000901c
c0002988:	c0 
c0002989:	e8 f8 f6 ff ff 	call   c0002086 <_paging_setPageTableEntry>
c000298e:	6a 01          	pushl  $0x1
c0002990:	53             	pushl  %ebx
c0002991:	55             	pushl  %ebp
c0002992:	ff 76 1c       	pushl  0x1c(%esi)
c0002995:	e8 ec f6 ff ff 	call   c0002086 <_paging_setPageTableEntry>
c000299a:	83 c4 1c       	addl   $0x1c,%esp
c000299d:	68 00 10 00 00 	pushl  $0x1000
c00029a2:	ff 74 24 10    	pushl  0x10(%esp,1)
c00029a6:	55             	pushl  %ebp
c00029a7:	e8 89 35 00 00 	call   c0005f35 <_memcpy>
c00029ac:	6a 00          	pushl  $0x0
c00029ae:	6a 00          	pushl  $0x0
c00029b0:	55             	pushl  %ebp
c00029b1:	ff 35 1c 90 00 	pushl  0xc000901c
c00029b6:	c0 
c00029b7:	e8 ca f6 ff ff 	call   c0002086 <_paging_setPageTableEntry>
c00029bc:	ff 44 24 24    	incl   0x24(%esp,1)
c00029c0:	81 c5 00 10 00 	addl   $0x1000,%ebp
c00029c5:	00 
c00029c6:	81 44 24 28 00 	addl   $0x1000,0x28(%esp,1)
c00029cb:	10 00 00 
c00029ce:	83 c4 20       	addl   $0x20,%esp
c00029d1:	8b 04 24       	movl   (%esp,1),%eax
c00029d4:	39 44 24 04    	cmpl   %eax,0x4(%esp,1)
c00029d8:	75 9e          	jne    c0002978 <_process_create+0xf7>
c00029da:	c7 47 38 00 00 	movl   $0x10000000,0x38(%edi)
c00029df:	00 10 
c00029e1:	c7 47 30 20 00 	movl   $0x20,0x30(%edi)
c00029e6:	00 00 
c00029e8:	c7 47 1c 00 10 	movl   $0x20001000,0x1c(%edi)
c00029ed:	00 20 
c00029ef:	89 3e          	movl   %edi,(%esi)
c00029f1:	89 f0          	movl   %esi,%eax
c00029f3:	83 c4 0c       	addl   $0xc,%esp
c00029f6:	5b             	popl   %ebx
c00029f7:	5e             	popl   %esi
c00029f8:	5f             	popl   %edi
c00029f9:	5d             	popl   %ebp
c00029fa:	c3             	ret    
c00029fb:	90             	nop    
c00029fc:	90             	nop    
c00029fd:	90             	nop    
c00029fe:	90             	nop    
c00029ff:	90             	nop    
c0002a00:	90             	nop    
c0002a01:	90             	nop    
c0002a02:	90             	nop    
c0002a03:	90             	nop    
c0002a04:	90             	nop    
c0002a05:	90             	nop    
c0002a06:	90             	nop    
c0002a07:	90             	nop    

c0002a08 <_scheduler_addProcess>:
c0002a08:	8b 54 24 04    	movl   0x4(%esp,1),%edx
c0002a0c:	83 3d 20 80 00 	cmpl   $0x0,0xc0008020
c0002a11:	c0 00 
c0002a13:	75 08          	jne    c0002a1d <_scheduler_addProcess+0x15>
c0002a15:	89 15 20 80 00 	movl   %edx,0xc0008020
c0002a1a:	c0 
c0002a1b:	eb 08          	jmp    c0002a25 <_scheduler_addProcess+0x1d>
c0002a1d:	a1 1c 80 00 c0 	movl   0xc000801c,%eax
c0002a22:	89 50 30       	movl   %edx,0x30(%eax)
c0002a25:	89 15 1c 80 00 	movl   %edx,0xc000801c
c0002a2a:	c0 
c0002a2b:	89 d0          	movl   %edx,%eax
c0002a2d:	c3             	ret    

c0002a2e <_scheduler_findProcesss>:
c0002a2e:	8b 54 24 04    	movl   0x4(%esp,1),%edx
c0002a32:	a1 20 80 00 c0 	movl   0xc0008020,%eax
c0002a37:	85 c0          	testl  %eax,%eax
c0002a39:	75 0e          	jne    c0002a49 <_scheduler_findProcesss+0x1b>
c0002a3b:	c3             	ret    
c0002a3c:	3b 50 04       	cmpl   0x4(%eax),%edx
c0002a3f:	74 0d          	je     c0002a4e <_scheduler_findProcesss+0x20>
c0002a41:	8b 40 30       	movl   0x30(%eax),%eax
c0002a44:	85 c0          	testl  %eax,%eax
c0002a46:	75 f4          	jne    c0002a3c <_scheduler_findProcesss+0xe>
c0002a48:	c3             	ret    
c0002a49:	3b 50 04       	cmpl   0x4(%eax),%edx
c0002a4c:	75 f3          	jne    c0002a41 <_scheduler_findProcesss+0x13>
c0002a4e:	c3             	ret    

c0002a4f <_scheduler_removeProcesss>:
c0002a4f:	ff 74 24 04    	pushl  0x4(%esp,1)
c0002a53:	e8 d6 ff ff ff 	call   c0002a2e <_scheduler_findProcesss>
c0002a58:	89 c1          	movl   %eax,%ecx
c0002a5a:	83 c4 04       	addl   $0x4,%esp
c0002a5d:	85 c0          	testl  %eax,%eax
c0002a5f:	74 3a          	je     c0002a9b <_scheduler_removeProcesss+0x4c>
c0002a61:	8b 15 20 80 00 	movl   0xc0008020,%edx
c0002a66:	c0 
c0002a67:	39 d0          	cmpl   %edx,%eax
c0002a69:	75 21          	jne    c0002a8c <_scheduler_removeProcesss+0x3d>
c0002a6b:	8b 40 30       	movl   0x30(%eax),%eax
c0002a6e:	a3 20 80 00 c0 	movl   %eax,0xc0008020
c0002a73:	eb 26          	jmp    c0002a9b <_scheduler_removeProcesss+0x4c>
c0002a75:	8b 42 30       	movl   0x30(%edx),%eax
c0002a78:	39 c8          	cmpl   %ecx,%eax
c0002a7a:	74 08          	je     c0002a84 <_scheduler_removeProcesss+0x35>
c0002a7c:	89 c2          	movl   %eax,%edx
c0002a7e:	85 d2          	testl  %edx,%edx
c0002a80:	75 f3          	jne    c0002a75 <_scheduler_removeProcesss+0x26>
c0002a82:	eb 17          	jmp    c0002a9b <_scheduler_removeProcesss+0x4c>
c0002a84:	8b 41 30       	movl   0x30(%ecx),%eax
c0002a87:	89 42 30       	movl   %eax,0x30(%edx)
c0002a8a:	eb 0f          	jmp    c0002a9b <_scheduler_removeProcesss+0x4c>
c0002a8c:	85 d2          	testl  %edx,%edx
c0002a8e:	74 0b          	je     c0002a9b <_scheduler_removeProcesss+0x4c>
c0002a90:	8b 42 30       	movl   0x30(%edx),%eax
c0002a93:	39 c1          	cmpl   %eax,%ecx
c0002a95:	74 ed          	je     c0002a84 <_scheduler_removeProcesss+0x35>
c0002a97:	89 c2          	movl   %eax,%edx
c0002a99:	eb e3          	jmp    c0002a7e <_scheduler_removeProcesss+0x2f>
c0002a9b:	89 c8          	movl   %ecx,%eax
c0002a9d:	c3             	ret    

c0002a9e <_scheduler_idle>:
c0002a9e:	83 ec 18       	subl   $0x18,%esp
c0002aa1:	68 80 00 00 00 	pushl  $0x80
c0002aa6:	e8 09 e8 ff ff 	call   c00012b4 <_inportb>
c0002aab:	83 c4 1c       	addl   $0x1c,%esp
c0002aae:	c3             	ret    

c0002aaf <_scheduler_handler>:
c0002aaf:	ff 05 10 80 00 	incl   0xc0008010
c0002ab4:	c0 
c0002ab5:	8b 15 08 80 00 	movl   0xc0008008,%edx
c0002aba:	c0 
c0002abb:	a1 18 80 00 c0 	movl   0xc0008018,%eax
c0002ac0:	89 10          	movl   %edx,(%eax)
c0002ac2:	8b 15 18 80 00 	movl   0xc0008018,%edx
c0002ac7:	c0 
c0002ac8:	83 7a 08 00    	cmpl   $0x0,0x8(%edx)
c0002acc:	7f 45          	jg     c0002b13 <_scheduler_handler+0x64>
c0002ace:	8b 42 30       	movl   0x30(%edx),%eax
c0002ad1:	39 c2          	cmpl   %eax,%edx
c0002ad3:	74 3e          	je     c0002b13 <_scheduler_handler+0x64>
c0002ad5:	8b 0d 20 80 00 	movl   0xc0008020,%ecx
c0002ada:	c0 
c0002adb:	85 c0          	testl  %eax,%eax
c0002add:	75 02          	jne    c0002ae1 <_scheduler_handler+0x32>
c0002adf:	89 c8          	movl   %ecx,%eax
c0002ae1:	83 78 0c 00    	cmpl   $0x0,0xc(%eax)
c0002ae5:	74 09          	je     c0002af0 <_scheduler_handler+0x41>
c0002ae7:	8b 40 30       	movl   0x30(%eax),%eax
c0002aea:	39 c2          	cmpl   %eax,%edx
c0002aec:	74 25          	je     c0002b13 <_scheduler_handler+0x64>
c0002aee:	eb eb          	jmp    c0002adb <_scheduler_handler+0x2c>
c0002af0:	39 c2          	cmpl   %eax,%edx
c0002af2:	74 1f          	je     c0002b13 <_scheduler_handler+0x64>
c0002af4:	c7 42 0c 00 00 	movl   $0x0,0xc(%edx)
c0002af9:	00 00 
c0002afb:	a3 18 80 00 c0 	movl   %eax,0xc0008018
c0002b00:	c7 40 08 01 00 	movl   $0x1,0x8(%eax)
c0002b05:	00 00 
c0002b07:	a1 18 80 00 c0 	movl   0xc0008018,%eax
c0002b0c:	c7 40 0c 01 00 	movl   $0x1,0xc(%eax)
c0002b11:	00 00 
c0002b13:	a1 18 80 00 c0 	movl   0xc0008018,%eax
c0002b18:	ff 48 08       	decl   0x8(%eax)
c0002b1b:	8b 15 18 80 00 	movl   0xc0008018,%edx
c0002b20:	c0 
c0002b21:	8b 42 1c       	movl   0x1c(%edx),%eax
c0002b24:	a3 0c 80 00 c0 	movl   %eax,0xc000800c
c0002b29:	8b 02          	movl   (%edx),%eax
c0002b2b:	a3 08 80 00 c0 	movl   %eax,0xc0008008
c0002b30:	c3             	ret    

c0002b31 <_scheduler_enable>:
c0002b31:	83 ec 14       	subl   $0x14,%esp
c0002b34:	6a 36          	pushl  $0x36
c0002b36:	6a 43          	pushl  $0x43
c0002b38:	e8 82 e7 ff ff 	call   c00012bf <_outportb>
c0002b3d:	83 c4 08       	addl   $0x8,%esp
c0002b40:	6a 0b          	pushl  $0xb
c0002b42:	6a 40          	pushl  $0x40
c0002b44:	e8 76 e7 ff ff 	call   c00012bf <_outportb>
c0002b49:	83 c4 08       	addl   $0x8,%esp
c0002b4c:	6a 00          	pushl  $0x0
c0002b4e:	6a 40          	pushl  $0x40
c0002b50:	e8 6a e7 ff ff 	call   c00012bf <_outportb>
c0002b55:	83 c4 08       	addl   $0x8,%esp
c0002b58:	6a 00          	pushl  $0x0
c0002b5a:	6a 20          	pushl  $0x20
c0002b5c:	e8 cd ed ff ff 	call   c000192e <_interrupt_enable>
c0002b61:	83 c4 1c       	addl   $0x1c,%esp
c0002b64:	c3             	ret    

c0002b65 <_scheduler_init>:
c0002b65:	83 ec 0c       	subl   $0xc,%esp
c0002b68:	c7 05 08 90 00 	movl   $0x1,0xc0009008
c0002b6d:	c0 01 00 00 00 
c0002b72:	c7 05 0c 90 00 	movl   $0x1,0xc000900c
c0002b77:	c0 01 00 00 00 
c0002b7c:	68 00 90 00 c0 	pushl  $0xc0009000
c0002b81:	e8 82 fe ff ff 	call   c0002a08 <_scheduler_addProcess>
c0002b86:	a3 18 80 00 c0 	movl   %eax,0xc0008018
c0002b8b:	83 ec 08       	subl   $0x8,%esp
c0002b8e:	6a 68          	pushl  $0x68
c0002b90:	e8 ca f2 ff ff 	call   c0001e5f <_mm_malloc>
c0002b95:	a3 14 80 00 c0 	movl   %eax,0xc0008014
c0002b9a:	83 c4 0c       	addl   $0xc,%esp
c0002b9d:	6a 68          	pushl  $0x68
c0002b9f:	6a 00          	pushl  $0x0
c0002ba1:	50             	pushl  %eax
c0002ba2:	e8 68 33 00 00 	call   c0005f0f <_memset>
c0002ba7:	c7 04 24 00 00 	movl   $0x0,(%esp,1)
c0002bac:	00 00 
c0002bae:	68 89 00 00 00 	pushl  $0x89
c0002bb3:	6a 67          	pushl  $0x67
c0002bb5:	ff 35 14 80 00 	pushl  0xc0008014
c0002bba:	c0 
c0002bbb:	6a 18          	pushl  $0x18
c0002bbd:	e8 56 f9 ff ff 	call   c0002518 <_segmentation_setEntry>
c0002bc2:	83 c4 20       	addl   $0x20,%esp
c0002bc5:	e8 b7 f9 ff ff 	call   c0002581 <_segmentation_reload>
c0002bca:	83 ec 0c       	subl   $0xc,%esp
c0002bcd:	6a 18          	pushl  $0x18
c0002bcf:	e8 a7 f9 ff ff 	call   c000257b <_segmentation_ltr>
c0002bd4:	83 c4 1c       	addl   $0x1c,%esp
c0002bd7:	c3             	ret    

c0002bd8 <_io_add>:
c0002bd8:	83 ec 10       	subl   $0x10,%esp
c0002bdb:	ff 74 24 1c    	pushl  0x1c(%esp,1)
c0002bdf:	ff 74 24 1c    	pushl  0x1c(%esp,1)
c0002be3:	ff 74 24 1c    	pushl  0x1c(%esp,1)
c0002be7:	e8 ac 14 00 00 	call   c0004098 <_dfs_add>
c0002bec:	83 f8 01       	cmpl   $0x1,%eax
c0002bef:	19 c0          	sbbl   %eax,%eax
c0002bf1:	83 c4 1c       	addl   $0x1c,%esp
c0002bf4:	c3             	ret    

c0002bf5 <_io_remove>:
c0002bf5:	83 ec 18       	subl   $0x18,%esp
c0002bf8:	ff 74 24 1c    	pushl  0x1c(%esp,1)
c0002bfc:	e8 18 15 00 00 	call   c0004119 <_dfs_remove>
c0002c01:	83 c4 1c       	addl   $0x1c,%esp
c0002c04:	c3             	ret    

c0002c05 <_io_open>:
c0002c05:	56             	pushl  %esi
c0002c06:	53             	pushl  %ebx
c0002c07:	83 ec 04       	subl   $0x4,%esp
c0002c0a:	8b 74 24 10    	movl   0x10(%esp,1),%esi
c0002c0e:	8b 46 04       	movl   0x4(%esi),%eax
c0002c11:	bb 00 00 00 00 	movl   $0x0,%ebx
c0002c16:	83 38 00       	cmpl   $0x0,(%eax)
c0002c19:	74 40          	je     c0002c5b <_io_open+0x56>
c0002c1b:	83 ec 0c       	subl   $0xc,%esp
c0002c1e:	6a 0c          	pushl  $0xc
c0002c20:	e8 3a f2 ff ff 	call   c0001e5f <_mm_malloc>
c0002c25:	89 c3          	movl   %eax,%ebx
c0002c27:	89 30          	movl   %esi,(%eax)
c0002c29:	c7 40 08 00 00 	movl   $0x0,0x8(%eax)
c0002c2e:	00 00 
c0002c30:	c7 40 04 00 00 	movl   $0x0,0x4(%eax)
c0002c35:	00 00 
c0002c37:	83 c4 08       	addl   $0x8,%esp
c0002c3a:	8b 46 04       	movl   0x4(%esi),%eax
c0002c3d:	ff 76 08       	pushl  0x8(%esi)
c0002c40:	53             	pushl  %ebx
c0002c41:	ff 10          	call   *(%eax)
c0002c43:	83 c4 10       	addl   $0x10,%esp
c0002c46:	85 c0          	testl  %eax,%eax
c0002c48:	75 11          	jne    c0002c5b <_io_open+0x56>
c0002c4a:	83 ec 0c       	subl   $0xc,%esp
c0002c4d:	53             	pushl  %ebx
c0002c4e:	e8 7f f1 ff ff 	call   c0001dd2 <_mm_free>
c0002c53:	bb 00 00 00 00 	movl   $0x0,%ebx
c0002c58:	83 c4 10       	addl   $0x10,%esp
c0002c5b:	89 d8          	movl   %ebx,%eax
c0002c5d:	83 c4 04       	addl   $0x4,%esp
c0002c60:	5b             	popl   %ebx
c0002c61:	5e             	popl   %esi
c0002c62:	c3             	ret    

c0002c63 <_io_close>:
c0002c63:	56             	pushl  %esi
c0002c64:	53             	pushl  %ebx
c0002c65:	83 ec 04       	subl   $0x4,%esp
c0002c68:	8b 5c 24 10    	movl   0x10(%esp,1),%ebx
c0002c6c:	8b 03          	movl   (%ebx),%eax
c0002c6e:	8b 40 04       	movl   0x4(%eax),%eax
c0002c71:	8b 40 04       	movl   0x4(%eax),%eax
c0002c74:	be ff ff ff ff 	movl   $0xffffffff,%esi
c0002c79:	85 c0          	testl  %eax,%eax
c0002c7b:	74 13          	je     c0002c90 <_io_close+0x2d>
c0002c7d:	83 ec 0c       	subl   $0xc,%esp
c0002c80:	53             	pushl  %ebx
c0002c81:	ff d0          	call   *%eax
c0002c83:	89 c6          	movl   %eax,%esi
c0002c85:	89 1c 24       	movl   %ebx,(%esp,1)
c0002c88:	e8 45 f1 ff ff 	call   c0001dd2 <_mm_free>
c0002c8d:	83 c4 10       	addl   $0x10,%esp
c0002c90:	89 f0          	movl   %esi,%eax
c0002c92:	83 c4 04       	addl   $0x4,%esp
c0002c95:	5b             	popl   %ebx
c0002c96:	5e             	popl   %esi
c0002c97:	c3             	ret    

c0002c98 <_io_read>:
c0002c98:	83 ec 0c       	subl   $0xc,%esp
c0002c9b:	8b 4c 24 10    	movl   0x10(%esp,1),%ecx
c0002c9f:	8b 01          	movl   (%ecx),%eax
c0002ca1:	8b 40 04       	movl   0x4(%eax),%eax
c0002ca4:	8b 50 08       	movl   0x8(%eax),%edx
c0002ca7:	b8 ff ff ff ff 	movl   $0xffffffff,%eax
c0002cac:	85 d2          	testl  %edx,%edx
c0002cae:	74 11          	je     c0002cc1 <_io_read+0x29>
c0002cb0:	83 ec 04       	subl   $0x4,%esp
c0002cb3:	ff 74 24 1c    	pushl  0x1c(%esp,1)
c0002cb7:	ff 74 24 1c    	pushl  0x1c(%esp,1)
c0002cbb:	51             	pushl  %ecx
c0002cbc:	ff d2          	call   *%edx
c0002cbe:	83 c4 10       	addl   $0x10,%esp
c0002cc1:	83 c4 0c       	addl   $0xc,%esp
c0002cc4:	c3             	ret    

c0002cc5 <_io_write>:
c0002cc5:	83 ec 0c       	subl   $0xc,%esp
c0002cc8:	8b 4c 24 10    	movl   0x10(%esp,1),%ecx
c0002ccc:	8b 01          	movl   (%ecx),%eax
c0002cce:	8b 40 04       	movl   0x4(%eax),%eax
c0002cd1:	8b 50 0c       	movl   0xc(%eax),%edx
c0002cd4:	b8 ff ff ff ff 	movl   $0xffffffff,%eax
c0002cd9:	85 d2          	testl  %edx,%edx
c0002cdb:	74 11          	je     c0002cee <_io_write+0x29>
c0002cdd:	83 ec 04       	subl   $0x4,%esp
c0002ce0:	ff 74 24 1c    	pushl  0x1c(%esp,1)
c0002ce4:	ff 74 24 1c    	pushl  0x1c(%esp,1)
c0002ce8:	51             	pushl  %ecx
c0002ce9:	ff d2          	call   *%edx
c0002ceb:	83 c4 10       	addl   $0x10,%esp
c0002cee:	83 c4 0c       	addl   $0xc,%esp
c0002cf1:	c3             	ret    

c0002cf2 <_io_seek>:
c0002cf2:	53             	pushl  %ebx
c0002cf3:	83 ec 08       	subl   $0x8,%esp
c0002cf6:	8b 5c 24 10    	movl   0x10(%esp,1),%ebx
c0002cfa:	8a 4c 24 18    	movb   0x18(%esp,1),%cl
c0002cfe:	8b 03          	movl   (%ebx),%eax
c0002d00:	8b 40 04       	movl   0x4(%eax),%eax
c0002d03:	8b 50 10       	movl   0x10(%eax),%edx
c0002d06:	b8 ff ff ff ff 	movl   $0xffffffff,%eax
c0002d0b:	85 d2          	testl  %edx,%edx
c0002d0d:	74 15          	je     c0002d24 <_io_seek+0x32>
c0002d0f:	83 ec 04       	subl   $0x4,%esp
c0002d12:	b8 00 00 00 00 	movl   $0x0,%eax
c0002d17:	88 c8          	movb   %cl,%al
c0002d19:	50             	pushl  %eax
c0002d1a:	ff 74 24 1c    	pushl  0x1c(%esp,1)
c0002d1e:	53             	pushl  %ebx
c0002d1f:	ff d2          	call   *%edx
c0002d21:	83 c4 10       	addl   $0x10,%esp
c0002d24:	83 c4 08       	addl   $0x8,%esp
c0002d27:	5b             	popl   %ebx
c0002d28:	c3             	ret    

c0002d29 <_io_control>:
c0002d29:	83 ec 0c       	subl   $0xc,%esp
c0002d2c:	8b 4c 24 10    	movl   0x10(%esp,1),%ecx
c0002d30:	8b 01          	movl   (%ecx),%eax
c0002d32:	8b 40 04       	movl   0x4(%eax),%eax
c0002d35:	8b 50 14       	movl   0x14(%eax),%edx
c0002d38:	b8 ff ff ff ff 	movl   $0xffffffff,%eax
c0002d3d:	85 d2          	testl  %edx,%edx
c0002d3f:	74 11          	je     c0002d52 <_io_control+0x29>
c0002d41:	83 ec 04       	subl   $0x4,%esp
c0002d44:	ff 74 24 1c    	pushl  0x1c(%esp,1)
c0002d48:	ff 74 24 1c    	pushl  0x1c(%esp,1)
c0002d4c:	51             	pushl  %ecx
c0002d4d:	ff d2          	call   *%edx
c0002d4f:	83 c4 10       	addl   $0x10,%esp
c0002d52:	83 c4 0c       	addl   $0xc,%esp
c0002d55:	c3             	ret    

c0002d56 <_io_init>:
c0002d56:	83 ec 0c       	subl   $0xc,%esp
c0002d59:	e8 78 e5 ff ff 	call   c00012d6 <_kernel_unlock>
c0002d5e:	e8 86 07 00 00 	call   c00034e9 <_console_init>
c0002d63:	e8 a9 12 00 00 	call   c0004011 <_keyboard_init>
c0002d68:	e8 57 10 00 00 	call   c0003dc4 <_floppy_init>
c0002d6d:	e8 30 00 00 00 	call   c0002da2 <_bitbucket_init>
c0002d72:	e8 52 e5 ff ff 	call   c00012c9 <_kernel_lock>
c0002d77:	83 c4 0c       	addl   $0xc,%esp
c0002d7a:	c3             	ret    
c0002d7b:	90             	nop    
c0002d7c:	90             	nop    
c0002d7d:	90             	nop    
c0002d7e:	90             	nop    
c0002d7f:	90             	nop    
c0002d80:	90             	nop    
c0002d81:	90             	nop    
c0002d82:	90             	nop    
c0002d83:	90             	nop    
c0002d84:	90             	nop    
c0002d85:	90             	nop    
c0002d86:	90             	nop    
c0002d87:	90             	nop    

c0002d88 <_bitbucket_open>:
c0002d88:	8b 44 24 04    	movl   0x4(%esp,1),%eax
c0002d8c:	c3             	ret    

c0002d8d <_bitbucket_close>:
c0002d8d:	b8 00 00 00 00 	movl   $0x0,%eax
c0002d92:	c3             	ret    

c0002d93 <_bitbucket_write>:
c0002d93:	8b 44 24 0c    	movl   0xc(%esp,1),%eax
c0002d97:	c3             	ret    
c0002d98:	62 69 74       	boundl 0x74(%ecx),%ebp
c0002d9b:	62 75 63       	boundl 0x63(%ebp),%esi
c0002d9e:	6b 65 74 00    	imull  $0x0,0x74(%ebp),%esp

c0002da2 <_bitbucket_init>:
c0002da2:	83 ec 18       	subl   $0x18,%esp
c0002da5:	6a 18          	pushl  $0x18
c0002da7:	e8 b3 f0 ff ff 	call   c0001e5f <_mm_malloc>
c0002dac:	c7 00 88 2d 00 	movl   $0xc0002d88,(%eax)
c0002db1:	c0 
c0002db2:	c7 40 04 8d 2d 	movl   $0xc0002d8d,0x4(%eax)
c0002db7:	00 c0 
c0002db9:	c7 40 08 00 00 	movl   $0x0,0x8(%eax)
c0002dbe:	00 00 
c0002dc0:	c7 40 0c 93 2d 	movl   $0xc0002d93,0xc(%eax)
c0002dc5:	00 c0 
c0002dc7:	c7 40 10 00 00 	movl   $0x0,0x10(%eax)
c0002dcc:	00 00 
c0002dce:	c7 40 14 00 00 	movl   $0x0,0x14(%eax)
c0002dd3:	00 00 
c0002dd5:	83 c4 0c       	addl   $0xc,%esp
c0002dd8:	6a 02          	pushl  $0x2
c0002dda:	50             	pushl  %eax
c0002ddb:	68 98 2d 00 c0 	pushl  $0xc0002d98
c0002de0:	e8 f3 fd ff ff 	call   c0002bd8 <_io_add>
c0002de5:	b8 00 00 00 00 	movl   $0x0,%eax
c0002dea:	83 c4 1c       	addl   $0x1c,%esp
c0002ded:	c3             	ret    
c0002dee:	90             	nop    
c0002def:	90             	nop    
c0002df0:	90             	nop    
c0002df1:	90             	nop    
c0002df2:	90             	nop    
c0002df3:	90             	nop    
c0002df4:	90             	nop    
c0002df5:	90             	nop    
c0002df6:	90             	nop    
c0002df7:	90             	nop    

c0002df8 <_console_setCursor>:
c0002df8:	53             	pushl  %ebx
c0002df9:	83 ec 08       	subl   $0x8,%esp
c0002dfc:	8b 44 24 10    	movl   0x10(%esp,1),%eax
c0002e00:	8b 4c 24 14    	movl   0x14(%esp,1),%ecx
c0002e04:	8b 54 24 18    	movl   0x18(%esp,1),%edx
c0002e08:	89 48 10       	movl   %ecx,0x10(%eax)
c0002e0b:	89 50 14       	movl   %edx,0x14(%eax)
c0002e0e:	80 78 08 00    	cmpb   $0x0,0x8(%eax)
c0002e12:	74 4e          	je     c0002e62 <_console_setCursor+0x6a>
c0002e14:	8d 1c 92       	leal   (%edx,%edx,4),%ebx
c0002e17:	c1 e3 04       	shll   $0x4,%ebx
c0002e1a:	01 cb          	addl   %ecx,%ebx
c0002e1c:	83 ec 08       	subl   $0x8,%esp
c0002e1f:	6a 0e          	pushl  $0xe
c0002e21:	68 d4 03 00 00 	pushl  $0x3d4
c0002e26:	e8 94 e4 ff ff 	call   c00012bf <_outportb>
c0002e2b:	83 c4 08       	addl   $0x8,%esp
c0002e2e:	0f b6 c7       	movzbl %bh,%eax
c0002e31:	50             	pushl  %eax
c0002e32:	68 d5 03 00 00 	pushl  $0x3d5
c0002e37:	e8 83 e4 ff ff 	call   c00012bf <_outportb>
c0002e3c:	83 c4 08       	addl   $0x8,%esp
c0002e3f:	6a 0f          	pushl  $0xf
c0002e41:	68 d4 03 00 00 	pushl  $0x3d4
c0002e46:	e8 74 e4 ff ff 	call   c00012bf <_outportb>
c0002e4b:	83 c4 08       	addl   $0x8,%esp
c0002e4e:	81 e3 ff 00 00 	andl   $0xff,%ebx
c0002e53:	00 
c0002e54:	53             	pushl  %ebx
c0002e55:	68 d5 03 00 00 	pushl  $0x3d5
c0002e5a:	e8 60 e4 ff ff 	call   c00012bf <_outportb>
c0002e5f:	83 c4 10       	addl   $0x10,%esp
c0002e62:	83 c4 08       	addl   $0x8,%esp
c0002e65:	5b             	popl   %ebx
c0002e66:	c3             	ret    

c0002e67 <_console_putChar>:
c0002e67:	53             	pushl  %ebx
c0002e68:	8b 54 24 08    	movl   0x8(%esp,1),%edx
c0002e6c:	8b 44 24 10    	movl   0x10(%esp,1),%eax
c0002e70:	8b 5c 24 14    	movl   0x14(%esp,1),%ebx
c0002e74:	8d 04 80       	leal   (%eax,%eax,4),%eax
c0002e77:	c1 e0 04       	shll   $0x4,%eax
c0002e7a:	03 44 24 0c    	addl   0xc(%esp,1),%eax
c0002e7e:	8d 0c 00       	leal   (%eax,%eax,1),%ecx
c0002e81:	8b 42 0c       	movl   0xc(%edx),%eax
c0002e84:	88 1c 08       	movb   %bl,(%eax,%ecx,1)
c0002e87:	8b 42 0c       	movl   0xc(%edx),%eax
c0002e8a:	c6 44 08 01 42 	movb   $0x42,0x1(%eax,%ecx,1)
c0002e8f:	80 7a 08 00    	cmpb   $0x0,0x8(%edx)
c0002e93:	74 0d          	je     c0002ea2 <_console_putChar+0x3b>
c0002e95:	88 99 00 80 0b 	movb   %bl,0xb8000(%ecx)
c0002e9a:	00 
c0002e9b:	c6 81 01 80 0b 	movb   $0x42,0xb8001(%ecx)
c0002ea0:	00 42 
c0002ea2:	5b             	popl   %ebx
c0002ea3:	c3             	ret    

c0002ea4 <_console_beep>:
c0002ea4:	c3             	ret    

c0002ea5 <_console_getChar>:
c0002ea5:	8b 44 24 0c    	movl   0xc(%esp,1),%eax
c0002ea9:	8d 04 80       	leal   (%eax,%eax,4),%eax
c0002eac:	c1 e0 04       	shll   $0x4,%eax
c0002eaf:	03 44 24 08    	addl   0x8(%esp,1),%eax
c0002eb3:	8b 54 24 04    	movl   0x4(%esp,1),%edx
c0002eb7:	8b 52 0c       	movl   0xc(%edx),%edx
c0002eba:	8a 04 42       	movb   (%edx,%eax,2),%al
c0002ebd:	25 ff 00 00 00 	andl   $0xff,%eax
c0002ec2:	c3             	ret    

c0002ec3 <_console_scrollup>:
c0002ec3:	55             	pushl  %ebp
c0002ec4:	57             	pushl  %edi
c0002ec5:	56             	pushl  %esi
c0002ec6:	53             	pushl  %ebx
c0002ec7:	8b 74 24 14    	movl   0x14(%esp,1),%esi
c0002ecb:	bd 03 00 00 00 	movl   $0x3,%ebp
c0002ed0:	8d 7d ff       	leal   0xffffffff(%ebp),%edi
c0002ed3:	bb 00 00 00 00 	movl   $0x0,%ebx
c0002ed8:	55             	pushl  %ebp
c0002ed9:	53             	pushl  %ebx
c0002eda:	56             	pushl  %esi
c0002edb:	e8 c5 ff ff ff 	call   c0002ea5 <_console_getChar>
c0002ee0:	83 c4 0c       	addl   $0xc,%esp
c0002ee3:	25 ff 00 00 00 	andl   $0xff,%eax
c0002ee8:	50             	pushl  %eax
c0002ee9:	57             	pushl  %edi
c0002eea:	53             	pushl  %ebx
c0002eeb:	56             	pushl  %esi
c0002eec:	e8 76 ff ff ff 	call   c0002e67 <_console_putChar>
c0002ef1:	43             	incl   %ebx
c0002ef2:	83 c4 10       	addl   $0x10,%esp
c0002ef5:	83 fb 50       	cmpl   $0x50,%ebx
c0002ef8:	75 de          	jne    c0002ed8 <_console_scrollup+0x15>
c0002efa:	45             	incl   %ebp
c0002efb:	83 fd 19       	cmpl   $0x19,%ebp
c0002efe:	75 d0          	jne    c0002ed0 <_console_scrollup+0xd>
c0002f00:	b3 00          	movb   $0x0,%bl
c0002f02:	6a 20          	pushl  $0x20
c0002f04:	6a 18          	pushl  $0x18
c0002f06:	53             	pushl  %ebx
c0002f07:	56             	pushl  %esi
c0002f08:	e8 5a ff ff ff 	call   c0002e67 <_console_putChar>
c0002f0d:	43             	incl   %ebx
c0002f0e:	83 c4 10       	addl   $0x10,%esp
c0002f11:	83 fb 50       	cmpl   $0x50,%ebx
c0002f14:	75 ec          	jne    c0002f02 <_console_scrollup+0x3f>
c0002f16:	5b             	popl   %ebx
c0002f17:	5e             	popl   %esi
c0002f18:	5f             	popl   %edi
c0002f19:	5d             	popl   %ebp
c0002f1a:	c3             	ret    

c0002f1b <_console_putch>:
c0002f1b:	53             	pushl  %ebx
c0002f1c:	83 ec 08       	subl   $0x8,%esp
c0002f1f:	8b 5c 24 10    	movl   0x10(%esp,1),%ebx
c0002f23:	b8 00 00 00 00 	movl   $0x0,%eax
c0002f28:	8a 44 24 14    	movb   0x14(%esp,1),%al
c0002f2c:	83 f8 0d       	cmpl   $0xd,%eax
c0002f2f:	0f 87 c6 00 00 	ja     c0002ffb <_console_putch+0xe0>
c0002f34:	00 
c0002f35:	ff 24 85 3c 2f 	jmp    *0xc0002f3c(,%eax,4)
c0002f3a:	00 c0 
c0002f3c:	20 30          	andb   %dh,(%eax)
c0002f3e:	00 c0          	addb   %al,%al
c0002f40:	fb             	sti    
c0002f41:	2f             	das    
c0002f42:	00 c0          	addb   %al,%al
c0002f44:	fb             	sti    
c0002f45:	2f             	das    
c0002f46:	00 c0          	addb   %al,%al
c0002f48:	fb             	sti    
c0002f49:	2f             	das    
c0002f4a:	00 c0          	addb   %al,%al
c0002f4c:	fb             	sti    
c0002f4d:	2f             	das    
c0002f4e:	00 c0          	addb   %al,%al
c0002f50:	fb             	sti    
c0002f51:	2f             	das    
c0002f52:	00 c0          	addb   %al,%al
c0002f54:	fb             	sti    
c0002f55:	2f             	das    
c0002f56:	00 c0          	addb   %al,%al
c0002f58:	20 30          	andb   %dh,(%eax)
c0002f5a:	00 c0          	addb   %al,%al
c0002f5c:	e1 2f          	loope  c0002f8d <_console_putch+0x72>
c0002f5e:	00 c0          	addb   %al,%al
c0002f60:	a2 2f 00 c0 74 	movb   %al,0x74c0002f
c0002f65:	2f             	das    
c0002f66:	00 c0          	addb   %al,%al
c0002f68:	fb             	sti    
c0002f69:	2f             	das    
c0002f6a:	00 c0          	addb   %al,%al
c0002f6c:	d3 2f          	shrl   %cl,(%edi)
c0002f6e:	00 c0          	addb   %al,%al
c0002f70:	8f 2f          	popl   (%edi)
c0002f72:	00 c0          	addb   %al,%al
c0002f74:	8b 43 14       	movl   0x14(%ebx),%eax
c0002f77:	40             	incl   %eax
c0002f78:	89 43 14       	movl   %eax,0x14(%ebx)
c0002f7b:	83 ec 04       	subl   $0x4,%esp
c0002f7e:	50             	pushl  %eax
c0002f7f:	6a 00          	pushl  $0x0
c0002f81:	53             	pushl  %ebx
c0002f82:	e8 71 fe ff ff 	call   c0002df8 <_console_setCursor>
c0002f87:	83 c4 10       	addl   $0x10,%esp
c0002f8a:	e9 91 00 00 00 	jmp    c0003020 <_console_putch+0x105>
c0002f8f:	83 ec 04       	subl   $0x4,%esp
c0002f92:	ff 73 14       	pushl  0x14(%ebx)
c0002f95:	6a 00          	pushl  $0x0
c0002f97:	53             	pushl  %ebx
c0002f98:	e8 5b fe ff ff 	call   c0002df8 <_console_setCursor>
c0002f9d:	83 c4 10       	addl   $0x10,%esp
c0002fa0:	eb 7e          	jmp    c0003020 <_console_putch+0x105>
c0002fa2:	83 ec 08       	subl   $0x8,%esp
c0002fa5:	6a 20          	pushl  $0x20
c0002fa7:	53             	pushl  %ebx
c0002fa8:	e8 6e ff ff ff 	call   c0002f1b <_console_putch>
c0002fad:	83 c4 08       	addl   $0x8,%esp
c0002fb0:	6a 20          	pushl  $0x20
c0002fb2:	53             	pushl  %ebx
c0002fb3:	e8 63 ff ff ff 	call   c0002f1b <_console_putch>
c0002fb8:	83 c4 08       	addl   $0x8,%esp
c0002fbb:	6a 20          	pushl  $0x20
c0002fbd:	53             	pushl  %ebx
c0002fbe:	e8 58 ff ff ff 	call   c0002f1b <_console_putch>
c0002fc3:	83 c4 08       	addl   $0x8,%esp
c0002fc6:	6a 20          	pushl  $0x20
c0002fc8:	53             	pushl  %ebx
c0002fc9:	e8 4d ff ff ff 	call   c0002f1b <_console_putch>
c0002fce:	83 c4 10       	addl   $0x10,%esp
c0002fd1:	eb 4d          	jmp    c0003020 <_console_putch+0x105>
c0002fd3:	83 ec 0c       	subl   $0xc,%esp
c0002fd6:	53             	pushl  %ebx
c0002fd7:	e8 8a 00 00 00 	call   c0003066 <_console_cls>
c0002fdc:	83 c4 10       	addl   $0x10,%esp
c0002fdf:	eb 3f          	jmp    c0003020 <_console_putch+0x105>
c0002fe1:	8b 53 14       	movl   0x14(%ebx),%edx
c0002fe4:	8b 43 10       	movl   0x10(%ebx),%eax
c0002fe7:	48             	decl   %eax
c0002fe8:	89 43 10       	movl   %eax,0x10(%ebx)
c0002feb:	83 ec 04       	subl   $0x4,%esp
c0002fee:	52             	pushl  %edx
c0002fef:	50             	pushl  %eax
c0002ff0:	53             	pushl  %ebx
c0002ff1:	e8 02 fe ff ff 	call   c0002df8 <_console_setCursor>
c0002ff6:	83 c4 10       	addl   $0x10,%esp
c0002ff9:	eb 25          	jmp    c0003020 <_console_putch+0x105>
c0002ffb:	50             	pushl  %eax
c0002ffc:	ff 73 14       	pushl  0x14(%ebx)
c0002fff:	ff 73 10       	pushl  0x10(%ebx)
c0003002:	53             	pushl  %ebx
c0003003:	e8 5f fe ff ff 	call   c0002e67 <_console_putChar>
c0003008:	8b 53 14       	movl   0x14(%ebx),%edx
c000300b:	8b 43 10       	movl   0x10(%ebx),%eax
c000300e:	40             	incl   %eax
c000300f:	89 43 10       	movl   %eax,0x10(%ebx)
c0003012:	83 c4 0c       	addl   $0xc,%esp
c0003015:	52             	pushl  %edx
c0003016:	50             	pushl  %eax
c0003017:	53             	pushl  %ebx
c0003018:	e8 db fd ff ff 	call   c0002df8 <_console_setCursor>
c000301d:	83 c4 10       	addl   $0x10,%esp
c0003020:	83 7b 10 4f    	cmpl   $0x4f,0x10(%ebx)
c0003024:	7e 16          	jle    c000303c <_console_putch+0x121>
c0003026:	8b 43 14       	movl   0x14(%ebx),%eax
c0003029:	40             	incl   %eax
c000302a:	89 43 14       	movl   %eax,0x14(%ebx)
c000302d:	83 ec 04       	subl   $0x4,%esp
c0003030:	50             	pushl  %eax
c0003031:	6a 00          	pushl  $0x0
c0003033:	53             	pushl  %ebx
c0003034:	e8 bf fd ff ff 	call   c0002df8 <_console_setCursor>
c0003039:	83 c4 10       	addl   $0x10,%esp
c000303c:	83 7b 14 18    	cmpl   $0x18,0x14(%ebx)
c0003040:	7e 14          	jle    c0003056 <_console_putch+0x13b>
c0003042:	53             	pushl  %ebx
c0003043:	e8 7b fe ff ff 	call   c0002ec3 <_console_scrollup>
c0003048:	6a 18          	pushl  $0x18
c000304a:	ff 73 10       	pushl  0x10(%ebx)
c000304d:	53             	pushl  %ebx
c000304e:	e8 a5 fd ff ff 	call   c0002df8 <_console_setCursor>
c0003053:	83 c4 10       	addl   $0x10,%esp
c0003056:	83 c4 08       	addl   $0x8,%esp
c0003059:	5b             	popl   %ebx
c000305a:	c3             	ret    
c000305b:	41             	incl   %ecx
c000305c:	4d             	decl   %ebp
c000305d:	4f             	decl   %edi
c000305e:	53             	pushl  %ebx
c000305f:	20 30          	andb   %dh,(%eax)
c0003061:	2e 35 2e 30 00 	xorl   $0x5700302e,%eax
c0003066:	57 

c0003066 <_console_cls>:
c0003066:	57             	pushl  %edi
c0003067:	56             	pushl  %esi
c0003068:	53             	pushl  %ebx
c0003069:	8b 7c 24 10    	movl   0x10(%esp,1),%edi
c000306d:	be 00 00 00 00 	movl   $0x0,%esi
c0003072:	bb 00 00 00 00 	movl   $0x0,%ebx
c0003077:	6a 20          	pushl  $0x20
c0003079:	53             	pushl  %ebx
c000307a:	56             	pushl  %esi
c000307b:	57             	pushl  %edi
c000307c:	e8 e6 fd ff ff 	call   c0002e67 <_console_putChar>
c0003081:	43             	incl   %ebx
c0003082:	83 c4 10       	addl   $0x10,%esp
c0003085:	83 fb 19       	cmpl   $0x19,%ebx
c0003088:	75 ed          	jne    c0003077 <_console_cls+0x11>
c000308a:	46             	incl   %esi
c000308b:	83 fe 50       	cmpl   $0x50,%esi
c000308e:	75 e2          	jne    c0003072 <_console_cls+0xc>
c0003090:	83 ec 04       	subl   $0x4,%esp
c0003093:	6a 00          	pushl  $0x0
c0003095:	6a 00          	pushl  $0x0
c0003097:	57             	pushl  %edi
c0003098:	e8 5b fd ff ff 	call   c0002df8 <_console_setCursor>
c000309d:	66 be 00 00    	movw   $0x0,%si
c00030a1:	bb 5b 30 00 c0 	movl   $0xc000305b,%ebx
c00030a6:	83 c4 10       	addl   $0x10,%esp
c00030a9:	eb 16          	jmp    c00030c1 <_console_cls+0x5b>
c00030ab:	83 ec 08       	subl   $0x8,%esp
c00030ae:	b8 00 00 00 00 	movl   $0x0,%eax
c00030b3:	8a 43 ff       	movb   0xffffffff(%ebx),%al
c00030b6:	50             	pushl  %eax
c00030b7:	57             	pushl  %edi
c00030b8:	e8 5e fe ff ff 	call   c0002f1b <_console_putch>
c00030bd:	46             	incl   %esi
c00030be:	83 c4 10       	addl   $0x10,%esp
c00030c1:	83 ec 0c       	subl   $0xc,%esp
c00030c4:	68 5b 30 00 c0 	pushl  $0xc000305b
c00030c9:	e8 ea 2c 00 00 	call   c0005db8 <_strlen>
c00030ce:	43             	incl   %ebx
c00030cf:	83 c4 10       	addl   $0x10,%esp
c00030d2:	39 c6          	cmpl   %eax,%esi
c00030d4:	7c d5          	jl     c00030ab <_console_cls+0x45>
c00030d6:	83 ec 04       	subl   $0x4,%esp
c00030d9:	6a 01          	pushl  $0x1
c00030db:	6a 00          	pushl  $0x0
c00030dd:	57             	pushl  %edi
c00030de:	e8 15 fd ff ff 	call   c0002df8 <_console_setCursor>
c00030e3:	bb 00 00 00 00 	movl   $0x0,%ebx
c00030e8:	83 c4 10       	addl   $0x10,%esp
c00030eb:	83 ec 08       	subl   $0x8,%esp
c00030ee:	6a 2d          	pushl  $0x2d
c00030f0:	57             	pushl  %edi
c00030f1:	e8 25 fe ff ff 	call   c0002f1b <_console_putch>
c00030f6:	43             	incl   %ebx
c00030f7:	83 c4 10       	addl   $0x10,%esp
c00030fa:	83 fb 4a       	cmpl   $0x4a,%ebx
c00030fd:	75 ec          	jne    c00030eb <_console_cls+0x85>
c00030ff:	83 ec 08       	subl   $0x8,%esp
c0003102:	6a 5b          	pushl  $0x5b
c0003104:	57             	pushl  %edi
c0003105:	e8 11 fe ff ff 	call   c0002f1b <_console_putch>
c000310a:	83 c4 08       	addl   $0x8,%esp
c000310d:	8a 47 04       	movb   0x4(%edi),%al
c0003110:	83 c0 30       	addl   $0x30,%eax
c0003113:	25 ff 00 00 00 	andl   $0xff,%eax
c0003118:	50             	pushl  %eax
c0003119:	57             	pushl  %edi
c000311a:	e8 fc fd ff ff 	call   c0002f1b <_console_putch>
c000311f:	83 c4 08       	addl   $0x8,%esp
c0003122:	6a 5d          	pushl  $0x5d
c0003124:	57             	pushl  %edi
c0003125:	e8 f1 fd ff ff 	call   c0002f1b <_console_putch>
c000312a:	b3 03          	movb   $0x3,%bl
c000312c:	83 c4 10       	addl   $0x10,%esp
c000312f:	83 ec 08       	subl   $0x8,%esp
c0003132:	6a 2d          	pushl  $0x2d
c0003134:	57             	pushl  %edi
c0003135:	e8 e1 fd ff ff 	call   c0002f1b <_console_putch>
c000313a:	83 c4 10       	addl   $0x10,%esp
c000313d:	4b             	decl   %ebx
c000313e:	75 ef          	jne    c000312f <_console_cls+0xc9>
c0003140:	83 ec 04       	subl   $0x4,%esp
c0003143:	6a 02          	pushl  $0x2
c0003145:	6a 00          	pushl  $0x0
c0003147:	57             	pushl  %edi
c0003148:	e8 ab fc ff ff 	call   c0002df8 <_console_setCursor>
c000314d:	83 c4 10       	addl   $0x10,%esp
c0003150:	5b             	popl   %ebx
c0003151:	5e             	popl   %esi
c0003152:	5f             	popl   %edi
c0003153:	c3             	ret    

c0003154 <_console_activate>:
c0003154:	53             	pushl  %ebx
c0003155:	83 ec 08       	subl   $0x8,%esp
c0003158:	8b 5c 24 10    	movl   0x10(%esp,1),%ebx
c000315c:	a1 24 80 00 c0 	movl   0xc0008024,%eax
c0003161:	85 c0          	testl  %eax,%eax
c0003163:	74 13          	je     c0003178 <_console_activate+0x24>
c0003165:	8b 08          	movl   (%eax),%ecx
c0003167:	8b 41 04       	movl   0x4(%ecx),%eax
c000316a:	ba ff ff ff ff 	movl   $0xffffffff,%edx
c000316f:	3b 43 04       	cmpl   0x4(%ebx),%eax
c0003172:	74 3b          	je     c00031af <_console_activate+0x5b>
c0003174:	c6 41 08 00    	movb   $0x0,0x8(%ecx)
c0003178:	c6 43 08 01    	movb   $0x1,0x8(%ebx)
c000317c:	83 ec 04       	subl   $0x4,%esp
c000317f:	68 a0 0f 00 00 	pushl  $0xfa0
c0003184:	ff 73 0c       	pushl  0xc(%ebx)
c0003187:	68 00 80 0b 00 	pushl  $0xb8000
c000318c:	e8 a4 2d 00 00 	call   c0005f35 <_memcpy>
c0003191:	83 c4 0c       	addl   $0xc,%esp
c0003194:	ff 73 14       	pushl  0x14(%ebx)
c0003197:	ff 73 10       	pushl  0x10(%ebx)
c000319a:	53             	pushl  %ebx
c000319b:	e8 58 fc ff ff 	call   c0002df8 <_console_setCursor>
c00031a0:	a1 24 80 00 c0 	movl   0xc0008024,%eax
c00031a5:	89 18          	movl   %ebx,(%eax)
c00031a7:	ba 00 00 00 00 	movl   $0x0,%edx
c00031ac:	83 c4 10       	addl   $0x10,%esp
c00031af:	89 d0          	movl   %edx,%eax
c00031b1:	83 c4 08       	addl   $0x8,%esp
c00031b4:	5b             	popl   %ebx
c00031b5:	c3             	ret    

c00031b6 <_console_create>:
c00031b6:	53             	pushl  %ebx
c00031b7:	83 ec 14       	subl   $0x14,%esp
c00031ba:	6a 2c          	pushl  $0x2c
c00031bc:	e8 9e ec ff ff 	call   c0001e5f <_mm_malloc>
c00031c1:	89 c3          	movl   %eax,%ebx
c00031c3:	8b 44 24 20    	movl   0x20(%esp,1),%eax
c00031c7:	89 03          	movl   %eax,(%ebx)
c00031c9:	8b 44 24 24    	movl   0x24(%esp,1),%eax
c00031cd:	89 43 04       	movl   %eax,0x4(%ebx)
c00031d0:	c7 04 24 a0 0f 	movl   $0xfa0,(%esp,1)
c00031d5:	00 00 
c00031d7:	e8 83 ec ff ff 	call   c0001e5f <_mm_malloc>
c00031dc:	89 43 0c       	movl   %eax,0xc(%ebx)
c00031df:	c6 43 08 00    	movb   $0x0,0x8(%ebx)
c00031e3:	c6 43 18 00    	movb   $0x0,0x18(%ebx)
c00031e7:	c6 43 29 00    	movb   $0x0,0x29(%ebx)
c00031eb:	c6 43 28 00    	movb   $0x0,0x28(%ebx)
c00031ef:	89 1c 24       	movl   %ebx,(%esp,1)
c00031f2:	e8 6f fe ff ff 	call   c0003066 <_console_cls>
c00031f7:	89 d8          	movl   %ebx,%eax
c00031f9:	83 c4 18       	addl   $0x18,%esp
c00031fc:	5b             	popl   %ebx
c00031fd:	c3             	ret    
c00031fe:	63 6f 6e       	arpl   %bp,0x6e(%edi)
c0003201:	73 6f          	jae    c0003272 <_console_open+0x6b>
c0003203:	6c             	insb   (%dx),%es:(%edi)
c0003204:	65 30 00       	xorb   %al,%gs:(%eax)

c0003207 <_console_open>:
c0003207:	56             	pushl  %esi
c0003208:	53             	pushl  %ebx
c0003209:	83 ec 0c       	subl   $0xc,%esp
c000320c:	8b 5c 24 18    	movl   0x18(%esp,1),%ebx
c0003210:	8b 74 24 1c    	movl   0x1c(%esp,1),%esi
c0003214:	c7 43 04 01 00 	movl   $0x1,0x4(%ebx)
c0003219:	00 00 
c000321b:	68 fe 31 00 c0 	pushl  $0xc00031fe
c0003220:	56             	pushl  %esi
c0003221:	e8 cd 2b 00 00 	call   c0005df3 <_strcmp>
c0003226:	83 c4 10       	addl   $0x10,%esp
c0003229:	85 c0          	testl  %eax,%eax
c000322b:	75 14          	jne    c0003241 <_console_open+0x3a>
c000322d:	a1 24 80 00 c0 	movl   0xc0008024,%eax
c0003232:	89 43 08       	movl   %eax,0x8(%ebx)
c0003235:	c7 43 04 02 00 	movl   $0x2,0x4(%ebx)
c000323a:	00 00 
c000323c:	e9 89 00 00 00 	jmp    c00032ca <_console_open+0xc3>
c0003241:	83 ec 08       	subl   $0x8,%esp
c0003244:	a1 50 1d 01 c0 	movl   0xc0011d50,%eax
c0003249:	ff 30          	pushl  (%eax)
c000324b:	56             	pushl  %esi
c000324c:	e8 a2 2b 00 00 	call   c0005df3 <_strcmp>
c0003251:	83 c4 10       	addl   $0x10,%esp
c0003254:	85 c0          	testl  %eax,%eax
c0003256:	75 0a          	jne    c0003262 <_console_open+0x5b>
c0003258:	a1 50 1d 01 c0 	movl   0xc0011d50,%eax
c000325d:	89 43 08       	movl   %eax,0x8(%ebx)
c0003260:	eb 68          	jmp    c00032ca <_console_open+0xc3>
c0003262:	83 ec 08       	subl   $0x8,%esp
c0003265:	a1 40 1d 01 c0 	movl   0xc0011d40,%eax
c000326a:	ff 30          	pushl  (%eax)
c000326c:	56             	pushl  %esi
c000326d:	e8 81 2b 00 00 	call   c0005df3 <_strcmp>
c0003272:	83 c4 10       	addl   $0x10,%esp
c0003275:	85 c0          	testl  %eax,%eax
c0003277:	75 0a          	jne    c0003283 <_console_open+0x7c>
c0003279:	a1 40 1d 01 c0 	movl   0xc0011d40,%eax
c000327e:	89 43 08       	movl   %eax,0x8(%ebx)
c0003281:	eb 47          	jmp    c00032ca <_console_open+0xc3>
c0003283:	83 ec 08       	subl   $0x8,%esp
c0003286:	a1 60 1d 01 c0 	movl   0xc0011d60,%eax
c000328b:	ff 30          	pushl  (%eax)
c000328d:	56             	pushl  %esi
c000328e:	e8 60 2b 00 00 	call   c0005df3 <_strcmp>
c0003293:	83 c4 10       	addl   $0x10,%esp
c0003296:	85 c0          	testl  %eax,%eax
c0003298:	75 0a          	jne    c00032a4 <_console_open+0x9d>
c000329a:	a1 60 1d 01 c0 	movl   0xc0011d60,%eax
c000329f:	89 43 08       	movl   %eax,0x8(%ebx)
c00032a2:	eb 26          	jmp    c00032ca <_console_open+0xc3>
c00032a4:	83 ec 08       	subl   $0x8,%esp
c00032a7:	a1 70 1d 01 c0 	movl   0xc0011d70,%eax
c00032ac:	ff 30          	pushl  (%eax)
c00032ae:	56             	pushl  %esi
c00032af:	e8 3f 2b 00 00 	call   c0005df3 <_strcmp>
c00032b4:	83 c4 10       	addl   $0x10,%esp
c00032b7:	85 c0          	testl  %eax,%eax
c00032b9:	74 07          	je     c00032c2 <_console_open+0xbb>
c00032bb:	bb 00 00 00 00 	movl   $0x0,%ebx
c00032c0:	eb 08          	jmp    c00032ca <_console_open+0xc3>
c00032c2:	a1 70 1d 01 c0 	movl   0xc0011d70,%eax
c00032c7:	89 43 08       	movl   %eax,0x8(%ebx)
c00032ca:	89 d8          	movl   %ebx,%eax
c00032cc:	83 c4 04       	addl   $0x4,%esp
c00032cf:	5b             	popl   %ebx
c00032d0:	5e             	popl   %esi
c00032d1:	c3             	ret    

c00032d2 <_console_close>:
c00032d2:	b8 00 00 00 00 	movl   $0x0,%eax
c00032d7:	c3             	ret    

c00032d8 <_console_read>:
c00032d8:	53             	pushl  %ebx
c00032d9:	83 ec 08       	subl   $0x8,%esp
c00032dc:	8b 44 24 10    	movl   0x10(%esp,1),%eax
c00032e0:	8b 50 04       	movl   0x4(%eax),%edx
c00032e3:	83 fa 02       	cmpl   $0x2,%edx
c00032e6:	75 07          	jne    c00032ef <_console_read+0x17>
c00032e8:	8b 40 08       	movl   0x8(%eax),%eax
c00032eb:	8b 18          	movl   (%eax),%ebx
c00032ed:	eb 08          	jmp    c00032f7 <_console_read+0x1f>
c00032ef:	83 fa 01       	cmpl   $0x1,%edx
c00032f2:	75 5b          	jne    c000334f <_console_read+0x77>
c00032f4:	8b 58 08       	movl   0x8(%eax),%ebx
c00032f7:	83 7b 1c 00    	cmpl   $0x0,0x1c(%ebx)
c00032fb:	75 52          	jne    c000334f <_console_read+0x77>
c00032fd:	c7 43 20 00 00 	movl   $0x0,0x20(%ebx)
c0003302:	00 00 
c0003304:	8b 44 24 18    	movl   0x18(%esp,1),%eax
c0003308:	89 43 24       	movl   %eax,0x24(%ebx)
c000330b:	8b 44 24 14    	movl   0x14(%esp,1),%eax
c000330f:	89 43 1c       	movl   %eax,0x1c(%ebx)
c0003312:	8b 53 20       	movl   0x20(%ebx),%edx
c0003315:	8b 43 24       	movl   0x24(%ebx),%eax
c0003318:	39 c2          	cmpl   %eax,%edx
c000331a:	7c 3a          	jl     c0003356 <_console_read+0x7e>
c000331c:	eb 16          	jmp    c0003334 <_console_read+0x5c>
c000331e:	8a 43 29       	movb   0x29(%ebx),%al
c0003321:	3c 01          	cmpb   $0x1,%al
c0003323:	74 0f          	je     c0003334 <_console_read+0x5c>
c0003325:	e8 74 f7 ff ff 	call   c0002a9e <_scheduler_idle>
c000332a:	8b 53 20       	movl   0x20(%ebx),%edx
c000332d:	8b 43 24       	movl   0x24(%ebx),%eax
c0003330:	39 c2          	cmpl   %eax,%edx
c0003332:	7c ea          	jl     c000331e <_console_read+0x46>
c0003334:	c7 43 1c 00 00 	movl   $0x0,0x1c(%ebx)
c0003339:	00 00 
c000333b:	c6 43 29 00    	movb   $0x0,0x29(%ebx)
c000333f:	8a 43 28       	movb   0x28(%ebx),%al
c0003342:	84 c0          	testb  %al,%al
c0003344:	74 04          	je     c000334a <_console_read+0x72>
c0003346:	c6 43 28 00    	movb   $0x0,0x28(%ebx)
c000334a:	8b 43 20       	movl   0x20(%ebx),%eax
c000334d:	eb 10          	jmp    c000335f <_console_read+0x87>
c000334f:	b8 ff ff ff ff 	movl   $0xffffffff,%eax
c0003354:	eb 09          	jmp    c000335f <_console_read+0x87>
c0003356:	8a 43 29       	movb   0x29(%ebx),%al
c0003359:	3c 01          	cmpb   $0x1,%al
c000335b:	75 c8          	jne    c0003325 <_console_read+0x4d>
c000335d:	eb d5          	jmp    c0003334 <_console_read+0x5c>
c000335f:	83 c4 08       	addl   $0x8,%esp
c0003362:	5b             	popl   %ebx
c0003363:	c3             	ret    

c0003364 <_console_write>:
c0003364:	55             	pushl  %ebp
c0003365:	57             	pushl  %edi
c0003366:	56             	pushl  %esi
c0003367:	53             	pushl  %ebx
c0003368:	83 ec 0c       	subl   $0xc,%esp
c000336b:	8b 44 24 20    	movl   0x20(%esp,1),%eax
c000336f:	8b 6c 24 24    	movl   0x24(%esp,1),%ebp
c0003373:	8b 7c 24 28    	movl   0x28(%esp,1),%edi
c0003377:	8b 50 04       	movl   0x4(%eax),%edx
c000337a:	83 fa 02       	cmpl   $0x2,%edx
c000337d:	75 10          	jne    c000338f <_console_write+0x2b>
c000337f:	8b 40 08       	movl   0x8(%eax),%eax
c0003382:	8b 30          	movl   (%eax),%esi
c0003384:	bb 00 00 00 00 	movl   $0x0,%ebx
c0003389:	85 ff          	testl  %edi,%edi
c000338b:	74 31          	je     c00033be <_console_write+0x5a>
c000338d:	eb 0f          	jmp    c000339e <_console_write+0x3a>
c000338f:	bb ff ff ff ff 	movl   $0xffffffff,%ebx
c0003394:	83 fa 01       	cmpl   $0x1,%edx
c0003397:	75 25          	jne    c00033be <_console_write+0x5a>
c0003399:	8b 70 08       	movl   0x8(%eax),%esi
c000339c:	eb e6          	jmp    c0003384 <_console_write+0x20>
c000339e:	bb 00 00 00 00 	movl   $0x0,%ebx
c00033a3:	b8 00 00 00 00 	movl   $0x0,%eax
c00033a8:	8a 44 1d 00    	movb   0x0(%ebp,%ebx,1),%al
c00033ac:	43             	incl   %ebx
c00033ad:	83 ec 08       	subl   $0x8,%esp
c00033b0:	50             	pushl  %eax
c00033b1:	56             	pushl  %esi
c00033b2:	e8 64 fb ff ff 	call   c0002f1b <_console_putch>
c00033b7:	83 c4 10       	addl   $0x10,%esp
c00033ba:	39 df          	cmpl   %ebx,%edi
c00033bc:	75 e5          	jne    c00033a3 <_console_write+0x3f>
c00033be:	89 d8          	movl   %ebx,%eax
c00033c0:	83 c4 0c       	addl   $0xc,%esp
c00033c3:	5b             	popl   %ebx
c00033c4:	5e             	popl   %esi
c00033c5:	5f             	popl   %edi
c00033c6:	5d             	popl   %ebp
c00033c7:	c3             	ret    

c00033c8 <_console_control>:
c00033c8:	53             	pushl  %ebx
c00033c9:	83 ec 08       	subl   $0x8,%esp
c00033cc:	8b 44 24 10    	movl   0x10(%esp,1),%eax
c00033d0:	8b 54 24 14    	movl   0x14(%esp,1),%edx
c00033d4:	83 78 04 02    	cmpl   $0x2,0x4(%eax)
c00033d8:	75 07          	jne    c00033e1 <_console_control+0x19>
c00033da:	8b 40 08       	movl   0x8(%eax),%eax
c00033dd:	8b 18          	movl   (%eax),%ebx
c00033df:	eb 0d          	jmp    c00033ee <_console_control+0x26>
c00033e1:	83 78 04 01    	cmpl   $0x1,0x4(%eax)
c00033e5:	0f 85 c9 00 00 	jne    c00034b4 <_console_control+0xec>
c00033ea:	00 
c00033eb:	8b 58 08       	movl   0x8(%eax),%ebx
c00033ee:	83 fa 02       	cmpl   $0x2,%edx
c00033f1:	74 53          	je     c0003446 <_console_control+0x7e>
c00033f3:	83 fa 02       	cmpl   $0x2,%edx
c00033f6:	77 0b          	ja     c0003403 <_console_control+0x3b>
c00033f8:	83 fa 01       	cmpl   $0x1,%edx
c00033fb:	0f 85 b3 00 00 	jne    c00034b4 <_console_control+0xec>
c0003400:	00 
c0003401:	eb 35          	jmp    c0003438 <_console_control+0x70>
c0003403:	83 fa 03       	cmpl   $0x3,%edx
c0003406:	0f 84 9a 00 00 	je     c00034a6 <_console_control+0xde>
c000340b:	00 
c000340c:	83 fa 04       	cmpl   $0x4,%edx
c000340f:	0f 85 9f 00 00 	jne    c00034b4 <_console_control+0xec>
c0003414:	00 
c0003415:	80 7c 24 18 01 	cmpb   $0x1,0x18(%esp,1)
c000341a:	75 0e          	jne    c000342a <_console_control+0x62>
c000341c:	c6 43 18 01    	movb   $0x1,0x18(%ebx)
c0003420:	b8 00 00 00 00 	movl   $0x0,%eax
c0003425:	e9 96 00 00 00 	jmp    c00034c0 <_console_control+0xf8>
c000342a:	c6 43 18 00    	movb   $0x0,0x18(%ebx)
c000342e:	b8 00 00 00 00 	movl   $0x0,%eax
c0003433:	e9 88 00 00 00 	jmp    c00034c0 <_console_control+0xf8>
c0003438:	83 ec 0c       	subl   $0xc,%esp
c000343b:	53             	pushl  %ebx
c000343c:	e8 13 fd ff ff 	call   c0003154 <_console_activate>
c0003441:	83 c4 10       	addl   $0x10,%esp
c0003444:	eb 7a          	jmp    c00034c0 <_console_control+0xf8>
c0003446:	80 7b 18 00    	cmpb   $0x0,0x18(%ebx)
c000344a:	74 16          	je     c0003462 <_console_control+0x9a>
c000344c:	83 ec 08       	subl   $0x8,%esp
c000344f:	b8 00 00 00 00 	movl   $0x0,%eax
c0003454:	8a 44 24 20    	movb   0x20(%esp,1),%al
c0003458:	50             	pushl  %eax
c0003459:	53             	pushl  %ebx
c000345a:	e8 bc fa ff ff 	call   c0002f1b <_console_putch>
c000345f:	83 c4 10       	addl   $0x10,%esp
c0003462:	83 7b 1c 00    	cmpl   $0x0,0x1c(%ebx)
c0003466:	74 53          	je     c00034bb <_console_control+0xf3>
c0003468:	8a 43 28       	movb   0x28(%ebx),%al
c000346b:	84 c0          	testb  %al,%al
c000346d:	74 14          	je     c0003483 <_console_control+0xbb>
c000346f:	8a 43 28       	movb   0x28(%ebx),%al
c0003472:	3a 44 24 18    	cmpb   0x18(%esp,1),%al
c0003476:	75 0b          	jne    c0003483 <_console_control+0xbb>
c0003478:	c6 43 29 01    	movb   $0x1,0x29(%ebx)
c000347c:	b8 ff ff ff ff 	movl   $0xffffffff,%eax
c0003481:	eb 3d          	jmp    c00034c0 <_console_control+0xf8>
c0003483:	8b 53 20       	movl   0x20(%ebx),%edx
c0003486:	8b 43 24       	movl   0x24(%ebx),%eax
c0003489:	39 c2          	cmpl   %eax,%edx
c000348b:	7d 2e          	jnl    c00034bb <_console_control+0xf3>
c000348d:	8b 43 20       	movl   0x20(%ebx),%eax
c0003490:	8b 53 1c       	movl   0x1c(%ebx),%edx
c0003493:	01 c2          	addl   %eax,%edx
c0003495:	8a 4c 24 18    	movb   0x18(%esp,1),%cl
c0003499:	88 0a          	movb   %cl,(%edx)
c000349b:	40             	incl   %eax
c000349c:	89 43 20       	movl   %eax,0x20(%ebx)
c000349f:	b8 00 00 00 00 	movl   $0x0,%eax
c00034a4:	eb 1a          	jmp    c00034c0 <_console_control+0xf8>
c00034a6:	8a 44 24 18    	movb   0x18(%esp,1),%al
c00034aa:	88 43 28       	movb   %al,0x28(%ebx)
c00034ad:	b8 00 00 00 00 	movl   $0x0,%eax
c00034b2:	eb 0c          	jmp    c00034c0 <_console_control+0xf8>
c00034b4:	b8 ff ff ff ff 	movl   $0xffffffff,%eax
c00034b9:	eb 05          	jmp    c00034c0 <_console_control+0xf8>
c00034bb:	b8 00 00 00 00 	movl   $0x0,%eax
c00034c0:	83 c4 08       	addl   $0x8,%esp
c00034c3:	5b             	popl   %ebx
c00034c4:	c3             	ret    
c00034c5:	63 6f 6e       	arpl   %bp,0x6e(%edi)
c00034c8:	73 6f          	jae    c0003539 <_console_init+0x50>
c00034ca:	6c             	insb   (%dx),%es:(%edi)
c00034cb:	65 31 00       	xorl   %eax,%gs:(%eax)
c00034ce:	63 6f 6e       	arpl   %bp,0x6e(%edi)
c00034d1:	73 6f          	jae    c0003542 <_console_init+0x59>
c00034d3:	6c             	insb   (%dx),%es:(%edi)
c00034d4:	65 32 00       	xorb   %gs:(%eax),%al
c00034d7:	63 6f 6e       	arpl   %bp,0x6e(%edi)
c00034da:	73 6f          	jae    c000354b <_console_init+0x62>
c00034dc:	6c             	insb   (%dx),%es:(%edi)
c00034dd:	65 33 00       	xorl   %gs:(%eax),%eax
c00034e0:	63 6f 6e       	arpl   %bp,0x6e(%edi)
c00034e3:	73 6f          	jae    c0003554 <_console_init+0x6b>
c00034e5:	6c             	insb   (%dx),%es:(%edi)
c00034e6:	65 34 00       	xorb   $0x0,%al

c00034e9 <_console_init>:
c00034e9:	53             	pushl  %ebx
c00034ea:	83 ec 14       	subl   $0x14,%esp
c00034ed:	6a 18          	pushl  $0x18
c00034ef:	e8 6b e9 ff ff 	call   c0001e5f <_mm_malloc>
c00034f4:	89 c3          	movl   %eax,%ebx
c00034f6:	c7 00 07 32 00 	movl   $0xc0003207,(%eax)
c00034fb:	c0 
c00034fc:	c7 40 04 d2 32 	movl   $0xc00032d2,0x4(%eax)
c0003501:	00 c0 
c0003503:	c7 40 08 d8 32 	movl   $0xc00032d8,0x8(%eax)
c0003508:	00 c0 
c000350a:	c7 40 0c 64 33 	movl   $0xc0003364,0xc(%eax)
c000350f:	00 c0 
c0003511:	c7 40 10 00 00 	movl   $0x0,0x10(%eax)
c0003516:	00 00 
c0003518:	c7 40 14 c8 33 	movl   $0xc00033c8,0x14(%eax)
c000351d:	00 c0 
c000351f:	83 c4 08       	addl   $0x8,%esp
c0003522:	6a 01          	pushl  $0x1
c0003524:	68 c5 34 00 c0 	pushl  $0xc00034c5
c0003529:	e8 88 fc ff ff 	call   c00031b6 <_console_create>
c000352e:	a3 50 1d 01 c0 	movl   %eax,0xc0011d50
c0003533:	83 c4 0c       	addl   $0xc,%esp
c0003536:	6a 02          	pushl  $0x2
c0003538:	53             	pushl  %ebx
c0003539:	ff 30          	pushl  (%eax)
c000353b:	e8 98 f6 ff ff 	call   c0002bd8 <_io_add>
c0003540:	83 c4 08       	addl   $0x8,%esp
c0003543:	6a 02          	pushl  $0x2
c0003545:	68 ce 34 00 c0 	pushl  $0xc00034ce
c000354a:	e8 67 fc ff ff 	call   c00031b6 <_console_create>
c000354f:	a3 40 1d 01 c0 	movl   %eax,0xc0011d40
c0003554:	83 c4 0c       	addl   $0xc,%esp
c0003557:	6a 02          	pushl  $0x2
c0003559:	53             	pushl  %ebx
c000355a:	ff 30          	pushl  (%eax)
c000355c:	e8 77 f6 ff ff 	call   c0002bd8 <_io_add>
c0003561:	83 c4 08       	addl   $0x8,%esp
c0003564:	6a 03          	pushl  $0x3
c0003566:	68 d7 34 00 c0 	pushl  $0xc00034d7
c000356b:	e8 46 fc ff ff 	call   c00031b6 <_console_create>
c0003570:	a3 60 1d 01 c0 	movl   %eax,0xc0011d60
c0003575:	83 c4 0c       	addl   $0xc,%esp
c0003578:	6a 02          	pushl  $0x2
c000357a:	53             	pushl  %ebx
c000357b:	ff 30          	pushl  (%eax)
c000357d:	e8 56 f6 ff ff 	call   c0002bd8 <_io_add>
c0003582:	83 c4 08       	addl   $0x8,%esp
c0003585:	6a 04          	pushl  $0x4
c0003587:	68 e0 34 00 c0 	pushl  $0xc00034e0
c000358c:	e8 25 fc ff ff 	call   c00031b6 <_console_create>
c0003591:	a3 70 1d 01 c0 	movl   %eax,0xc0011d70
c0003596:	83 c4 0c       	addl   $0xc,%esp
c0003599:	6a 02          	pushl  $0x2
c000359b:	53             	pushl  %ebx
c000359c:	ff 30          	pushl  (%eax)
c000359e:	e8 35 f6 ff ff 	call   c0002bd8 <_io_add>
c00035a3:	83 c4 04       	addl   $0x4,%esp
c00035a6:	ff 35 50 1d 01 	pushl  0xc0011d50
c00035ab:	c0 
c00035ac:	e8 a3 fb ff ff 	call   c0003154 <_console_activate>
c00035b1:	83 c4 0c       	addl   $0xc,%esp
c00035b4:	6a 02          	pushl  $0x2
c00035b6:	53             	pushl  %ebx
c00035b7:	68 fe 31 00 c0 	pushl  $0xc00031fe
c00035bc:	e8 17 f6 ff ff 	call   c0002bd8 <_io_add>
c00035c1:	b8 00 00 00 00 	movl   $0x0,%eax
c00035c6:	83 c4 18       	addl   $0x18,%esp
c00035c9:	5b             	popl   %ebx
c00035ca:	c3             	ret    
c00035cb:	90             	nop    
c00035cc:	90             	nop    
c00035cd:	90             	nop    
c00035ce:	90             	nop    
c00035cf:	90             	nop    
c00035d0:	90             	nop    
c00035d1:	90             	nop    
c00035d2:	90             	nop    
c00035d3:	90             	nop    
c00035d4:	90             	nop    
c00035d5:	90             	nop    
c00035d6:	90             	nop    
c00035d7:	90             	nop    

c00035d8 <_floppy_sendbyte>:
c00035d8:	57             	pushl  %edi
c00035d9:	56             	pushl  %esi
c00035da:	53             	pushl  %ebx
c00035db:	8b 74 24 10    	movl   0x10(%esp,1),%esi
c00035df:	0f b6 7c 24 14 	movzbl 0x14(%esp,1),%edi
c00035e4:	bb 80 00 00 00 	movl   $0x80,%ebx
c00035e9:	83 ec 0c       	subl   $0xc,%esp
c00035ec:	66 8b 46 06    	movw   0x6(%esi),%ax
c00035f0:	83 c0 04       	addl   $0x4,%eax
c00035f3:	25 ff ff 00 00 	andl   $0xffff,%eax
c00035f8:	50             	pushl  %eax
c00035f9:	e8 b6 dc ff ff 	call   c00012b4 <_inportb>
c00035fe:	83 e0 c0       	andl   $0xffffffc0,%eax
c0003601:	83 c4 10       	addl   $0x10,%esp
c0003604:	3c 80          	cmpb   $0x80,%al
c0003606:	75 22          	jne    c000362a <_floppy_sendbyte+0x52>
c0003608:	83 ec 08       	subl   $0x8,%esp
c000360b:	89 f8          	movl   %edi,%eax
c000360d:	25 ff 00 00 00 	andl   $0xff,%eax
c0003612:	50             	pushl  %eax
c0003613:	66 8b 46 06    	movw   0x6(%esi),%ax
c0003617:	83 c0 05       	addl   $0x5,%eax
c000361a:	25 ff ff 00 00 	andl   $0xffff,%eax
c000361f:	50             	pushl  %eax
c0003620:	e8 9a dc ff ff 	call   c00012bf <_outportb>
c0003625:	83 c4 10       	addl   $0x10,%esp
c0003628:	eb 13          	jmp    c000363d <_floppy_sendbyte+0x65>
c000362a:	83 ec 0c       	subl   $0xc,%esp
c000362d:	68 80 00 00 00 	pushl  $0x80
c0003632:	e8 7d dc ff ff 	call   c00012b4 <_inportb>
c0003637:	83 c4 10       	addl   $0x10,%esp
c000363a:	4b             	decl   %ebx
c000363b:	75 ac          	jne    c00035e9 <_floppy_sendbyte+0x11>
c000363d:	5b             	popl   %ebx
c000363e:	5e             	popl   %esi
c000363f:	5f             	popl   %edi
c0003640:	c3             	ret    

c0003641 <_floppy_getbyte>:
c0003641:	56             	pushl  %esi
c0003642:	53             	pushl  %ebx
c0003643:	83 ec 04       	subl   $0x4,%esp
c0003646:	8b 74 24 10    	movl   0x10(%esp,1),%esi
c000364a:	bb 7f 00 00 00 	movl   $0x7f,%ebx
c000364f:	83 ec 0c       	subl   $0xc,%esp
c0003652:	66 8b 46 06    	movw   0x6(%esi),%ax
c0003656:	83 c0 04       	addl   $0x4,%eax
c0003659:	25 ff ff 00 00 	andl   $0xffff,%eax
c000365e:	50             	pushl  %eax
c000365f:	e8 50 dc ff ff 	call   c00012b4 <_inportb>
c0003664:	83 e0 c0       	andl   $0xffffffc0,%eax
c0003667:	83 c4 10       	addl   $0x10,%esp
c000366a:	3c c0          	cmpb   $0xc0,%al
c000366c:	75 1f          	jne    c000368d <_floppy_getbyte+0x4c>
c000366e:	83 ec 0c       	subl   $0xc,%esp
c0003671:	66 8b 46 06    	movw   0x6(%esi),%ax
c0003675:	83 c0 05       	addl   $0x5,%eax
c0003678:	25 ff ff 00 00 	andl   $0xffff,%eax
c000367d:	50             	pushl  %eax
c000367e:	e8 31 dc ff ff 	call   c00012b4 <_inportb>
c0003683:	25 ff 00 00 00 	andl   $0xff,%eax
c0003688:	83 c4 10       	addl   $0x10,%esp
c000368b:	eb 1b          	jmp    c00036a8 <_floppy_getbyte+0x67>
c000368d:	83 ec 0c       	subl   $0xc,%esp
c0003690:	68 80 00 00 00 	pushl  $0x80
c0003695:	e8 1a dc ff ff 	call   c00012b4 <_inportb>
c000369a:	4b             	decl   %ebx
c000369b:	83 c4 10       	addl   $0x10,%esp
c000369e:	83 fb ff       	cmpl   $0xffffffff,%ebx
c00036a1:	75 ac          	jne    c000364f <_floppy_getbyte+0xe>
c00036a3:	b8 ff 00 00 00 	movl   $0xff,%eax
c00036a8:	83 c4 04       	addl   $0x4,%esp
c00036ab:	5b             	popl   %ebx
c00036ac:	5e             	popl   %esi
c00036ad:	c3             	ret    

c00036ae <_floppy_on>:
c00036ae:	83 ec 0c       	subl   $0xc,%esp
c00036b1:	8b 44 24 10    	movl   0x10(%esp,1),%eax
c00036b5:	66 8b 50 06    	movw   0x6(%eax),%dx
c00036b9:	66 81 fa f0 03 	cmpw   $0x3f0,%dx
c00036be:	0f 95 c1       	setne  %cl
c00036c1:	88 c8          	movb   %cl,%al
c00036c3:	83 c8 0c       	orl    $0xc,%eax
c00036c6:	66 81 fa f0 03 	cmpw   $0x3f0,%dx
c00036cb:	75 07          	jne    c00036d4 <_floppy_on+0x26>
c00036cd:	88 c8          	movb   %cl,%al
c00036cf:	83 c8 1c       	orl    $0x1c,%eax
c00036d2:	eb 03          	jmp    c00036d7 <_floppy_on+0x29>
c00036d4:	83 c8 20       	orl    $0x20,%eax
c00036d7:	83 ec 08       	subl   $0x8,%esp
c00036da:	25 ff 00 00 00 	andl   $0xff,%eax
c00036df:	50             	pushl  %eax
c00036e0:	8d 42 02       	leal   0x2(%edx),%eax
c00036e3:	25 ff ff 00 00 	andl   $0xffff,%eax
c00036e8:	50             	pushl  %eax
c00036e9:	e8 d1 db ff ff 	call   c00012bf <_outportb>
c00036ee:	b8 01 00 00 00 	movl   $0x1,%eax
c00036f3:	83 c4 1c       	addl   $0x1c,%esp
c00036f6:	c3             	ret    

c00036f7 <_floppy_off>:
c00036f7:	83 ec 14       	subl   $0x14,%esp
c00036fa:	8b 44 24 18    	movl   0x18(%esp,1),%eax
c00036fe:	66 8b 50 06    	movw   0x6(%eax),%dx
c0003702:	66 81 fa f0 03 	cmpw   $0x3f0,%dx
c0003707:	0f 95 c0       	setne  %al
c000370a:	83 c8 0c       	orl    $0xc,%eax
c000370d:	25 ff 00 00 00 	andl   $0xff,%eax
c0003712:	50             	pushl  %eax
c0003713:	83 c2 02       	addl   $0x2,%edx
c0003716:	81 e2 ff ff 00 	andl   $0xffff,%edx
c000371b:	00 
c000371c:	52             	pushl  %edx
c000371d:	e8 9d db ff ff 	call   c00012bf <_outportb>
c0003722:	b8 01 00 00 00 	movl   $0x1,%eax
c0003727:	83 c4 1c       	addl   $0x1c,%esp
c000372a:	c3             	ret    

c000372b <_floppy_handler>:
c000372b:	c6 05 30 80 00 	movb   $0x1,0xc0008030
c0003730:	c0 01 
c0003732:	b8 00 00 00 00 	movl   $0x0,%eax
c0003737:	c3             	ret    

c0003738 <_floppy_wait>:
c0003738:	56             	pushl  %esi
c0003739:	53             	pushl  %ebx
c000373a:	83 ec 04       	subl   $0x4,%esp
c000373d:	8b 74 24 10    	movl   0x10(%esp,1),%esi
c0003741:	8a 5c 24 14    	movb   0x14(%esp,1),%bl
c0003745:	a0 30 80 00 c0 	movb   0xc0008030,%al
c000374a:	3c 01          	cmpb   $0x1,%al
c000374c:	74 0e          	je     c000375c <_floppy_wait+0x24>
c000374e:	e8 4b f3 ff ff 	call   c0002a9e <_scheduler_idle>
c0003753:	a0 30 80 00 c0 	movb   0xc0008030,%al
c0003758:	3c 01          	cmpb   $0x1,%al
c000375a:	75 f2          	jne    c000374e <_floppy_wait+0x16>
c000375c:	c6 05 30 80 00 	movb   $0x0,0xc0008030
c0003761:	c0 00 
c0003763:	84 db          	testb  %bl,%bl
c0003765:	74 24          	je     c000378b <_floppy_wait+0x53>
c0003767:	83 ec 08       	subl   $0x8,%esp
c000376a:	6a 08          	pushl  $0x8
c000376c:	56             	pushl  %esi
c000376d:	e8 66 fe ff ff 	call   c00035d8 <_floppy_sendbyte>
c0003772:	89 34 24       	movl   %esi,(%esp,1)
c0003775:	e8 c7 fe ff ff 	call   c0003641 <_floppy_getbyte>
c000377a:	88 46 0d       	movb   %al,0xd(%esi)
c000377d:	89 34 24       	movl   %esi,(%esp,1)
c0003780:	e8 bc fe ff ff 	call   c0003641 <_floppy_getbyte>
c0003785:	88 46 0c       	movb   %al,0xc(%esi)
c0003788:	83 c4 10       	addl   $0x10,%esp
c000378b:	b8 01 00 00 00 	movl   $0x1,%eax
c0003790:	83 c4 04       	addl   $0x4,%esp
c0003793:	5b             	popl   %ebx
c0003794:	5e             	popl   %esi
c0003795:	c3             	ret    

c0003796 <_floppy_recalibrate>:
c0003796:	53             	pushl  %ebx
c0003797:	83 ec 14       	subl   $0x14,%esp
c000379a:	8b 5c 24 1c    	movl   0x1c(%esp,1),%ebx
c000379e:	53             	pushl  %ebx
c000379f:	e8 0a ff ff ff 	call   c00036ae <_floppy_on>
c00037a4:	83 c4 08       	addl   $0x8,%esp
c00037a7:	6a 07          	pushl  $0x7
c00037a9:	53             	pushl  %ebx
c00037aa:	e8 29 fe ff ff 	call   c00035d8 <_floppy_sendbyte>
c00037af:	83 c4 08       	addl   $0x8,%esp
c00037b2:	66 81 7b 06 f0 	cmpw   $0x3f0,0x6(%ebx)
c00037b7:	03 
c00037b8:	0f 95 c0       	setne  %al
c00037bb:	25 ff 00 00 00 	andl   $0xff,%eax
c00037c0:	50             	pushl  %eax
c00037c1:	53             	pushl  %ebx
c00037c2:	e8 11 fe ff ff 	call   c00035d8 <_floppy_sendbyte>
c00037c7:	83 c4 08       	addl   $0x8,%esp
c00037ca:	6a 01          	pushl  $0x1
c00037cc:	53             	pushl  %ebx
c00037cd:	e8 66 ff ff ff 	call   c0003738 <_floppy_wait>
c00037d2:	89 1c 24       	movl   %ebx,(%esp,1)
c00037d5:	e8 1d ff ff ff 	call   c00036f7 <_floppy_off>
c00037da:	b8 01 00 00 00 	movl   $0x1,%eax
c00037df:	83 c4 18       	addl   $0x18,%esp
c00037e2:	5b             	popl   %ebx
c00037e3:	c3             	ret    

c00037e4 <_floppy_seekcylinder>:
c00037e4:	56             	pushl  %esi
c00037e5:	53             	pushl  %ebx
c00037e6:	83 ec 04       	subl   $0x4,%esp
c00037e9:	8b 5c 24 10    	movl   0x10(%esp,1),%ebx
c00037ed:	0f b6 74 24 14 	movzbl 0x14(%esp,1),%esi
c00037f2:	89 f0          	movl   %esi,%eax
c00037f4:	38 43 0c       	cmpb   %al,0xc(%ebx)
c00037f7:	74 4e          	je     c0003847 <_floppy_seekcylinder+0x63>
c00037f9:	83 ec 08       	subl   $0x8,%esp
c00037fc:	6a 0f          	pushl  $0xf
c00037fe:	53             	pushl  %ebx
c00037ff:	e8 d4 fd ff ff 	call   c00035d8 <_floppy_sendbyte>
c0003804:	83 c4 08       	addl   $0x8,%esp
c0003807:	66 81 7b 06 f0 	cmpw   $0x3f0,0x6(%ebx)
c000380c:	03 
c000380d:	0f 95 c0       	setne  %al
c0003810:	25 ff 00 00 00 	andl   $0xff,%eax
c0003815:	50             	pushl  %eax
c0003816:	53             	pushl  %ebx
c0003817:	e8 bc fd ff ff 	call   c00035d8 <_floppy_sendbyte>
c000381c:	83 c4 08       	addl   $0x8,%esp
c000381f:	89 f0          	movl   %esi,%eax
c0003821:	25 ff 00 00 00 	andl   $0xff,%eax
c0003826:	50             	pushl  %eax
c0003827:	53             	pushl  %ebx
c0003828:	e8 ab fd ff ff 	call   c00035d8 <_floppy_sendbyte>
c000382d:	83 c4 08       	addl   $0x8,%esp
c0003830:	6a 01          	pushl  $0x1
c0003832:	53             	pushl  %ebx
c0003833:	e8 00 ff ff ff 	call   c0003738 <_floppy_wait>
c0003838:	83 c4 10       	addl   $0x10,%esp
c000383b:	b8 00 00 00 00 	movl   $0x0,%eax
c0003840:	89 f2          	movl   %esi,%edx
c0003842:	3a 53 0c       	cmpb   0xc(%ebx),%dl
c0003845:	75 05          	jne    c000384c <_floppy_seekcylinder+0x68>
c0003847:	b8 01 00 00 00 	movl   $0x1,%eax
c000384c:	83 c4 04       	addl   $0x4,%esp
c000384f:	5b             	popl   %ebx
c0003850:	5e             	popl   %esi
c0003851:	c3             	ret    

c0003852 <_floppy_reset>:
c0003852:	53             	pushl  %ebx
c0003853:	83 ec 10       	subl   $0x10,%esp
c0003856:	8b 5c 24 18    	movl   0x18(%esp,1),%ebx
c000385a:	6a 00          	pushl  $0x0
c000385c:	66 8b 43 06    	movw   0x6(%ebx),%ax
c0003860:	83 c0 02       	addl   $0x2,%eax
c0003863:	25 ff ff 00 00 	andl   $0xffff,%eax
c0003868:	50             	pushl  %eax
c0003869:	e8 51 da ff ff 	call   c00012bf <_outportb>
c000386e:	83 c4 08       	addl   $0x8,%esp
c0003871:	6a 0c          	pushl  $0xc
c0003873:	66 8b 43 06    	movw   0x6(%ebx),%ax
c0003877:	83 c0 02       	addl   $0x2,%eax
c000387a:	25 ff ff 00 00 	andl   $0xffff,%eax
c000387f:	50             	pushl  %eax
c0003880:	e8 3a da ff ff 	call   c00012bf <_outportb>
c0003885:	83 c4 08       	addl   $0x8,%esp
c0003888:	6a 01          	pushl  $0x1
c000388a:	53             	pushl  %ebx
c000388b:	e8 a8 fe ff ff 	call   c0003738 <_floppy_wait>
c0003890:	83 c4 08       	addl   $0x8,%esp
c0003893:	6a 00          	pushl  $0x0
c0003895:	66 8b 43 06    	movw   0x6(%ebx),%ax
c0003899:	83 c0 07       	addl   $0x7,%eax
c000389c:	25 ff ff 00 00 	andl   $0xffff,%eax
c00038a1:	50             	pushl  %eax
c00038a2:	e8 18 da ff ff 	call   c00012bf <_outportb>
c00038a7:	89 1c 24       	movl   %ebx,(%esp,1)
c00038aa:	e8 e7 fe ff ff 	call   c0003796 <_floppy_recalibrate>
c00038af:	b8 01 00 00 00 	movl   $0x1,%eax
c00038b4:	83 c4 18       	addl   $0x18,%esp
c00038b7:	5b             	popl   %ebx
c00038b8:	c3             	ret    

c00038b9 <_floppy_blockGeometry>:
c00038b9:	57             	pushl  %edi
c00038ba:	56             	pushl  %esi
c00038bb:	53             	pushl  %ebx
c00038bc:	83 ec 04       	subl   $0x4,%esp
c00038bf:	8b 5c 24 14    	movl   0x14(%esp,1),%ebx
c00038c3:	8b 74 24 1c    	movl   0x1c(%esp,1),%esi
c00038c7:	8b 53 10       	movl   0x10(%ebx),%edx
c00038ca:	8b 02          	movl   (%edx),%eax
c00038cc:	0f af 42 04    	imull  0x4(%edx),%eax
c00038d0:	8b 54 24 18    	movl   0x18(%esp,1),%edx
c00038d4:	89 c1          	movl   %eax,%ecx
c00038d6:	89 d0          	movl   %edx,%eax
c00038d8:	c1 fa 1f       	sarl   $0x1f,%edx
c00038db:	f7 f9          	idivl  %ecx,%eax
c00038dd:	89 46 08       	movl   %eax,0x8(%esi)
c00038e0:	8b 43 10       	movl   0x10(%ebx),%eax
c00038e3:	8b 08          	movl   (%eax),%ecx
c00038e5:	8b 40 04       	movl   0x4(%eax),%eax
c00038e8:	0f af c1       	imull  %ecx,%eax
c00038eb:	8b 54 24 18    	movl   0x18(%esp,1),%edx
c00038ef:	89 c7          	movl   %eax,%edi
c00038f1:	89 d0          	movl   %edx,%eax
c00038f3:	c1 fa 1f       	sarl   $0x1f,%edx
c00038f6:	f7 ff          	idivl  %edi,%eax
c00038f8:	89 d0          	movl   %edx,%eax
c00038fa:	c1 fa 1f       	sarl   $0x1f,%edx
c00038fd:	f7 f9          	idivl  %ecx,%eax
c00038ff:	89 46 04       	movl   %eax,0x4(%esi)
c0003902:	8b 4b 10       	movl   0x10(%ebx),%ecx
c0003905:	8b 54 24 18    	movl   0x18(%esp,1),%edx
c0003909:	89 d0          	movl   %edx,%eax
c000390b:	c1 fa 1f       	sarl   $0x1f,%edx
c000390e:	f7 39          	idivl  (%ecx),%eax
c0003910:	8d 52 01       	leal   0x1(%edx),%edx
c0003913:	89 16          	movl   %edx,(%esi)
c0003915:	83 c4 04       	addl   $0x4,%esp
c0003918:	5b             	popl   %ebx
c0003919:	5e             	popl   %esi
c000391a:	5f             	popl   %edi
c000391b:	c3             	ret    
c000391c:	66 6c          	insb   (%dx),%es:(%edi)
c000391e:	6f             	outsl  %ds:(%esi),(%dx)
c000391f:	70 70          	jo     c0003991 <_floppy_blockGeometry+0xd8>
c0003921:	79 3a          	jns    c000395d <_floppy_blockGeometry+0xa4>
c0003923:	20 72 65       	andb   %dh,0x65(%edx)
c0003926:	61             	popa   
c0003927:	64 20 73 65    	andb   %dh,%fs:0x65(%ebx)
c000392b:	65 6b 20 66    	imull  $0x66,%gs:(%eax),%esp
c000392f:	61             	popa   
c0003930:	69 6c 65 64 2c 	imull  $0x6c62202c,0x64(%ebp,2),%ebp
c0003935:	20 62 6c 
c0003938:	6f             	outsl  %ds:(%esi),(%dx)
c0003939:	63 6b 20       	arpl   %bp,0x20(%ebx)
c000393c:	25 64 0a 00 66 	andl   $0x66000a64,%eax
c0003941:	6c             	insb   (%dx),%es:(%edi)
c0003942:	6f             	outsl  %ds:(%esi),(%dx)
c0003943:	70 70          	jo     c00039b5 <_floppy_rwBlock+0x22>
c0003945:	79 3a          	jns    c0003981 <_floppy_blockGeometry+0xc8>
c0003947:	20 72 65       	andb   %dh,0x65(%edx)
c000394a:	61             	popa   
c000394b:	64 20 66 6c    	andb   %ah,%fs:0x6c(%esi)
c000394f:	6f             	outsl  %ds:(%esi),(%dx)
c0003950:	70 70          	jo     c00039c2 <_floppy_rwBlock+0x2f>
c0003952:	79 5f          	jns    c00039b3 <_floppy_rwBlock+0x20>
c0003954:	77 61          	ja     c00039b7 <_floppy_rwBlock+0x24>
c0003956:	69 74 20 66 61 	imull  $0x656c6961,0x66(%eax,1),%esi
c000395b:	69 6c 65 
c000395e:	64 2c 20       	subb   $0x20,%al
c0003961:	62 6c 6f 63    	boundl 0x63(%edi,%ebp,2),%ebp
c0003965:	6b 20 25       	imull  $0x25,(%eax),%esp
c0003968:	64 0a 00       	orb    %fs:(%eax),%al
c000396b:	90             	nop    
c000396c:	66 6c          	insb   (%dx),%es:(%edi)
c000396e:	6f             	outsl  %ds:(%esi),(%dx)
c000396f:	70 70          	jo     c00039e1 <_floppy_rwBlock+0x4e>
c0003971:	79 3a          	jns    c00039ad <_floppy_rwBlock+0x1a>
c0003973:	20 72 65       	andb   %dh,0x65(%edx)
c0003976:	61             	popa   
c0003977:	64 20 66 61    	andb   %ah,%fs:0x61(%esi)
c000397b:	69 6c 65 64 20 	imull  $0x74203320,0x64(%ebp,2),%ebp
c0003980:	33 20 74 
c0003983:	69 6d 65 73 2c 	imull  $0x62202c73,0x65(%ebp),%ebp
c0003988:	20 62 
c000398a:	6c             	insb   (%dx),%es:(%edi)
c000398b:	6f             	outsl  %ds:(%esi),(%dx)
c000398c:	63 6b 20       	arpl   %bp,0x20(%ebx)
c000398f:	25 64 0a 00 55 	andl   $0x55000a64,%eax

c0003993 <_floppy_rwBlock>:
c0003993:	55             	pushl  %ebp
c0003994:	57             	pushl  %edi
c0003995:	56             	pushl  %esi
c0003996:	53             	pushl  %ebx
c0003997:	83 ec 1c       	subl   $0x1c,%esp
c000399a:	8b 5c 24 30    	movl   0x30(%esp,1),%ebx
c000399e:	8b 6c 24 34    	movl   0x34(%esp,1),%ebp
c00039a2:	8b 7c 24 38    	movl   0x38(%esp,1),%edi
c00039a6:	8d 44 24 0c    	leal   0xc(%esp,1),%eax
c00039aa:	50             	pushl  %eax
c00039ab:	ff 73 08       	pushl  0x8(%ebx)
c00039ae:	53             	pushl  %ebx
c00039af:	e8 05 ff ff ff 	call   c00038b9 <_floppy_blockGeometry>
c00039b4:	83 c4 0c       	addl   $0xc,%esp
c00039b7:	83 ff 02       	cmpl   $0x2,%edi
c00039ba:	75 17          	jne    c00039d3 <_floppy_rwBlock+0x40>
c00039bc:	83 ec 04       	subl   $0x4,%esp
c00039bf:	8b 43 10       	movl   0x10(%ebx),%eax
c00039c2:	ff 70 0c       	pushl  0xc(%eax)
c00039c5:	55             	pushl  %ebp
c00039c6:	68 00 00 08 00 	pushl  $0x80000
c00039cb:	e8 65 25 00 00 	call   c0005f35 <_memcpy>
c00039d0:	83 c4 10       	addl   $0x10,%esp
c00039d3:	be 02 00 00 00 	movl   $0x2,%esi
c00039d8:	83 ec 0c       	subl   $0xc,%esp
c00039db:	53             	pushl  %ebx
c00039dc:	e8 cd fc ff ff 	call   c00036ae <_floppy_on>
c00039e1:	83 c4 08       	addl   $0x8,%esp
c00039e4:	b8 00 00 00 00 	movl   $0x0,%eax
c00039e9:	8a 44 24 1c    	movb   0x1c(%esp,1),%al
c00039ed:	50             	pushl  %eax
c00039ee:	53             	pushl  %ebx
c00039ef:	e8 f0 fd ff ff 	call   c00037e4 <_floppy_seekcylinder>
c00039f4:	83 c4 10       	addl   $0x10,%esp
c00039f7:	85 c0          	testl  %eax,%eax
c00039f9:	75 25          	jne    c0003a20 <_floppy_rwBlock+0x8d>
c00039fb:	83 ec 08       	subl   $0x8,%esp
c00039fe:	ff 73 08       	pushl  0x8(%ebx)
c0003a01:	68 1c 39 00 c0 	pushl  $0xc000391c
c0003a06:	e8 7f d9 ff ff 	call   c000138a <_kernel_printf>
c0003a0b:	89 1c 24       	movl   %ebx,(%esp,1)
c0003a0e:	e8 e4 fc ff ff 	call   c00036f7 <_floppy_off>
c0003a13:	b8 ff ff ff ff 	movl   $0xffffffff,%eax
c0003a18:	83 c4 10       	addl   $0x10,%esp
c0003a1b:	e9 d0 01 00 00 	jmp    c0003bf0 <_floppy_rwBlock+0x25d>
c0003a20:	83 ff 01       	cmpl   $0x1,%edi
c0003a23:	75 28          	jne    c0003a4d <_floppy_rwBlock+0xba>
c0003a25:	83 ec 04       	subl   $0x4,%esp
c0003a28:	8b 43 10       	movl   0x10(%ebx),%eax
c0003a2b:	ff 70 0c       	pushl  0xc(%eax)
c0003a2e:	68 00 00 08 00 	pushl  $0x80000
c0003a33:	6a 02          	pushl  $0x2
c0003a35:	e8 b8 e2 ff ff 	call   c0001cf2 <_dma_write>
c0003a3a:	83 c4 08       	addl   $0x8,%esp
c0003a3d:	68 e6 00 00 00 	pushl  $0xe6
c0003a42:	53             	pushl  %ebx
c0003a43:	e8 90 fb ff ff 	call   c00035d8 <_floppy_sendbyte>
c0003a48:	83 c4 10       	addl   $0x10,%esp
c0003a4b:	eb 26          	jmp    c0003a73 <_floppy_rwBlock+0xe0>
c0003a4d:	83 ec 04       	subl   $0x4,%esp
c0003a50:	8b 43 10       	movl   0x10(%ebx),%eax
c0003a53:	ff 70 0c       	pushl  0xc(%eax)
c0003a56:	68 00 00 08 00 	pushl  $0x80000
c0003a5b:	6a 02          	pushl  $0x2
c0003a5d:	e8 67 e2 ff ff 	call   c0001cc9 <_dma_read>
c0003a62:	83 c4 08       	addl   $0x8,%esp
c0003a65:	68 c5 00 00 00 	pushl  $0xc5
c0003a6a:	53             	pushl  %ebx
c0003a6b:	e8 68 fb ff ff 	call   c00035d8 <_floppy_sendbyte>
c0003a70:	83 c4 10       	addl   $0x10,%esp
c0003a73:	83 ec 08       	subl   $0x8,%esp
c0003a76:	8b 54 24 18    	movl   0x18(%esp,1),%edx
c0003a7a:	c1 e2 02       	shll   $0x2,%edx
c0003a7d:	66 81 7b 06 f0 	cmpw   $0x3f0,0x6(%ebx)
c0003a82:	03 
c0003a83:	0f 95 c0       	setne  %al
c0003a86:	09 d0          	orl    %edx,%eax
c0003a88:	25 ff 00 00 00 	andl   $0xff,%eax
c0003a8d:	50             	pushl  %eax
c0003a8e:	53             	pushl  %ebx
c0003a8f:	e8 44 fb ff ff 	call   c00035d8 <_floppy_sendbyte>
c0003a94:	83 c4 08       	addl   $0x8,%esp
c0003a97:	b8 00 00 00 00 	movl   $0x0,%eax
c0003a9c:	8a 44 24 1c    	movb   0x1c(%esp,1),%al
c0003aa0:	50             	pushl  %eax
c0003aa1:	53             	pushl  %ebx
c0003aa2:	e8 31 fb ff ff 	call   c00035d8 <_floppy_sendbyte>
c0003aa7:	83 c4 08       	addl   $0x8,%esp
c0003aaa:	b8 00 00 00 00 	movl   $0x0,%eax
c0003aaf:	8a 44 24 18    	movb   0x18(%esp,1),%al
c0003ab3:	50             	pushl  %eax
c0003ab4:	53             	pushl  %ebx
c0003ab5:	e8 1e fb ff ff 	call   c00035d8 <_floppy_sendbyte>
c0003aba:	83 c4 08       	addl   $0x8,%esp
c0003abd:	b8 00 00 00 00 	movl   $0x0,%eax
c0003ac2:	8a 44 24 14    	movb   0x14(%esp,1),%al
c0003ac6:	50             	pushl  %eax
c0003ac7:	53             	pushl  %ebx
c0003ac8:	e8 0b fb ff ff 	call   c00035d8 <_floppy_sendbyte>
c0003acd:	83 c4 08       	addl   $0x8,%esp
c0003ad0:	6a 02          	pushl  $0x2
c0003ad2:	53             	pushl  %ebx
c0003ad3:	e8 00 fb ff ff 	call   c00035d8 <_floppy_sendbyte>
c0003ad8:	83 c4 08       	addl   $0x8,%esp
c0003adb:	8b 43 10       	movl   0x10(%ebx),%eax
c0003ade:	8a 00          	movb   (%eax),%al
c0003ae0:	25 ff 00 00 00 	andl   $0xff,%eax
c0003ae5:	50             	pushl  %eax
c0003ae6:	53             	pushl  %ebx
c0003ae7:	e8 ec fa ff ff 	call   c00035d8 <_floppy_sendbyte>
c0003aec:	83 c4 08       	addl   $0x8,%esp
c0003aef:	6a 1b          	pushl  $0x1b
c0003af1:	53             	pushl  %ebx
c0003af2:	e8 e1 fa ff ff 	call   c00035d8 <_floppy_sendbyte>
c0003af7:	83 c4 08       	addl   $0x8,%esp
c0003afa:	68 ff 00 00 00 	pushl  $0xff
c0003aff:	53             	pushl  %ebx
c0003b00:	e8 d3 fa ff ff 	call   c00035d8 <_floppy_sendbyte>
c0003b05:	83 c4 08       	addl   $0x8,%esp
c0003b08:	6a 00          	pushl  $0x0
c0003b0a:	53             	pushl  %ebx
c0003b0b:	e8 28 fc ff ff 	call   c0003738 <_floppy_wait>
c0003b10:	83 c4 10       	addl   $0x10,%esp
c0003b13:	85 c0          	testl  %eax,%eax
c0003b15:	75 2d          	jne    c0003b44 <_floppy_rwBlock+0x1b1>
c0003b17:	83 ec 08       	subl   $0x8,%esp
c0003b1a:	ff 73 08       	pushl  0x8(%ebx)
c0003b1d:	68 40 39 00 c0 	pushl  $0xc0003940
c0003b22:	e8 63 d8 ff ff 	call   c000138a <_kernel_printf>
c0003b27:	89 1c 24       	movl   %ebx,(%esp,1)
c0003b2a:	e8 23 fd ff ff 	call   c0003852 <_floppy_reset>
c0003b2f:	89 1c 24       	movl   %ebx,(%esp,1)
c0003b32:	e8 c0 fb ff ff 	call   c00036f7 <_floppy_off>
c0003b37:	b8 ff ff ff ff 	movl   $0xffffffff,%eax
c0003b3c:	83 c4 10       	addl   $0x10,%esp
c0003b3f:	e9 ac 00 00 00 	jmp    c0003bf0 <_floppy_rwBlock+0x25d>
c0003b44:	83 ec 0c       	subl   $0xc,%esp
c0003b47:	53             	pushl  %ebx
c0003b48:	e8 f4 fa ff ff 	call   c0003641 <_floppy_getbyte>
c0003b4d:	89 1c 24       	movl   %ebx,(%esp,1)
c0003b50:	e8 ec fa ff ff 	call   c0003641 <_floppy_getbyte>
c0003b55:	89 1c 24       	movl   %ebx,(%esp,1)
c0003b58:	e8 e4 fa ff ff 	call   c0003641 <_floppy_getbyte>
c0003b5d:	89 1c 24       	movl   %ebx,(%esp,1)
c0003b60:	e8 dc fa ff ff 	call   c0003641 <_floppy_getbyte>
c0003b65:	89 1c 24       	movl   %ebx,(%esp,1)
c0003b68:	e8 d4 fa ff ff 	call   c0003641 <_floppy_getbyte>
c0003b6d:	89 1c 24       	movl   %ebx,(%esp,1)
c0003b70:	e8 cc fa ff ff 	call   c0003641 <_floppy_getbyte>
c0003b75:	89 1c 24       	movl   %ebx,(%esp,1)
c0003b78:	e8 c4 fa ff ff 	call   c0003641 <_floppy_getbyte>
c0003b7d:	83 c4 10       	addl   $0x10,%esp
c0003b80:	f6 43 0d c0    	testb  $0xc0,0xd(%ebx)
c0003b84:	75 34          	jne    c0003bba <_floppy_rwBlock+0x227>
c0003b86:	83 ec 0c       	subl   $0xc,%esp
c0003b89:	53             	pushl  %ebx
c0003b8a:	e8 68 fb ff ff 	call   c00036f7 <_floppy_off>
c0003b8f:	83 c4 10       	addl   $0x10,%esp
c0003b92:	b8 00 00 00 00 	movl   $0x0,%eax
c0003b97:	83 ff 01       	cmpl   $0x1,%edi
c0003b9a:	75 54          	jne    c0003bf0 <_floppy_rwBlock+0x25d>
c0003b9c:	83 ec 04       	subl   $0x4,%esp
c0003b9f:	8b 43 10       	movl   0x10(%ebx),%eax
c0003ba2:	ff 70 0c       	pushl  0xc(%eax)
c0003ba5:	68 00 00 08 00 	pushl  $0x80000
c0003baa:	55             	pushl  %ebp
c0003bab:	e8 85 23 00 00 	call   c0005f35 <_memcpy>
c0003bb0:	b8 00 00 00 00 	movl   $0x0,%eax
c0003bb5:	83 c4 10       	addl   $0x10,%esp
c0003bb8:	eb 36          	jmp    c0003bf0 <_floppy_rwBlock+0x25d>
c0003bba:	83 ec 0c       	subl   $0xc,%esp
c0003bbd:	53             	pushl  %ebx
c0003bbe:	e8 d3 fb ff ff 	call   c0003796 <_floppy_recalibrate>
c0003bc3:	4e             	decl   %esi
c0003bc4:	83 c4 10       	addl   $0x10,%esp
c0003bc7:	83 fe ff       	cmpl   $0xffffffff,%esi
c0003bca:	0f 85 08 fe ff 	jne    c00039d8 <_floppy_rwBlock+0x45>
c0003bcf:	ff 
c0003bd0:	83 ec 08       	subl   $0x8,%esp
c0003bd3:	ff 73 08       	pushl  0x8(%ebx)
c0003bd6:	68 6c 39 00 c0 	pushl  $0xc000396c
c0003bdb:	e8 aa d7 ff ff 	call   c000138a <_kernel_printf>
c0003be0:	89 1c 24       	movl   %ebx,(%esp,1)
c0003be3:	e8 0f fb ff ff 	call   c00036f7 <_floppy_off>
c0003be8:	b8 ff ff ff ff 	movl   $0xffffffff,%eax
c0003bed:	83 c4 10       	addl   $0x10,%esp
c0003bf0:	83 c4 1c       	addl   $0x1c,%esp
c0003bf3:	5b             	popl   %ebx
c0003bf4:	5e             	popl   %esi
c0003bf5:	5f             	popl   %edi
c0003bf6:	5d             	popl   %ebp
c0003bf7:	c3             	ret    

c0003bf8 <_floppy_rw>:
c0003bf8:	55             	pushl  %ebp
c0003bf9:	57             	pushl  %edi
c0003bfa:	56             	pushl  %esi
c0003bfb:	53             	pushl  %ebx
c0003bfc:	83 ec 0c       	subl   $0xc,%esp
c0003bff:	8b 7c 24 24    	movl   0x24(%esp,1),%edi
c0003c03:	8b 44 24 20    	movl   0x20(%esp,1),%eax
c0003c07:	8b 58 08       	movl   0x8(%eax),%ebx
c0003c0a:	8b 43 10       	movl   0x10(%ebx),%eax
c0003c0d:	8b 50 0c       	movl   0xc(%eax),%edx
c0003c10:	3b 54 24 28    	cmpl   0x28(%esp,1),%edx
c0003c14:	77 4a          	ja     c0003c60 <_floppy_rw+0x68>
c0003c16:	8b 44 24 28    	movl   0x28(%esp,1),%eax
c0003c1a:	89 d6          	movl   %edx,%esi
c0003c1c:	ba 00 00 00 00 	movl   $0x0,%edx
c0003c21:	f7 f6          	divl   %esi,%eax
c0003c23:	85 d2          	testl  %edx,%edx
c0003c25:	75 39          	jne    c0003c60 <_floppy_rw+0x68>
c0003c27:	8d 68 ff       	leal   0xffffffff(%eax),%ebp
c0003c2a:	85 c0          	testl  %eax,%eax
c0003c2c:	7e 32          	jle    c0003c60 <_floppy_rw+0x68>
c0003c2e:	be ff ff ff ff 	movl   $0xffffffff,%esi
c0003c33:	83 ec 04       	subl   $0x4,%esp
c0003c36:	ff 74 24 30    	pushl  0x30(%esp,1)
c0003c3a:	57             	pushl  %edi
c0003c3b:	53             	pushl  %ebx
c0003c3c:	e8 52 fd ff ff 	call   c0003993 <_floppy_rwBlock>
c0003c41:	83 c4 10       	addl   $0x10,%esp
c0003c44:	83 f8 ff       	cmpl   $0xffffffff,%eax
c0003c47:	74 1c          	je     c0003c65 <_floppy_rw+0x6d>
c0003c49:	8b 43 10       	movl   0x10(%ebx),%eax
c0003c4c:	8b 40 0c       	movl   0xc(%eax),%eax
c0003c4f:	01 c7          	addl   %eax,%edi
c0003c51:	01 c6          	addl   %eax,%esi
c0003c53:	ff 43 08       	incl   0x8(%ebx)
c0003c56:	4d             	decl   %ebp
c0003c57:	8d 45 01       	leal   0x1(%ebp),%eax
c0003c5a:	85 c0          	testl  %eax,%eax
c0003c5c:	7e 07          	jle    c0003c65 <_floppy_rw+0x6d>
c0003c5e:	eb d3          	jmp    c0003c33 <_floppy_rw+0x3b>
c0003c60:	be ff ff ff ff 	movl   $0xffffffff,%esi
c0003c65:	89 f0          	movl   %esi,%eax
c0003c67:	83 c4 0c       	addl   $0xc,%esp
c0003c6a:	5b             	popl   %ebx
c0003c6b:	5e             	popl   %esi
c0003c6c:	5f             	popl   %edi
c0003c6d:	5d             	popl   %ebp
c0003c6e:	c3             	ret    

c0003c6f <_floppy_open>:
c0003c6f:	56             	pushl  %esi
c0003c70:	53             	pushl  %ebx
c0003c71:	83 ec 0c       	subl   $0xc,%esp
c0003c74:	8b 5c 24 18    	movl   0x18(%esp,1),%ebx
c0003c78:	8b 74 24 1c    	movl   0x1c(%esp,1),%esi
c0003c7c:	a1 28 80 00 c0 	movl   0xc0008028,%eax
c0003c81:	ff 30          	pushl  (%eax)
c0003c83:	56             	pushl  %esi
c0003c84:	e8 6a 21 00 00 	call   c0005df3 <_strcmp>
c0003c89:	83 c4 10       	addl   $0x10,%esp
c0003c8c:	85 c0          	testl  %eax,%eax
c0003c8e:	75 2a          	jne    c0003cba <_floppy_open+0x4b>
c0003c90:	a1 28 80 00 c0 	movl   0xc0008028,%eax
c0003c95:	80 78 04 01    	cmpb   $0x1,0x4(%eax)
c0003c99:	74 60          	je     c0003cfb <_floppy_open+0x8c>
c0003c9b:	c6 40 04 01    	movb   $0x1,0x4(%eax)
c0003c9f:	a1 28 80 00 c0 	movl   0xc0008028,%eax
c0003ca4:	89 43 08       	movl   %eax,0x8(%ebx)
c0003ca7:	83 ec 0c       	subl   $0xc,%esp
c0003caa:	ff 35 28 80 00 	pushl  0xc0008028
c0003caf:	c0 
c0003cb0:	e8 9d fb ff ff 	call   c0003852 <_floppy_reset>
c0003cb5:	83 c4 10       	addl   $0x10,%esp
c0003cb8:	eb 46          	jmp    c0003d00 <_floppy_open+0x91>
c0003cba:	83 ec 08       	subl   $0x8,%esp
c0003cbd:	a1 2c 80 00 c0 	movl   0xc000802c,%eax
c0003cc2:	ff 30          	pushl  (%eax)
c0003cc4:	56             	pushl  %esi
c0003cc5:	e8 29 21 00 00 	call   c0005df3 <_strcmp>
c0003cca:	83 c4 10       	addl   $0x10,%esp
c0003ccd:	85 c0          	testl  %eax,%eax
c0003ccf:	75 2a          	jne    c0003cfb <_floppy_open+0x8c>
c0003cd1:	a1 2c 80 00 c0 	movl   0xc000802c,%eax
c0003cd6:	80 78 04 01    	cmpb   $0x1,0x4(%eax)
c0003cda:	74 1f          	je     c0003cfb <_floppy_open+0x8c>
c0003cdc:	89 43 08       	movl   %eax,0x8(%ebx)
c0003cdf:	a1 2c 80 00 c0 	movl   0xc000802c,%eax
c0003ce4:	c6 40 04 01    	movb   $0x1,0x4(%eax)
c0003ce8:	83 ec 0c       	subl   $0xc,%esp
c0003ceb:	ff 35 2c 80 00 	pushl  0xc000802c
c0003cf0:	c0 
c0003cf1:	e8 5c fb ff ff 	call   c0003852 <_floppy_reset>
c0003cf6:	83 c4 10       	addl   $0x10,%esp
c0003cf9:	eb 05          	jmp    c0003d00 <_floppy_open+0x91>
c0003cfb:	bb 00 00 00 00 	movl   $0x0,%ebx
c0003d00:	89 d8          	movl   %ebx,%eax
c0003d02:	83 c4 04       	addl   $0x4,%esp
c0003d05:	5b             	popl   %ebx
c0003d06:	5e             	popl   %esi
c0003d07:	c3             	ret    

c0003d08 <_floppy_close>:
c0003d08:	53             	pushl  %ebx
c0003d09:	83 ec 14       	subl   $0x14,%esp
c0003d0c:	8b 44 24 1c    	movl   0x1c(%esp,1),%eax
c0003d10:	8b 58 08       	movl   0x8(%eax),%ebx
c0003d13:	53             	pushl  %ebx
c0003d14:	e8 de f9 ff ff 	call   c00036f7 <_floppy_off>
c0003d19:	c7 43 08 00 00 	movl   $0x0,0x8(%ebx)
c0003d1e:	00 00 
c0003d20:	c6 43 04 00    	movb   $0x0,0x4(%ebx)
c0003d24:	b8 00 00 00 00 	movl   $0x0,%eax
c0003d29:	83 c4 18       	addl   $0x18,%esp
c0003d2c:	5b             	popl   %ebx
c0003d2d:	c3             	ret    

c0003d2e <_floppy_read>:
c0003d2e:	83 ec 0c       	subl   $0xc,%esp
c0003d31:	6a 01          	pushl  $0x1
c0003d33:	ff 74 24 1c    	pushl  0x1c(%esp,1)
c0003d37:	ff 74 24 1c    	pushl  0x1c(%esp,1)
c0003d3b:	ff 74 24 1c    	pushl  0x1c(%esp,1)
c0003d3f:	e8 b4 fe ff ff 	call   c0003bf8 <_floppy_rw>
c0003d44:	83 c4 1c       	addl   $0x1c,%esp
c0003d47:	c3             	ret    

c0003d48 <_floppy_write>:
c0003d48:	83 ec 0c       	subl   $0xc,%esp
c0003d4b:	6a 02          	pushl  $0x2
c0003d4d:	ff 74 24 1c    	pushl  0x1c(%esp,1)
c0003d51:	ff 74 24 1c    	pushl  0x1c(%esp,1)
c0003d55:	ff 74 24 1c    	pushl  0x1c(%esp,1)
c0003d59:	e8 9a fe ff ff 	call   c0003bf8 <_floppy_rw>
c0003d5e:	83 c4 1c       	addl   $0x1c,%esp
c0003d61:	c3             	ret    

c0003d62 <_floppy_seek>:
c0003d62:	53             	pushl  %ebx
c0003d63:	83 ec 04       	subl   $0x4,%esp
c0003d66:	8a 54 24 14    	movb   0x14(%esp,1),%dl
c0003d6a:	8b 44 24 0c    	movl   0xc(%esp,1),%eax
c0003d6e:	8b 48 08       	movl   0x8(%eax),%ecx
c0003d71:	84 d2          	testb  %dl,%dl
c0003d73:	75 14          	jne    c0003d89 <_floppy_seek+0x27>
c0003d75:	8b 59 10       	movl   0x10(%ecx),%ebx
c0003d78:	8b 44 24 10    	movl   0x10(%esp,1),%eax
c0003d7c:	ba 00 00 00 00 	movl   $0x0,%edx
c0003d81:	f7 73 0c       	divl   0xc(%ebx),%eax
c0003d84:	89 41 08       	movl   %eax,0x8(%ecx)
c0003d87:	eb 1c          	jmp    c0003da5 <_floppy_seek+0x43>
c0003d89:	b8 ff ff ff ff 	movl   $0xffffffff,%eax
c0003d8e:	80 fa 01       	cmpb   $0x1,%dl
c0003d91:	75 1c          	jne    c0003daf <_floppy_seek+0x4d>
c0003d93:	8b 59 10       	movl   0x10(%ecx),%ebx
c0003d96:	8b 44 24 10    	movl   0x10(%esp,1),%eax
c0003d9a:	ba 00 00 00 00 	movl   $0x0,%edx
c0003d9f:	f7 73 0c       	divl   0xc(%ebx),%eax
c0003da2:	01 41 08       	addl   %eax,0x8(%ecx)
c0003da5:	8b 51 10       	movl   0x10(%ecx),%edx
c0003da8:	8b 41 08       	movl   0x8(%ecx),%eax
c0003dab:	0f af 42 0c    	imull  0xc(%edx),%eax
c0003daf:	83 c4 04       	addl   $0x4,%esp
c0003db2:	5b             	popl   %ebx
c0003db3:	c3             	ret    
c0003db4:	66 6c          	insb   (%dx),%es:(%edi)
c0003db6:	6f             	outsl  %ds:(%esi),(%dx)
c0003db7:	70 70          	jo     c0003e29 <_floppy_init+0x65>
c0003db9:	79 31          	jns    c0003dec <_floppy_init+0x28>
c0003dbb:	00 66 6c       	addb   %ah,0x6c(%esi)
c0003dbe:	6f             	outsl  %ds:(%esi),(%dx)
c0003dbf:	70 70          	jo     c0003e31 <_floppy_init+0x6d>
c0003dc1:	79 32          	jns    c0003df5 <_floppy_init+0x31>
	...

c0003dc4 <_floppy_init>:
c0003dc4:	56             	pushl  %esi
c0003dc5:	53             	pushl  %ebx
c0003dc6:	83 ec 10       	subl   $0x10,%esp
c0003dc9:	6a 18          	pushl  $0x18
c0003dcb:	e8 8f e0 ff ff 	call   c0001e5f <_mm_malloc>
c0003dd0:	89 c6          	movl   %eax,%esi
c0003dd2:	c7 00 6f 3c 00 	movl   $0xc0003c6f,(%eax)
c0003dd7:	c0 
c0003dd8:	c7 40 04 08 3d 	movl   $0xc0003d08,0x4(%eax)
c0003ddd:	00 c0 
c0003ddf:	c7 40 08 2e 3d 	movl   $0xc0003d2e,0x8(%eax)
c0003de4:	00 c0 
c0003de6:	c7 40 0c 48 3d 	movl   $0xc0003d48,0xc(%eax)
c0003deb:	00 c0 
c0003ded:	c7 40 10 62 3d 	movl   $0xc0003d62,0x10(%eax)
c0003df2:	00 c0 
c0003df4:	c7 40 14 00 00 	movl   $0x0,0x14(%eax)
c0003df9:	00 00 
c0003dfb:	83 c4 08       	addl   $0x8,%esp
c0003dfe:	68 2b 37 00 c0 	pushl  $0xc000372b
c0003e03:	6a 26          	pushl  $0x26
c0003e05:	e8 24 db ff ff 	call   c000192e <_interrupt_enable>
c0003e0a:	83 c4 08       	addl   $0x8,%esp
c0003e0d:	6a 10          	pushl  $0x10
c0003e0f:	6a 70          	pushl  $0x70
c0003e11:	e8 a9 d4 ff ff 	call   c00012bf <_outportb>
c0003e16:	c7 04 24 71 00 	movl   $0x71,(%esp,1)
c0003e1b:	00 00 
c0003e1d:	e8 92 d4 ff ff 	call   c00012b4 <_inportb>
c0003e22:	88 c3          	movb   %al,%bl
c0003e24:	83 c4 10       	addl   $0x10,%esp
c0003e27:	c0 e8 04       	shrb   $0x4,%al
c0003e2a:	88 44 24 03    	movb   %al,0x3(%esp,1)
c0003e2e:	74 58          	je     c0003e88 <_floppy_init+0xc4>
c0003e30:	83 ec 0c       	subl   $0xc,%esp
c0003e33:	6a 14          	pushl  $0x14
c0003e35:	e8 25 e0 ff ff 	call   c0001e5f <_mm_malloc>
c0003e3a:	a3 28 80 00 c0 	movl   %eax,0xc0008028
c0003e3f:	c7 00 b4 3d 00 	movl   $0xc0003db4,(%eax)
c0003e44:	c0 
c0003e45:	a1 28 80 00 c0 	movl   0xc0008028,%eax
c0003e4a:	66 c7 40 06 f0 	movw   $0x3f0,0x6(%eax)
c0003e4f:	03 
c0003e50:	b8 00 00 00 00 	movl   $0x0,%eax
c0003e55:	8a 44 24 13    	movb   0x13(%esp,1),%al
c0003e59:	c1 e0 04       	shll   $0x4,%eax
c0003e5c:	05 70 61 00 c0 	addl   $0xc0006170,%eax
c0003e61:	8b 15 28 80 00 	movl   0xc0008028,%edx
c0003e66:	c0 
c0003e67:	89 42 10       	movl   %eax,0x10(%edx)
c0003e6a:	a1 28 80 00 c0 	movl   0xc0008028,%eax
c0003e6f:	c6 40 04 00    	movb   $0x0,0x4(%eax)
c0003e73:	83 c4 0c       	addl   $0xc,%esp
c0003e76:	6a 01          	pushl  $0x1
c0003e78:	56             	pushl  %esi
c0003e79:	a1 28 80 00 c0 	movl   0xc0008028,%eax
c0003e7e:	ff 30          	pushl  (%eax)
c0003e80:	e8 53 ed ff ff 	call   c0002bd8 <_io_add>
c0003e85:	83 c4 10       	addl   $0x10,%esp
c0003e88:	83 e3 0f       	andl   $0xf,%ebx
c0003e8b:	74 56          	je     c0003ee3 <_floppy_init+0x11f>
c0003e8d:	83 ec 0c       	subl   $0xc,%esp
c0003e90:	6a 14          	pushl  $0x14
c0003e92:	e8 c8 df ff ff 	call   c0001e5f <_mm_malloc>
c0003e97:	a3 2c 80 00 c0 	movl   %eax,0xc000802c
c0003e9c:	c7 00 bc 3d 00 	movl   $0xc0003dbc,(%eax)
c0003ea1:	c0 
c0003ea2:	a1 2c 80 00 c0 	movl   0xc000802c,%eax
c0003ea7:	66 c7 40 06 70 	movw   $0x370,0x6(%eax)
c0003eac:	03 
c0003ead:	b8 00 00 00 00 	movl   $0x0,%eax
c0003eb2:	88 d8          	movb   %bl,%al
c0003eb4:	c1 e0 04       	shll   $0x4,%eax
c0003eb7:	05 70 61 00 c0 	addl   $0xc0006170,%eax
c0003ebc:	8b 15 2c 80 00 	movl   0xc000802c,%edx
c0003ec1:	c0 
c0003ec2:	89 42 10       	movl   %eax,0x10(%edx)
c0003ec5:	a1 2c 80 00 c0 	movl   0xc000802c,%eax
c0003eca:	c6 40 04 00    	movb   $0x0,0x4(%eax)
c0003ece:	83 c4 0c       	addl   $0xc,%esp
c0003ed1:	6a 01          	pushl  $0x1
c0003ed3:	56             	pushl  %esi
c0003ed4:	a1 2c 80 00 c0 	movl   0xc000802c,%eax
c0003ed9:	ff 30          	pushl  (%eax)
c0003edb:	e8 f8 ec ff ff 	call   c0002bd8 <_io_add>
c0003ee0:	83 c4 10       	addl   $0x10,%esp
c0003ee3:	b8 00 00 00 00 	movl   $0x0,%eax
c0003ee8:	83 c4 04       	addl   $0x4,%esp
c0003eeb:	5b             	popl   %ebx
c0003eec:	5e             	popl   %esi
c0003eed:	c3             	ret    
c0003eee:	90             	nop    
c0003eef:	90             	nop    
c0003ef0:	90             	nop    
c0003ef1:	90             	nop    
c0003ef2:	90             	nop    
c0003ef3:	90             	nop    
c0003ef4:	90             	nop    
c0003ef5:	90             	nop    
c0003ef6:	90             	nop    
c0003ef7:	90             	nop    

c0003ef8 <_keyboard_open>:
c0003ef8:	8b 44 24 04    	movl   0x4(%esp,1),%eax
c0003efc:	c3             	ret    

c0003efd <_keyboard_close>:
c0003efd:	b8 00 00 00 00 	movl   $0x0,%eax
c0003f02:	c3             	ret    
c0003f03:	2f             	das    
c0003f04:	64 65 76 69    	jbe    c0003f71 <_keyboard_handler+0x2a>
c0003f08:	63 65 2f       	arpl   %sp,0x2f(%ebp)
c0003f0b:	63 6f 6e       	arpl   %bp,0x6e(%edi)
c0003f0e:	73 6f          	jae    c0003f7f <_keyboard_handler+0x38>
c0003f10:	6c             	insb   (%dx),%es:(%edi)
c0003f11:	65 31 00       	xorl   %eax,%gs:(%eax)
c0003f14:	2f             	das    
c0003f15:	64 65 76 69    	jbe    c0003f82 <_keyboard_handler+0x3b>
c0003f19:	63 65 2f       	arpl   %sp,0x2f(%ebp)
c0003f1c:	63 6f 6e       	arpl   %bp,0x6e(%edi)
c0003f1f:	73 6f          	jae    c0003f90 <_keyboard_handler+0x49>
c0003f21:	6c             	insb   (%dx),%es:(%edi)
c0003f22:	65 32 00       	xorb   %gs:(%eax),%al
c0003f25:	2f             	das    
c0003f26:	64 65 76 69    	jbe    c0003f93 <_keyboard_handler+0x4c>
c0003f2a:	63 65 2f       	arpl   %sp,0x2f(%ebp)
c0003f2d:	63 6f 6e       	arpl   %bp,0x6e(%edi)
c0003f30:	73 6f          	jae    c0003fa1 <_keyboard_handler+0x5a>
c0003f32:	6c             	insb   (%dx),%es:(%edi)
c0003f33:	65 33 00       	xorl   %gs:(%eax),%eax
c0003f36:	2f             	das    
c0003f37:	64 65 76 69    	jbe    c0003fa4 <_keyboard_handler+0x5d>
c0003f3b:	63 65 2f       	arpl   %sp,0x2f(%ebp)
c0003f3e:	63 6f 6e       	arpl   %bp,0x6e(%edi)
c0003f41:	73 6f          	jae    c0003fb2 <_keyboard_handler+0x6b>
c0003f43:	6c             	insb   (%dx),%es:(%edi)
c0003f44:	65 34 00       	xorb   $0x0,%al

c0003f47 <_keyboard_handler>:
c0003f47:	53             	pushl  %ebx
c0003f48:	83 ec 14       	subl   $0x14,%esp
c0003f4b:	6a 60          	pushl  $0x60
c0003f4d:	e8 62 d3 ff ff 	call   c00012b4 <_inportb>
c0003f52:	88 c2          	movb   %al,%dl
c0003f54:	83 c4 10       	addl   $0x10,%esp
c0003f57:	84 c0          	testb  %al,%al
c0003f59:	0f 88 8d 00 00 	js     c0003fec <_keyboard_handler+0xa5>
c0003f5e:	00 
c0003f5f:	8d 42 c5       	leal   0xffffffc5(%edx),%eax
c0003f62:	3c 03          	cmpb   $0x3,%al
c0003f64:	77 5b          	ja     c0003fc1 <_keyboard_handler+0x7a>
c0003f66:	b8 03 3f 00 c0 	movl   $0xc0003f03,%eax
c0003f6b:	80 fa 3b       	cmpb   $0x3b,%dl
c0003f6e:	74 23          	je     c0003f93 <_keyboard_handler+0x4c>
c0003f70:	b8 14 3f 00 c0 	movl   $0xc0003f14,%eax
c0003f75:	80 fa 3c       	cmpb   $0x3c,%dl
c0003f78:	74 19          	je     c0003f93 <_keyboard_handler+0x4c>
c0003f7a:	b8 25 3f 00 c0 	movl   $0xc0003f25,%eax
c0003f7f:	80 fa 3d       	cmpb   $0x3d,%dl
c0003f82:	74 0f          	je     c0003f93 <_keyboard_handler+0x4c>
c0003f84:	b8 36 3f 00 c0 	movl   $0xc0003f36,%eax
c0003f89:	80 fa 3e       	cmpb   $0x3e,%dl
c0003f8c:	74 05          	je     c0003f93 <_keyboard_handler+0x4c>
c0003f8e:	b8 00 00 00 00 	movl   $0x0,%eax
c0003f93:	83 ec 08       	subl   $0x8,%esp
c0003f96:	6a 02          	pushl  $0x2
c0003f98:	50             	pushl  %eax
c0003f99:	e8 cb 15 00 00 	call   c0005569 <_vfs_open>
c0003f9e:	89 c3          	movl   %eax,%ebx
c0003fa0:	83 c4 10       	addl   $0x10,%esp
c0003fa3:	85 c0          	testl  %eax,%eax
c0003fa5:	74 45          	je     c0003fec <_keyboard_handler+0xa5>
c0003fa7:	83 ec 04       	subl   $0x4,%esp
c0003faa:	6a 00          	pushl  $0x0
c0003fac:	6a 01          	pushl  $0x1
c0003fae:	50             	pushl  %eax
c0003faf:	e8 93 17 00 00 	call   c0005747 <_vfs_control>
c0003fb4:	89 1c 24       	movl   %ebx,(%esp,1)
c0003fb7:	e8 91 16 00 00 	call   c000564d <_vfs_close>
c0003fbc:	83 c4 10       	addl   $0x10,%esp
c0003fbf:	eb 2b          	jmp    c0003fec <_keyboard_handler+0xa5>
c0003fc1:	8b 0d 80 1d 01 	movl   0xc0011d80,%ecx
c0003fc6:	c0 
c0003fc7:	85 c9          	testl  %ecx,%ecx
c0003fc9:	74 21          	je     c0003fec <_keyboard_handler+0xa5>
c0003fcb:	83 ec 04       	subl   $0x4,%esp
c0003fce:	b8 00 00 00 00 	movl   $0x0,%eax
c0003fd3:	88 d0          	movb   %dl,%al
c0003fd5:	8a 80 d0 61 00 	movb   0xc00061d0(%eax),%al
c0003fda:	c0 
c0003fdb:	25 ff 00 00 00 	andl   $0xff,%eax
c0003fe0:	50             	pushl  %eax
c0003fe1:	6a 02          	pushl  $0x2
c0003fe3:	51             	pushl  %ecx
c0003fe4:	e8 5e 17 00 00 	call   c0005747 <_vfs_control>
c0003fe9:	83 c4 10       	addl   $0x10,%esp
c0003fec:	b8 00 00 00 00 	movl   $0x0,%eax
c0003ff1:	83 c4 08       	addl   $0x8,%esp
c0003ff4:	5b             	popl   %ebx
c0003ff5:	c3             	ret    
c0003ff6:	2f             	das    
c0003ff7:	64 65 76 69    	jbe    c0004064 <_keyboard_init+0x53>
c0003ffb:	63 65 2f       	arpl   %sp,0x2f(%ebp)
c0003ffe:	63 6f 6e       	arpl   %bp,0x6e(%edi)
c0004001:	73 6f          	jae    c0004072 <_keyboard_init+0x61>
c0004003:	6c             	insb   (%dx),%es:(%edi)
c0004004:	65 30 00       	xorb   %al,%gs:(%eax)
c0004007:	6b 65 79 62    	imull  $0x62,0x79(%ebp),%esp
c000400b:	6f             	outsl  %ds:(%esi),(%dx)
c000400c:	61             	popa   
c000400d:	72 64          	jb     c0004073 <_keyboard_init+0x62>
c000400f:	31 00          	xorl   %eax,(%eax)

c0004011 <_keyboard_init>:
c0004011:	53             	pushl  %ebx
c0004012:	83 ec 14       	subl   $0x14,%esp
c0004015:	6a 18          	pushl  $0x18
c0004017:	e8 43 de ff ff 	call   c0001e5f <_mm_malloc>
c000401c:	89 c3          	movl   %eax,%ebx
c000401e:	c7 00 f8 3e 00 	movl   $0xc0003ef8,(%eax)
c0004023:	c0 
c0004024:	c7 40 04 fd 3e 	movl   $0xc0003efd,0x4(%eax)
c0004029:	00 c0 
c000402b:	c7 40 08 00 00 	movl   $0x0,0x8(%eax)
c0004030:	00 00 
c0004032:	c7 40 0c 00 00 	movl   $0x0,0xc(%eax)
c0004037:	00 00 
c0004039:	c7 40 10 00 00 	movl   $0x0,0x10(%eax)
c000403e:	00 00 
c0004040:	c7 40 14 00 00 	movl   $0x0,0x14(%eax)
c0004045:	00 00 
c0004047:	83 c4 08       	addl   $0x8,%esp
c000404a:	6a 02          	pushl  $0x2
c000404c:	68 f6 3f 00 c0 	pushl  $0xc0003ff6
c0004051:	e8 13 15 00 00 	call   c0005569 <_vfs_open>
c0004056:	a3 80 1d 01 c0 	movl   %eax,0xc0011d80
c000405b:	83 c4 10       	addl   $0x10,%esp
c000405e:	ba ff ff ff ff 	movl   $0xffffffff,%edx
c0004063:	85 c0          	testl  %eax,%eax
c0004065:	74 27          	je     c000408e <_keyboard_init+0x7d>
c0004067:	83 ec 04       	subl   $0x4,%esp
c000406a:	6a 02          	pushl  $0x2
c000406c:	53             	pushl  %ebx
c000406d:	68 07 40 00 c0 	pushl  $0xc0004007
c0004072:	e8 61 eb ff ff 	call   c0002bd8 <_io_add>
c0004077:	83 c4 08       	addl   $0x8,%esp
c000407a:	68 47 3f 00 c0 	pushl  $0xc0003f47
c000407f:	6a 21          	pushl  $0x21
c0004081:	e8 a8 d8 ff ff 	call   c000192e <_interrupt_enable>
c0004086:	ba 00 00 00 00 	movl   $0x0,%edx
c000408b:	83 c4 10       	addl   $0x10,%esp
c000408e:	89 d0          	movl   %edx,%eax
c0004090:	83 c4 08       	addl   $0x8,%esp
c0004093:	5b             	popl   %ebx
c0004094:	c3             	ret    
c0004095:	90             	nop    
c0004096:	90             	nop    
c0004097:	90             	nop    

c0004098 <_dfs_add>:
c0004098:	83 ec 18       	subl   $0x18,%esp
c000409b:	6a 10          	pushl  $0x10
c000409d:	e8 bd dd ff ff 	call   c0001e5f <_mm_malloc>
c00040a2:	89 c2          	movl   %eax,%edx
c00040a4:	83 c4 10       	addl   $0x10,%esp
c00040a7:	83 3d 44 80 00 	cmpl   $0x0,0xc0008044
c00040ac:	c0 00 
c00040ae:	75 07          	jne    c00040b7 <_dfs_add+0x1f>
c00040b0:	a3 44 80 00 c0 	movl   %eax,0xc0008044
c00040b5:	eb 07          	jmp    c00040be <_dfs_add+0x26>
c00040b7:	a1 40 80 00 c0 	movl   0xc0008040,%eax
c00040bc:	89 10          	movl   %edx,(%eax)
c00040be:	89 15 40 80 00 	movl   %edx,0xc0008040
c00040c3:	c0 
c00040c4:	c7 02 00 00 00 	movl   $0x0,(%edx)
c00040c9:	00 
c00040ca:	8b 44 24 14    	movl   0x14(%esp,1),%eax
c00040ce:	89 42 04       	movl   %eax,0x4(%edx)
c00040d1:	8b 44 24 10    	movl   0x10(%esp,1),%eax
c00040d5:	89 42 08       	movl   %eax,0x8(%edx)
c00040d8:	8b 44 24 18    	movl   0x18(%esp,1),%eax
c00040dc:	89 42 0c       	movl   %eax,0xc(%edx)
c00040df:	89 d0          	movl   %edx,%eax
c00040e1:	83 c4 0c       	addl   $0xc,%esp
c00040e4:	c3             	ret    

c00040e5 <_dfs_find>:
c00040e5:	56             	pushl  %esi
c00040e6:	53             	pushl  %ebx
c00040e7:	83 ec 04       	subl   $0x4,%esp
c00040ea:	8b 74 24 10    	movl   0x10(%esp,1),%esi
c00040ee:	8b 1d 44 80 00 	movl   0xc0008044,%ebx
c00040f3:	c0 
c00040f4:	85 db          	testl  %ebx,%ebx
c00040f6:	74 19          	je     c0004111 <_dfs_find+0x2c>
c00040f8:	83 ec 08       	subl   $0x8,%esp
c00040fb:	56             	pushl  %esi
c00040fc:	ff 73 08       	pushl  0x8(%ebx)
c00040ff:	e8 ef 1c 00 00 	call   c0005df3 <_strcmp>
c0004104:	83 c4 10       	addl   $0x10,%esp
c0004107:	85 c0          	testl  %eax,%eax
c0004109:	74 06          	je     c0004111 <_dfs_find+0x2c>
c000410b:	8b 1b          	movl   (%ebx),%ebx
c000410d:	85 db          	testl  %ebx,%ebx
c000410f:	75 e7          	jne    c00040f8 <_dfs_find+0x13>
c0004111:	89 d8          	movl   %ebx,%eax
c0004113:	83 c4 04       	addl   $0x4,%esp
c0004116:	5b             	popl   %ebx
c0004117:	5e             	popl   %esi
c0004118:	c3             	ret    

c0004119 <_dfs_remove>:
c0004119:	53             	pushl  %ebx
c000411a:	83 ec 14       	subl   $0x14,%esp
c000411d:	ff 74 24 1c    	pushl  0x1c(%esp,1)
c0004121:	e8 bf ff ff ff 	call   c00040e5 <_dfs_find>
c0004126:	89 c3          	movl   %eax,%ebx
c0004128:	83 c4 10       	addl   $0x10,%esp
c000412b:	b8 ff ff ff ff 	movl   $0xffffffff,%eax
c0004130:	85 db          	testl  %ebx,%ebx
c0004132:	74 26          	je     c000415a <_dfs_remove+0x41>
c0004134:	83 ec 0c       	subl   $0xc,%esp
c0004137:	ff 73 04       	pushl  0x4(%ebx)
c000413a:	e8 93 dc ff ff 	call   c0001dd2 <_mm_free>
c000413f:	83 c4 04       	addl   $0x4,%esp
c0004142:	ff 73 08       	pushl  0x8(%ebx)
c0004145:	e8 88 dc ff ff 	call   c0001dd2 <_mm_free>
c000414a:	89 1c 24       	movl   %ebx,(%esp,1)
c000414d:	e8 80 dc ff ff 	call   c0001dd2 <_mm_free>
c0004152:	b8 00 00 00 00 	movl   $0x0,%eax
c0004157:	83 c4 10       	addl   $0x10,%esp
c000415a:	83 c4 08       	addl   $0x8,%esp
c000415d:	5b             	popl   %ebx
c000415e:	c3             	ret    

c000415f <_dfs_mount>:
c000415f:	83 7c 24 0c 02 	cmpl   $0x2,0xc(%esp,1)
c0004164:	0f 94 c0       	sete   %al
c0004167:	25 ff 00 00 00 	andl   $0xff,%eax
c000416c:	48             	decl   %eax
c000416d:	c3             	ret    

c000416e <_dfs_unmount>:
c000416e:	b8 ff ff ff ff 	movl   $0xffffffff,%eax
c0004173:	c3             	ret    

c0004174 <_dfs_open>:
c0004174:	53             	pushl  %ebx
c0004175:	83 ec 14       	subl   $0x14,%esp
c0004178:	8b 5c 24 1c    	movl   0x1c(%esp,1),%ebx
c000417c:	ff 74 24 20    	pushl  0x20(%esp,1)
c0004180:	e8 60 ff ff ff 	call   c00040e5 <_dfs_find>
c0004185:	83 c4 10       	addl   $0x10,%esp
c0004188:	85 c0          	testl  %eax,%eax
c000418a:	74 13          	je     c000419f <_dfs_open+0x2b>
c000418c:	83 ec 0c       	subl   $0xc,%esp
c000418f:	50             	pushl  %eax
c0004190:	e8 70 ea ff ff 	call   c0002c05 <_io_open>
c0004195:	89 43 04       	movl   %eax,0x4(%ebx)
c0004198:	83 c4 10       	addl   $0x10,%esp
c000419b:	85 c0          	testl  %eax,%eax
c000419d:	75 05          	jne    c00041a4 <_dfs_open+0x30>
c000419f:	bb 00 00 00 00 	movl   $0x0,%ebx
c00041a4:	89 d8          	movl   %ebx,%eax
c00041a6:	83 c4 08       	addl   $0x8,%esp
c00041a9:	5b             	popl   %ebx
c00041aa:	c3             	ret    

c00041ab <_dfs_close>:
c00041ab:	83 ec 18       	subl   $0x18,%esp
c00041ae:	8b 44 24 1c    	movl   0x1c(%esp,1),%eax
c00041b2:	ff 70 04       	pushl  0x4(%eax)
c00041b5:	e8 a9 ea ff ff 	call   c0002c63 <_io_close>
c00041ba:	83 c4 1c       	addl   $0x1c,%esp
c00041bd:	c3             	ret    

c00041be <_dfs_read>:
c00041be:	83 ec 10       	subl   $0x10,%esp
c00041c1:	ff 74 24 1c    	pushl  0x1c(%esp,1)
c00041c5:	ff 74 24 1c    	pushl  0x1c(%esp,1)
c00041c9:	8b 44 24 1c    	movl   0x1c(%esp,1),%eax
c00041cd:	ff 70 04       	pushl  0x4(%eax)
c00041d0:	e8 c3 ea ff ff 	call   c0002c98 <_io_read>
c00041d5:	83 c4 1c       	addl   $0x1c,%esp
c00041d8:	c3             	ret    

c00041d9 <_dfs_write>:
c00041d9:	83 ec 10       	subl   $0x10,%esp
c00041dc:	ff 74 24 1c    	pushl  0x1c(%esp,1)
c00041e0:	ff 74 24 1c    	pushl  0x1c(%esp,1)
c00041e4:	8b 44 24 1c    	movl   0x1c(%esp,1),%eax
c00041e8:	ff 70 04       	pushl  0x4(%eax)
c00041eb:	e8 d5 ea ff ff 	call   c0002cc5 <_io_write>
c00041f0:	83 c4 1c       	addl   $0x1c,%esp
c00041f3:	c3             	ret    

c00041f4 <_dfs_seek>:
c00041f4:	83 ec 10       	subl   $0x10,%esp
c00041f7:	b8 00 00 00 00 	movl   $0x0,%eax
c00041fc:	8a 44 24 1c    	movb   0x1c(%esp,1),%al
c0004200:	50             	pushl  %eax
c0004201:	ff 74 24 1c    	pushl  0x1c(%esp,1)
c0004205:	8b 44 24 1c    	movl   0x1c(%esp,1),%eax
c0004209:	ff 70 04       	pushl  0x4(%eax)
c000420c:	e8 e1 ea ff ff 	call   c0002cf2 <_io_seek>
c0004211:	83 c4 1c       	addl   $0x1c,%esp
c0004214:	c3             	ret    

c0004215 <_dfs_control>:
c0004215:	83 ec 10       	subl   $0x10,%esp
c0004218:	ff 74 24 1c    	pushl  0x1c(%esp,1)
c000421c:	ff 74 24 1c    	pushl  0x1c(%esp,1)
c0004220:	8b 44 24 1c    	movl   0x1c(%esp,1),%eax
c0004224:	ff 70 04       	pushl  0x4(%eax)
c0004227:	e8 fd ea ff ff 	call   c0002d29 <_io_control>
c000422c:	83 c4 1c       	addl   $0x1c,%esp
c000422f:	c3             	ret    

c0004230 <_dfs_create>:
c0004230:	b8 ff ff ff ff 	movl   $0xffffffff,%eax
c0004235:	c3             	ret    

c0004236 <_dfs_delete>:
c0004236:	83 ec 18       	subl   $0x18,%esp
c0004239:	ff 74 24 1c    	pushl  0x1c(%esp,1)
c000423d:	e8 d7 fe ff ff 	call   c0004119 <_dfs_remove>
c0004242:	83 c4 1c       	addl   $0x1c,%esp
c0004245:	c3             	ret    

c0004246 <_dfs_copy>:
c0004246:	56             	pushl  %esi
c0004247:	53             	pushl  %ebx
c0004248:	83 ec 10       	subl   $0x10,%esp
c000424b:	ff 74 24 1c    	pushl  0x1c(%esp,1)
c000424f:	e8 91 fe ff ff 	call   c00040e5 <_dfs_find>
c0004254:	89 c6          	movl   %eax,%esi
c0004256:	83 c4 10       	addl   $0x10,%esp
c0004259:	b8 ff ff ff ff 	movl   $0xffffffff,%eax
c000425e:	85 f6          	testl  %esi,%esi
c0004260:	74 32          	je     c0004294 <_dfs_copy+0x4e>
c0004262:	83 ec 0c       	subl   $0xc,%esp
c0004265:	6a 18          	pushl  $0x18
c0004267:	e8 f3 db ff ff 	call   c0001e5f <_mm_malloc>
c000426c:	89 c3          	movl   %eax,%ebx
c000426e:	83 c4 0c       	addl   $0xc,%esp
c0004271:	6a 18          	pushl  $0x18
c0004273:	ff 76 04       	pushl  0x4(%esi)
c0004276:	50             	pushl  %eax
c0004277:	e8 b9 1c 00 00 	call   c0005f35 <_memcpy>
c000427c:	83 c4 0c       	addl   $0xc,%esp
c000427f:	ff 76 0c       	pushl  0xc(%esi)
c0004282:	53             	pushl  %ebx
c0004283:	ff 74 24 20    	pushl  0x20(%esp,1)
c0004287:	e8 0c fe ff ff 	call   c0004098 <_dfs_add>
c000428c:	b8 00 00 00 00 	movl   $0x0,%eax
c0004291:	83 c4 10       	addl   $0x10,%esp
c0004294:	83 c4 04       	addl   $0x4,%esp
c0004297:	5b             	popl   %ebx
c0004298:	5e             	popl   %esi
c0004299:	c3             	ret    

c000429a <_dfs_rename>:
c000429a:	53             	pushl  %ebx
c000429b:	83 ec 10       	subl   $0x10,%esp
c000429e:	8b 5c 24 18    	movl   0x18(%esp,1),%ebx
c00042a2:	ff 74 24 1c    	pushl  0x1c(%esp,1)
c00042a6:	53             	pushl  %ebx
c00042a7:	e8 9a ff ff ff 	call   c0004246 <_dfs_copy>
c00042ac:	83 c4 10       	addl   $0x10,%esp
c00042af:	ba ff ff ff ff 	movl   $0xffffffff,%edx
c00042b4:	83 f8 ff       	cmpl   $0xffffffff,%eax
c00042b7:	74 0e          	je     c00042c7 <_dfs_rename+0x2d>
c00042b9:	83 ec 0c       	subl   $0xc,%esp
c00042bc:	53             	pushl  %ebx
c00042bd:	e8 74 ff ff ff 	call   c0004236 <_dfs_delete>
c00042c2:	89 c2          	movl   %eax,%edx
c00042c4:	83 c4 10       	addl   $0x10,%esp
c00042c7:	89 d0          	movl   %edx,%eax
c00042c9:	83 c4 08       	addl   $0x8,%esp
c00042cc:	5b             	popl   %ebx
c00042cd:	c3             	ret    

c00042ce <_dfs_list>:
c00042ce:	55             	pushl  %ebp
c00042cf:	57             	pushl  %edi
c00042d0:	56             	pushl  %esi
c00042d1:	53             	pushl  %ebx
c00042d2:	83 ec 0c       	subl   $0xc,%esp
c00042d5:	a1 44 80 00 c0 	movl   0xc0008044,%eax
c00042da:	85 c0          	testl  %eax,%eax
c00042dc:	74 72          	je     c0004350 <_dfs_list+0x82>
c00042de:	ba 00 00 00 00 	movl   $0x0,%edx
c00042e3:	42             	incl   %edx
c00042e4:	8b 00          	movl   (%eax),%eax
c00042e6:	85 c0          	testl  %eax,%eax
c00042e8:	75 f9          	jne    c00042e3 <_dfs_list+0x15>
c00042ea:	85 d2          	testl  %edx,%edx
c00042ec:	74 62          	je     c0004350 <_dfs_list+0x82>
c00042ee:	83 ec 0c       	subl   $0xc,%esp
c00042f1:	8d 04 92       	leal   (%edx,%edx,4),%eax
c00042f4:	8d 04 c5 01 00 	leal   0x1(,%eax,8),%eax
c00042f9:	00 00 
c00042fb:	50             	pushl  %eax
c00042fc:	e8 5e db ff ff 	call   c0001e5f <_mm_malloc>
c0004301:	89 c7          	movl   %eax,%edi
c0004303:	8b 35 44 80 00 	movl   0xc0008044,%esi
c0004308:	c0 
c0004309:	83 c4 10       	addl   $0x10,%esp
c000430c:	bd 00 00 00 00 	movl   $0x0,%ebp
c0004311:	85 f6          	testl  %esi,%esi
c0004313:	74 30          	je     c0004345 <_dfs_list+0x77>
c0004315:	89 c3          	movl   %eax,%ebx
c0004317:	bd 00 00 00 00 	movl   $0x0,%ebp
c000431c:	83 ec 04       	subl   $0x4,%esp
c000431f:	6a 20          	pushl  $0x20
c0004321:	ff 76 08       	pushl  0x8(%esi)
c0004324:	53             	pushl  %ebx
c0004325:	e8 4f 1b 00 00 	call   c0005e79 <_strncpy>
c000432a:	c7 43 20 02 00 	movl   $0x2,0x20(%ebx)
c000432f:	00 00 
c0004331:	c7 43 24 00 00 	movl   $0x0,0x24(%ebx)
c0004336:	00 00 
c0004338:	8b 36          	movl   (%esi),%esi
c000433a:	45             	incl   %ebp
c000433b:	83 c3 28       	addl   $0x28,%ebx
c000433e:	83 c4 10       	addl   $0x10,%esp
c0004341:	85 f6          	testl  %esi,%esi
c0004343:	75 d7          	jne    c000431c <_dfs_list+0x4e>
c0004345:	8d 44 ad 00    	leal   0x0(%ebp,%ebp,4),%eax
c0004349:	c6 44 c7 28 00 	movb   $0x0,0x28(%edi,%eax,8)
c000434e:	eb 05          	jmp    c0004355 <_dfs_list+0x87>
c0004350:	bf 00 00 00 00 	movl   $0x0,%edi
c0004355:	89 f8          	movl   %edi,%eax
c0004357:	83 c4 0c       	addl   $0xc,%esp
c000435a:	5b             	popl   %ebx
c000435b:	5e             	popl   %esi
c000435c:	5f             	popl   %edi
c000435d:	5d             	popl   %ebp
c000435e:	c3             	ret    

c000435f <_dfs_init>:
c000435f:	83 ec 18       	subl   $0x18,%esp
c0004362:	6a 3c          	pushl  $0x3c
c0004364:	e8 f6 da ff ff 	call   c0001e5f <_mm_malloc>
c0004369:	c7 00 02 00 00 	movl   $0x2,(%eax)
c000436e:	00 
c000436f:	c7 40 04 74 41 	movl   $0xc0004174,0x4(%eax)
c0004374:	00 c0 
c0004376:	c7 40 08 ab 41 	movl   $0xc00041ab,0x8(%eax)
c000437b:	00 c0 
c000437d:	c7 40 0c be 41 	movl   $0xc00041be,0xc(%eax)
c0004382:	00 c0 
c0004384:	c7 40 10 d9 41 	movl   $0xc00041d9,0x10(%eax)
c0004389:	00 c0 
c000438b:	c7 40 14 f4 41 	movl   $0xc00041f4,0x14(%eax)
c0004390:	00 c0 
c0004392:	c7 40 18 15 42 	movl   $0xc0004215,0x18(%eax)
c0004397:	00 c0 
c0004399:	c7 40 1c 30 42 	movl   $0xc0004230,0x1c(%eax)
c000439e:	00 c0 
c00043a0:	c7 40 20 36 42 	movl   $0xc0004236,0x20(%eax)
c00043a5:	00 c0 
c00043a7:	c7 40 24 9a 42 	movl   $0xc000429a,0x24(%eax)
c00043ac:	00 c0 
c00043ae:	c7 40 28 46 42 	movl   $0xc0004246,0x28(%eax)
c00043b3:	00 c0 
c00043b5:	c7 40 2c ce 42 	movl   $0xc00042ce,0x2c(%eax)
c00043ba:	00 c0 
c00043bc:	c7 40 30 5f 41 	movl   $0xc000415f,0x30(%eax)
c00043c1:	00 c0 
c00043c3:	c7 40 34 6e 41 	movl   $0xc000416e,0x34(%eax)
c00043c8:	00 c0 
c00043ca:	89 04 24       	movl   %eax,(%esp,1)
c00043cd:	e8 76 0f 00 00 	call   c0005348 <_vfs_register>
c00043d2:	83 c4 1c       	addl   $0x1c,%esp
c00043d5:	c3             	ret    
c00043d6:	90             	nop    
c00043d7:	90             	nop    

c00043d8 <_fat_setFATCluster>:
c00043d8:	53             	pushl  %ebx
c00043d9:	83 ec 08       	subl   $0x8,%esp
c00043dc:	8b 5c 24 10    	movl   0x10(%esp,1),%ebx
c00043e0:	8b 54 24 14    	movl   0x14(%esp,1),%edx
c00043e4:	8b 4c 24 18    	movl   0x18(%esp,1),%ecx
c00043e8:	8a 83 08 02 00 	movb   0x208(%ebx),%al
c00043ed:	00 
c00043ee:	3c 10          	cmpb   $0x10,%al
c00043f0:	74 1f          	je     c0004411 <_fat_setFATCluster+0x39>
c00043f2:	3c 20          	cmpb   $0x20,%al
c00043f4:	74 26          	je     c000441c <_fat_setFATCluster+0x44>
c00043f6:	3c 0c          	cmpb   $0xc,%al
c00043f8:	75 5c          	jne    c0004456 <_fat_setFATCluster+0x7e>
c00043fa:	8d 04 52       	leal   (%edx,%edx,2),%eax
c00043fd:	89 c2          	movl   %eax,%edx
c00043ff:	c1 ea 1f       	shrl   $0x1f,%edx
c0004402:	01 c2          	addl   %eax,%edx
c0004404:	d1 fa          	sarl   %edx
c0004406:	8b 83 0c 02 00 	movl   0x20c(%ebx),%eax
c000440b:	00 
c000440c:	88 0c 10       	movb   %cl,(%eax,%edx,1)
c000440f:	eb 14          	jmp    c0004425 <_fat_setFATCluster+0x4d>
c0004411:	8b 83 0c 02 00 	movl   0x20c(%ebx),%eax
c0004416:	00 
c0004417:	88 0c 10       	movb   %cl,(%eax,%edx,1)
c000441a:	eb 09          	jmp    c0004425 <_fat_setFATCluster+0x4d>
c000441c:	8b 83 0c 02 00 	movl   0x20c(%ebx),%eax
c0004421:	00 
c0004422:	88 0c 10       	movb   %cl,(%eax,%edx,1)
c0004425:	83 7c 24 1c 00 	cmpl   $0x0,0x1c(%esp,1)
c000442a:	74 2a          	je     c0004456 <_fat_setFATCluster+0x7e>
c000442c:	83 ec 04       	subl   $0x4,%esp
c000442f:	6a 00          	pushl  $0x0
c0004431:	68 01 02 00 00 	pushl  $0x201
c0004436:	ff 33          	pushl  (%ebx)
c0004438:	e8 d4 12 00 00 	call   c0005711 <_vfs_seek>
c000443d:	83 c4 0c       	addl   $0xc,%esp
c0004440:	ff b3 10 02 00 	pushl  0x210(%ebx)
c0004445:	00 
c0004446:	ff b3 0c 02 00 	pushl  0x20c(%ebx)
c000444b:	00 
c000444c:	ff 33          	pushl  (%ebx)
c000444e:	e8 62 12 00 00 	call   c00056b5 <_vfs_write>
c0004453:	83 c4 10       	addl   $0x10,%esp
c0004456:	83 c4 08       	addl   $0x8,%esp
c0004459:	5b             	popl   %ebx
c000445a:	c3             	ret    

c000445b <_fat_getFATCluster>:
c000445b:	53             	pushl  %ebx
c000445c:	8b 4c 24 08    	movl   0x8(%esp,1),%ecx
c0004460:	8b 5c 24 0c    	movl   0xc(%esp,1),%ebx
c0004464:	8a 81 08 02 00 	movb   0x208(%ecx),%al
c0004469:	00 
c000446a:	3c 10          	cmpb   $0x10,%al
c000446c:	74 41          	je     c00044af <_fat_getFATCluster+0x54>
c000446e:	3c 20          	cmpb   $0x20,%al
c0004470:	74 57          	je     c00044c9 <_fat_getFATCluster+0x6e>
c0004472:	3c 0c          	cmpb   $0xc,%al
c0004474:	75 61          	jne    c00044d7 <_fat_getFATCluster+0x7c>
c0004476:	8d 14 5b       	leal   (%ebx,%ebx,2),%edx
c0004479:	89 d0          	movl   %edx,%eax
c000447b:	c1 e8 1f       	shrl   $0x1f,%eax
c000447e:	01 d0          	addl   %edx,%eax
c0004480:	d1 f8          	sarl   %eax
c0004482:	8b 91 0c 02 00 	movl   0x20c(%ecx),%edx
c0004487:	00 
c0004488:	66 8b 04 02    	movw   (%edx,%eax,1),%ax
c000448c:	25 ff ff 00 00 	andl   $0xffff,%eax
c0004491:	f6 c3 01       	testb  $0x1,%bl
c0004494:	74 07          	je     c000449d <_fat_getFATCluster+0x42>
c0004496:	89 c2          	movl   %eax,%edx
c0004498:	c1 fa 04       	sarl   $0x4,%edx
c000449b:	eb 08          	jmp    c00044a5 <_fat_getFATCluster+0x4a>
c000449d:	89 c2          	movl   %eax,%edx
c000449f:	81 e2 ff 0f 00 	andl   $0xfff,%edx
c00044a4:	00 
c00044a5:	81 fa ff 0f 00 	cmpl   $0xfff,%edx
c00044aa:	00 
c00044ab:	75 2f          	jne    c00044dc <_fat_getFATCluster+0x81>
c00044ad:	eb 28          	jmp    c00044d7 <_fat_getFATCluster+0x7c>
c00044af:	8b 81 0c 02 00 	movl   0x20c(%ecx),%eax
c00044b4:	00 
c00044b5:	66 8b 04 58    	movw   (%eax,%ebx,2),%ax
c00044b9:	89 c2          	movl   %eax,%edx
c00044bb:	81 e2 ff ff 00 	andl   $0xffff,%edx
c00044c0:	00 
c00044c1:	66 83 f8 ff    	cmpw   $0xffffffff,%ax
c00044c5:	75 15          	jne    c00044dc <_fat_getFATCluster+0x81>
c00044c7:	eb 0e          	jmp    c00044d7 <_fat_getFATCluster+0x7c>
c00044c9:	8b 81 0c 02 00 	movl   0x20c(%ecx),%eax
c00044ce:	00 
c00044cf:	8b 14 98       	movl   (%eax,%ebx,4),%edx
c00044d2:	83 fa ff       	cmpl   $0xffffffff,%edx
c00044d5:	75 05          	jne    c00044dc <_fat_getFATCluster+0x81>
c00044d7:	ba ff ff ff ff 	movl   $0xffffffff,%edx
c00044dc:	89 d0          	movl   %edx,%eax
c00044de:	5b             	popl   %ebx
c00044df:	c3             	ret    

c00044e0 <_fat_determineType>:
c00044e0:	57             	pushl  %edi
c00044e1:	56             	pushl  %esi
c00044e2:	53             	pushl  %ebx
c00044e3:	8b 4c 24 10    	movl   0x10(%esp,1),%ecx
c00044e7:	66 8b 41 0f    	movw   0xf(%ecx),%ax
c00044eb:	89 c3          	movl   %eax,%ebx
c00044ed:	81 e3 ff ff 00 	andl   $0xffff,%ebx
c00044f2:	00 
c00044f3:	66 8b 51 15    	movw   0x15(%ecx),%dx
c00044f7:	81 e2 ff ff 00 	andl   $0xffff,%edx
c00044fc:	00 
c00044fd:	c1 e2 05       	shll   $0x5,%edx
c0004500:	8d 54 1a ff    	leal   0xffffffff(%edx,%ebx,1),%edx
c0004504:	89 d0          	movl   %edx,%eax
c0004506:	c1 fa 1f       	sarl   $0x1f,%edx
c0004509:	f7 fb          	idivl  %ebx,%eax
c000450b:	89 c7          	movl   %eax,%edi
c000450d:	66 8b 41 1a    	movw   0x1a(%ecx),%ax
c0004511:	66 85 c0       	testw  %ax,%ax
c0004514:	74 0a          	je     c0004520 <_fat_determineType+0x40>
c0004516:	89 c6          	movl   %eax,%esi
c0004518:	81 e6 ff ff 00 	andl   $0xffff,%esi
c000451d:	00 
c000451e:	eb 03          	jmp    c0004523 <_fat_determineType+0x43>
c0004520:	8b 71 28       	movl   0x28(%ecx),%esi
c0004523:	66 8b 41 17    	movw   0x17(%ecx),%ax
c0004527:	66 85 c0       	testw  %ax,%ax
c000452a:	74 0a          	je     c0004536 <_fat_determineType+0x56>
c000452c:	89 c3          	movl   %eax,%ebx
c000452e:	81 e3 ff ff 00 	andl   $0xffff,%ebx
c0004533:	00 
c0004534:	eb 03          	jmp    c0004539 <_fat_determineType+0x59>
c0004536:	8b 59 24       	movl   0x24(%ecx),%ebx
c0004539:	66 8b 41 12    	movw   0x12(%ecx),%ax
c000453d:	25 ff ff 00 00 	andl   $0xffff,%eax
c0004542:	ba 00 00 00 00 	movl   $0x0,%edx
c0004547:	8a 51 14       	movb   0x14(%ecx),%dl
c000454a:	0f af d6       	imull  %esi,%edx
c000454d:	01 d0          	addl   %edx,%eax
c000454f:	8d 04 07       	leal   (%edi,%eax,1),%eax
c0004552:	89 da          	movl   %ebx,%edx
c0004554:	29 c2          	subl   %eax,%edx
c0004556:	b8 00 00 00 00 	movl   $0x0,%eax
c000455b:	8a 41 11       	movb   0x11(%ecx),%al
c000455e:	89 c3          	movl   %eax,%ebx
c0004560:	89 d0          	movl   %edx,%eax
c0004562:	c1 fa 1f       	sarl   $0x1f,%edx
c0004565:	f7 fb          	idivl  %ebx,%eax
c0004567:	3d f4 0f 00 00 	cmpl   $0xff4,%eax
c000456c:	7f 09          	jg     c0004577 <_fat_determineType+0x97>
c000456e:	c6 81 08 02 00 	movb   $0xc,0x208(%ecx)
c0004573:	00 0c 
c0004575:	eb 15          	jmp    c000458c <_fat_determineType+0xac>
c0004577:	3d f4 ff 00 00 	cmpl   $0xfff4,%eax
c000457c:	0f 9f c0       	setg   %al
c000457f:	48             	decl   %eax
c0004580:	83 e0 f0       	andl   $0xfffffff0,%eax
c0004583:	83 c0 20       	addl   $0x20,%eax
c0004586:	88 81 08 02 00 	movb   %al,0x208(%ecx)
c000458b:	00 
c000458c:	b8 00 00 00 00 	movl   $0x0,%eax
c0004591:	8a 81 08 02 00 	movb   0x208(%ecx),%al
c0004596:	00 
c0004597:	5b             	popl   %ebx
c0004598:	5e             	popl   %esi
c0004599:	5f             	popl   %edi
c000459a:	c3             	ret    

c000459b <_fat_cluster2block>:
c000459b:	57             	pushl  %edi
c000459c:	56             	pushl  %esi
c000459d:	53             	pushl  %ebx
c000459e:	8b 5c 24 10    	movl   0x10(%esp,1),%ebx
c00045a2:	b8 00 00 00 00 	movl   $0x0,%eax
c00045a7:	8a 43 11       	movb   0x11(%ebx),%al
c00045aa:	0f af 44 24 14 	imull  0x14(%esp,1),%eax
c00045af:	b9 00 00 00 00 	movl   $0x0,%ecx
c00045b4:	8a 4b 14       	movb   0x14(%ebx),%cl
c00045b7:	66 8b 53 1a    	movw   0x1a(%ebx),%dx
c00045bb:	81 e2 ff ff 00 	andl   $0xffff,%edx
c00045c0:	00 
c00045c1:	0f af ca       	imull  %edx,%ecx
c00045c4:	01 c8          	addl   %ecx,%eax
c00045c6:	89 c6          	movl   %eax,%esi
c00045c8:	03 73 20       	addl   0x20(%ebx),%esi
c00045cb:	66 8b 4b 0f    	movw   0xf(%ebx),%cx
c00045cf:	66 c1 e9 05    	shrw   $0x5,%cx
c00045d3:	66 8b 7b 15    	movw   0x15(%ebx),%di
c00045d7:	bb 00 00 00 00 	movl   $0x0,%ebx
c00045dc:	89 f8          	movl   %edi,%eax
c00045de:	89 da          	movl   %ebx,%edx
c00045e0:	66 f7 f1       	divw   %cx,%ax
c00045e3:	89 c2          	movl   %eax,%edx
c00045e5:	81 e2 ff ff 00 	andl   $0xffff,%edx
c00045ea:	00 
c00045eb:	8d 44 16 ff    	leal   0xffffffff(%esi,%edx,1),%eax
c00045ef:	5b             	popl   %ebx
c00045f0:	5e             	popl   %esi
c00045f1:	5f             	popl   %edi
c00045f2:	c3             	ret    

c00045f3 <_fat_rwCluster>:
c00045f3:	55             	pushl  %ebp
c00045f4:	57             	pushl  %edi
c00045f5:	56             	pushl  %esi
c00045f6:	53             	pushl  %ebx
c00045f7:	83 ec 0c       	subl   $0xc,%esp
c00045fa:	8b 5c 24 20    	movl   0x20(%esp,1),%ebx
c00045fe:	8b 74 24 28    	movl   0x28(%esp,1),%esi
c0004602:	8b 44 24 2c    	movl   0x2c(%esp,1),%eax
c0004606:	bd 81 56 00 c0 	movl   $0xc0005681,%ebp
c000460b:	83 f8 01       	cmpl   $0x1,%eax
c000460e:	74 0a          	je     c000461a <_fat_rwCluster+0x27>
c0004610:	83 f8 02       	cmpl   $0x2,%eax
c0004613:	75 6b          	jne    c0004680 <_fat_rwCluster+0x8d>
c0004615:	bd b5 56 00 c0 	movl   $0xc00056b5,%ebp
c000461a:	83 ec 04       	subl   $0x4,%esp
c000461d:	6a 00          	pushl  $0x0
c000461f:	ff 74 24 2c    	pushl  0x2c(%esp,1)
c0004623:	53             	pushl  %ebx
c0004624:	e8 72 ff ff ff 	call   c000459b <_fat_cluster2block>
c0004629:	83 c4 08       	addl   $0x8,%esp
c000462c:	66 8b 53 0f    	movw   0xf(%ebx),%dx
c0004630:	81 e2 ff ff 00 	andl   $0xffff,%edx
c0004635:	00 
c0004636:	0f af c2       	imull  %edx,%eax
c0004639:	40             	incl   %eax
c000463a:	50             	pushl  %eax
c000463b:	ff 33          	pushl  (%ebx)
c000463d:	e8 cf 10 00 00 	call   c0005711 <_vfs_seek>
c0004642:	83 c4 10       	addl   $0x10,%esp
c0004645:	80 7b 11 00    	cmpb   $0x0,0x11(%ebx)
c0004649:	74 3c          	je     c0004687 <_fat_rwCluster+0x94>
c000464b:	bf 00 00 00 00 	movl   $0x0,%edi
c0004650:	66 8b 43 0f    	movw   0xf(%ebx),%ax
c0004654:	25 ff ff 00 00 	andl   $0xffff,%eax
c0004659:	89 fa          	movl   %edi,%edx
c000465b:	0f af d0       	imull  %eax,%edx
c000465e:	01 d6          	addl   %edx,%esi
c0004660:	83 ec 04       	subl   $0x4,%esp
c0004663:	50             	pushl  %eax
c0004664:	56             	pushl  %esi
c0004665:	ff 33          	pushl  (%ebx)
c0004667:	ff d5          	call   *%ebp
c0004669:	83 c4 10       	addl   $0x10,%esp
c000466c:	83 f8 ff       	cmpl   $0xffffffff,%eax
c000466f:	74 0f          	je     c0004680 <_fat_rwCluster+0x8d>
c0004671:	47             	incl   %edi
c0004672:	b8 00 00 00 00 	movl   $0x0,%eax
c0004677:	8a 43 11       	movb   0x11(%ebx),%al
c000467a:	39 f8          	cmpl   %edi,%eax
c000467c:	7e 09          	jle    c0004687 <_fat_rwCluster+0x94>
c000467e:	eb d0          	jmp    c0004650 <_fat_rwCluster+0x5d>
c0004680:	b8 ff ff ff ff 	movl   $0xffffffff,%eax
c0004685:	eb 05          	jmp    c000468c <_fat_rwCluster+0x99>
c0004687:	b8 00 00 00 00 	movl   $0x0,%eax
c000468c:	83 c4 0c       	addl   $0xc,%esp
c000468f:	5b             	popl   %ebx
c0004690:	5e             	popl   %esi
c0004691:	5f             	popl   %edi
c0004692:	5d             	popl   %ebp
c0004693:	c3             	ret    

c0004694 <_fat_compareName>:
c0004694:	57             	pushl  %edi
c0004695:	56             	pushl  %esi
c0004696:	53             	pushl  %ebx
c0004697:	8b 74 24 10    	movl   0x10(%esp,1),%esi
c000469b:	8b 7c 24 14    	movl   0x14(%esp,1),%edi
c000469f:	8a 06          	movb   (%esi),%al
c00046a1:	84 c0          	testb  %al,%al
c00046a3:	0f 94 c2       	sete   %dl
c00046a6:	3c e5          	cmpb   $0xe5,%al
c00046a8:	0f 94 c0       	sete   %al
c00046ab:	08 c2          	orb    %al,%dl
c00046ad:	75 4b          	jne    c00046fa <_fat_compareName+0x66>
c00046af:	89 f1          	movl   %esi,%ecx
c00046b1:	bb 00 00 00 00 	movl   $0x0,%ebx
c00046b6:	8a 01          	movb   (%ecx),%al
c00046b8:	3c 20          	cmpb   $0x20,%al
c00046ba:	74 14          	je     c00046d0 <_fat_compareName+0x3c>
c00046bc:	0f be 14 1f    	movsbl (%edi,%ebx,1),%edx
c00046c0:	25 ff 00 00 00 	andl   $0xff,%eax
c00046c5:	39 c2          	cmpl   %eax,%edx
c00046c7:	75 31          	jne    c00046fa <_fat_compareName+0x66>
c00046c9:	43             	incl   %ebx
c00046ca:	41             	incl   %ecx
c00046cb:	83 fb 08       	cmpl   $0x8,%ebx
c00046ce:	75 e6          	jne    c00046b6 <_fat_compareName+0x22>
c00046d0:	80 7c 3b 01 2e 	cmpb   $0x2e,0x1(%ebx,%edi,1)
c00046d5:	75 2a          	jne    c0004701 <_fat_compareName+0x6d>
c00046d7:	8d 4c 3b 02    	leal   0x2(%ebx,%edi,1),%ecx
c00046db:	bb 03 00 00 00 	movl   $0x3,%ebx
c00046e0:	8a 46 08       	movb   0x8(%esi),%al
c00046e3:	3c 20          	cmpb   $0x20,%al
c00046e5:	74 1a          	je     c0004701 <_fat_compareName+0x6d>
c00046e7:	0f be 11       	movsbl (%ecx),%edx
c00046ea:	25 ff 00 00 00 	andl   $0xff,%eax
c00046ef:	39 c2          	cmpl   %eax,%edx
c00046f1:	75 07          	jne    c00046fa <_fat_compareName+0x66>
c00046f3:	46             	incl   %esi
c00046f4:	41             	incl   %ecx
c00046f5:	4b             	decl   %ebx
c00046f6:	74 09          	je     c0004701 <_fat_compareName+0x6d>
c00046f8:	eb e6          	jmp    c00046e0 <_fat_compareName+0x4c>
c00046fa:	b8 00 00 00 00 	movl   $0x0,%eax
c00046ff:	eb 05          	jmp    c0004706 <_fat_compareName+0x72>
c0004701:	b8 01 00 00 00 	movl   $0x1,%eax
c0004706:	5b             	popl   %ebx
c0004707:	5e             	popl   %esi
c0004708:	5f             	popl   %edi
c0004709:	c3             	ret    

c000470a <_fat_getIndex>:
c000470a:	57             	pushl  %edi
c000470b:	56             	pushl  %esi
c000470c:	53             	pushl  %ebx
c000470d:	8b 7c 24 14    	movl   0x14(%esp,1),%edi
c0004711:	8b 5c 24 10    	movl   0x10(%esp,1),%ebx
c0004715:	be 00 00 00 00 	movl   $0x0,%esi
c000471a:	80 3b 00       	cmpb   $0x0,(%ebx)
c000471d:	74 1f          	je     c000473e <_fat_getIndex+0x34>
c000471f:	66 83 7b 1a 00 	cmpw   $0x0,0x1a(%ebx)
c0004724:	74 0f          	je     c0004735 <_fat_getIndex+0x2b>
c0004726:	57             	pushl  %edi
c0004727:	53             	pushl  %ebx
c0004728:	e8 67 ff ff ff 	call   c0004694 <_fat_compareName>
c000472d:	83 c4 08       	addl   $0x8,%esp
c0004730:	83 f8 01       	cmpl   $0x1,%eax
c0004733:	74 0e          	je     c0004743 <_fat_getIndex+0x39>
c0004735:	46             	incl   %esi
c0004736:	83 c3 20       	addl   $0x20,%ebx
c0004739:	83 fe 20       	cmpl   $0x20,%esi
c000473c:	75 dc          	jne    c000471a <_fat_getIndex+0x10>
c000473e:	be ff ff ff ff 	movl   $0xffffffff,%esi
c0004743:	89 f0          	movl   %esi,%eax
c0004745:	5b             	popl   %ebx
c0004746:	5e             	popl   %esi
c0004747:	5f             	popl   %edi
c0004748:	c3             	ret    

c0004749 <_fat_file2entry>:
c0004749:	55             	pushl  %ebp
c000474a:	57             	pushl  %edi
c000474b:	56             	pushl  %esi
c000474c:	53             	pushl  %ebx
c000474d:	83 ec 48       	subl   $0x48,%esp
c0004750:	8b 7c 24 60    	movl   0x60(%esp,1),%edi
c0004754:	80 3f 2f       	cmpb   $0x2f,(%edi)
c0004757:	0f 94 c0       	sete   %al
c000475a:	25 ff 00 00 00 	andl   $0xff,%eax
c000475f:	01 c7          	addl   %eax,%edi
c0004761:	57             	pushl  %edi
c0004762:	e8 51 16 00 00 	call   c0005db8 <_strlen>
c0004767:	89 44 24 20    	movl   %eax,0x20(%esp,1)
c000476b:	83 c4 04       	addl   $0x4,%esp
c000476e:	8b 44 24 5c    	movl   0x5c(%esp,1),%eax
c0004772:	ff b0 14 02 00 	pushl  0x214(%eax)
c0004777:	00 
c0004778:	e8 e2 d6 ff ff 	call   c0001e5f <_mm_malloc>
c000477d:	89 44 24 28    	movl   %eax,0x28(%esp,1)
c0004781:	8b 44 24 60    	movl   0x60(%esp,1),%eax
c0004785:	8b 80 04 02 00 	movl   0x204(%eax),%eax
c000478a:	00 
c000478b:	89 44 24 24    	movl   %eax,0x24(%esp,1)
c000478f:	83 c4 10       	addl   $0x10,%esp
c0004792:	89 fb          	movl   %edi,%ebx
c0004794:	83 7c 24 10 00 	cmpl   $0x0,0x10(%esp,1)
c0004799:	0f 88 94 00 00 	js     c0004833 <_fat_file2entry+0xea>
c000479e:	00 
c000479f:	89 fb          	movl   %edi,%ebx
c00047a1:	c7 44 24 0c ff 	movl   $0xffffffff,0xc(%esp,1)
c00047a6:	ff ff ff 
c00047a9:	bd 01 00 00 00 	movl   $0x1,%ebp
c00047ae:	8d 34 2f       	leal   (%edi,%ebp,1),%esi
c00047b1:	8a 46 ff       	movb   0xffffffff(%esi),%al
c00047b4:	3c 2f          	cmpb   $0x2f,%al
c00047b6:	0f 94 c2       	sete   %dl
c00047b9:	84 c0          	testb  %al,%al
c00047bb:	0f 94 c0       	sete   %al
c00047be:	08 c2          	orb    %al,%dl
c00047c0:	74 5d          	je     c000481f <_fat_file2entry+0xd6>
c00047c2:	c6 46 ff 00    	movb   $0x0,0xffffffff(%esi)
c00047c6:	53             	pushl  %ebx
c00047c7:	ff 74 24 18    	pushl  0x18(%esp,1)
c00047cb:	e8 3a ff ff ff 	call   c000470a <_fat_getIndex>
c00047d0:	89 44 24 14    	movl   %eax,0x14(%esp,1)
c00047d4:	83 c4 08       	addl   $0x8,%esp
c00047d7:	83 f8 ff       	cmpl   $0xffffffff,%eax
c00047da:	74 57          	je     c0004833 <_fat_file2entry+0xea>
c00047dc:	89 c3          	movl   %eax,%ebx
c00047de:	c1 e3 05       	shll   $0x5,%ebx
c00047e1:	03 5c 24 14    	addl   0x14(%esp,1),%ebx
c00047e5:	83 ec 04       	subl   $0x4,%esp
c00047e8:	6a 20          	pushl  $0x20
c00047ea:	53             	pushl  %ebx
c00047eb:	8d 44 24 28    	leal   0x28(%esp,1),%eax
c00047ef:	50             	pushl  %eax
c00047f0:	e8 40 17 00 00 	call   c0005f35 <_memcpy>
c00047f5:	6a 01          	pushl  $0x1
c00047f7:	ff 74 24 2c    	pushl  0x2c(%esp,1)
c00047fb:	66 8b 43 1a    	movw   0x1a(%ebx),%ax
c00047ff:	25 ff ff 00 00 	andl   $0xffff,%eax
c0004804:	50             	pushl  %eax
c0004805:	ff 74 24 6c    	pushl  0x6c(%esp,1)
c0004809:	e8 e5 fd ff ff 	call   c00045f3 <_fat_rwCluster>
c000480e:	83 c4 20       	addl   $0x20,%esp
c0004811:	85 c0          	testl  %eax,%eax
c0004813:	78 44          	js     c0004859 <_fat_file2entry+0x110>
c0004815:	8b 44 24 18    	movl   0x18(%esp,1),%eax
c0004819:	89 44 24 14    	movl   %eax,0x14(%esp,1)
c000481d:	89 f3          	movl   %esi,%ebx
c000481f:	8d 45 01       	leal   0x1(%ebp),%eax
c0004822:	39 6c 24 10    	cmpl   %ebp,0x10(%esp,1)
c0004826:	7c 04          	jl     c000482c <_fat_file2entry+0xe3>
c0004828:	89 c5          	movl   %eax,%ebp
c000482a:	eb 82          	jmp    c00047ae <_fat_file2entry+0x65>
c000482c:	83 7c 24 0c ff 	cmpl   $0xffffffff,0xc(%esp,1)
c0004831:	75 3c          	jne    c000486f <_fat_file2entry+0x126>
c0004833:	83 ec 0c       	subl   $0xc,%esp
c0004836:	53             	pushl  %ebx
c0004837:	e8 7c 15 00 00 	call   c0005db8 <_strlen>
c000483c:	83 c4 10       	addl   $0x10,%esp
c000483f:	85 c0          	testl  %eax,%eax
c0004841:	74 2c          	je     c000486f <_fat_file2entry+0x126>
c0004843:	83 ec 0c       	subl   $0xc,%esp
c0004846:	ff 74 24 24    	pushl  0x24(%esp,1)
c000484a:	e8 83 d5 ff ff 	call   c0001dd2 <_mm_free>
c000484f:	b8 ff ff ff ff 	movl   $0xffffffff,%eax
c0004854:	83 c4 10       	addl   $0x10,%esp
c0004857:	eb 3d          	jmp    c0004896 <_fat_file2entry+0x14d>
c0004859:	83 ec 0c       	subl   $0xc,%esp
c000485c:	ff 74 24 24    	pushl  0x24(%esp,1)
c0004860:	e8 6d d5 ff ff 	call   c0001dd2 <_mm_free>
c0004865:	b8 ff ff ff ff 	movl   $0xffffffff,%eax
c000486a:	83 c4 10       	addl   $0x10,%esp
c000486d:	eb 27          	jmp    c0004896 <_fat_file2entry+0x14d>
c000486f:	83 ec 04       	subl   $0x4,%esp
c0004872:	6a 20          	pushl  $0x20
c0004874:	8d 44 24 24    	leal   0x24(%esp,1),%eax
c0004878:	50             	pushl  %eax
c0004879:	ff 74 24 64    	pushl  0x64(%esp,1)
c000487d:	e8 b3 16 00 00 	call   c0005f35 <_memcpy>
c0004882:	83 c4 04       	addl   $0x4,%esp
c0004885:	ff 74 24 24    	pushl  0x24(%esp,1)
c0004889:	e8 44 d5 ff ff 	call   c0001dd2 <_mm_free>
c000488e:	b8 00 00 00 00 	movl   $0x0,%eax
c0004893:	83 c4 10       	addl   $0x10,%esp
c0004896:	83 c4 3c       	addl   $0x3c,%esp
c0004899:	5b             	popl   %ebx
c000489a:	5e             	popl   %esi
c000489b:	5f             	popl   %edi
c000489c:	5d             	popl   %ebp
c000489d:	c3             	ret    

c000489e <_fat_setName>:
c000489e:	55             	pushl  %ebp
c000489f:	57             	pushl  %edi
c00048a0:	56             	pushl  %esi
c00048a1:	53             	pushl  %ebx
c00048a2:	83 ec 10       	subl   $0x10,%esp
c00048a5:	8b 6c 24 24    	movl   0x24(%esp,1),%ebp
c00048a9:	8b 7c 24 28    	movl   0x28(%esp,1),%edi
c00048ad:	6a 0b          	pushl  $0xb
c00048af:	6a 20          	pushl  $0x20
c00048b1:	55             	pushl  %ebp
c00048b2:	e8 58 16 00 00 	call   c0005f0f <_memset>
c00048b7:	89 eb          	movl   %ebp,%ebx
c00048b9:	be 00 00 00 00 	movl   $0x0,%esi
c00048be:	83 c4 10       	addl   $0x10,%esp
c00048c1:	8a 0c 37       	movb   (%edi,%esi,1),%cl
c00048c4:	84 c9          	testb  %cl,%cl
c00048c6:	0f 94 c2       	sete   %dl
c00048c9:	80 f9 2e       	cmpb   $0x2e,%cl
c00048cc:	0f 94 c0       	sete   %al
c00048cf:	08 c2          	orb    %al,%dl
c00048d1:	75 09          	jne    c00048dc <_fat_setName+0x3e>
c00048d3:	88 0b          	movb   %cl,(%ebx)
c00048d5:	46             	incl   %esi
c00048d6:	43             	incl   %ebx
c00048d7:	83 fe 08       	cmpl   $0x8,%esi
c00048da:	75 e5          	jne    c00048c1 <_fat_setName+0x23>
c00048dc:	8d 46 01       	leal   0x1(%esi),%eax
c00048df:	80 3c 3e 2e    	cmpb   $0x2e,(%esi,%edi,1)
c00048e3:	75 18          	jne    c00048fd <_fat_setName+0x5f>
c00048e5:	8d 0c 07       	leal   (%edi,%eax,1),%ecx
c00048e8:	89 ea          	movl   %ebp,%edx
c00048ea:	bb 03 00 00 00 	movl   $0x3,%ebx
c00048ef:	8a 01          	movb   (%ecx),%al
c00048f1:	84 c0          	testb  %al,%al
c00048f3:	74 08          	je     c00048fd <_fat_setName+0x5f>
c00048f5:	88 42 08       	movb   %al,0x8(%edx)
c00048f8:	41             	incl   %ecx
c00048f9:	42             	incl   %edx
c00048fa:	4b             	decl   %ebx
c00048fb:	75 f2          	jne    c00048ef <_fat_setName+0x51>
c00048fd:	b8 00 00 00 00 	movl   $0x0,%eax
c0004902:	83 c4 0c       	addl   $0xc,%esp
c0004905:	5b             	popl   %ebx
c0004906:	5e             	popl   %esi
c0004907:	5f             	popl   %edi
c0004908:	5d             	popl   %ebp
c0004909:	c3             	ret    

c000490a <_fat_findEntry>:
c000490a:	55             	pushl  %ebp
c000490b:	57             	pushl  %edi
c000490c:	56             	pushl  %esi
c000490d:	53             	pushl  %ebx
c000490e:	83 ec 14       	subl   $0x14,%esp
c0004911:	8b 5c 24 2c    	movl   0x2c(%esp,1),%ebx
c0004915:	6a 2f          	pushl  $0x2f
c0004917:	53             	pushl  %ebx
c0004918:	e8 b1 14 00 00 	call   c0005dce <_strrchr>
c000491d:	83 c4 10       	addl   $0x10,%esp
c0004920:	85 c0          	testl  %eax,%eax
c0004922:	0f 84 22 01 00 	je     c0004a4a <_fat_findEntry+0x140>
c0004927:	00 
c0004928:	8d 50 01       	leal   0x1(%eax),%edx
c000492b:	89 54 24 08    	movl   %edx,0x8(%esp,1)
c000492f:	c6 00 00       	movb   $0x0,(%eax)
c0004932:	83 7c 24 28 00 	cmpl   $0x0,0x28(%esp,1)
c0004937:	74 1e          	je     c0004957 <_fat_findEntry+0x4d>
c0004939:	83 ec 08       	subl   $0x8,%esp
c000493c:	6a 2f          	pushl  $0x2f
c000493e:	ff 74 24 34    	pushl  0x34(%esp,1)
c0004942:	e8 87 14 00 00 	call   c0005dce <_strrchr>
c0004947:	83 c4 10       	addl   $0x10,%esp
c000494a:	85 c0          	testl  %eax,%eax
c000494c:	0f 84 f8 00 00 	je     c0004a4a <_fat_findEntry+0x140>
c0004951:	00 
c0004952:	40             	incl   %eax
c0004953:	89 44 24 28    	movl   %eax,0x28(%esp,1)
c0004957:	83 ec 0c       	subl   $0xc,%esp
c000495a:	8b 44 24 2c    	movl   0x2c(%esp,1),%eax
c000495e:	ff b0 14 02 00 	pushl  0x214(%eax)
c0004963:	00 
c0004964:	e8 f6 d4 ff ff 	call   c0001e5f <_mm_malloc>
c0004969:	89 c7          	movl   %eax,%edi
c000496b:	83 c4 0c       	addl   $0xc,%esp
c000496e:	50             	pushl  %eax
c000496f:	53             	pushl  %ebx
c0004970:	ff 74 24 2c    	pushl  0x2c(%esp,1)
c0004974:	e8 d0 fd ff ff 	call   c0004749 <_fat_file2entry>
c0004979:	83 c4 10       	addl   $0x10,%esp
c000497c:	85 c0          	testl  %eax,%eax
c000497e:	79 16          	jns    c0004996 <_fat_findEntry+0x8c>
c0004980:	83 ec 0c       	subl   $0xc,%esp
c0004983:	57             	pushl  %edi
c0004984:	e8 49 d4 ff ff 	call   c0001dd2 <_mm_free>
c0004989:	bd ff ff ff ff 	movl   $0xffffffff,%ebp
c000498e:	83 c4 10       	addl   $0x10,%esp
c0004991:	e9 b9 00 00 00 	jmp    c0004a4f <_fat_findEntry+0x145>
c0004996:	66 8b 47 1a    	movw   0x1a(%edi),%ax
c000499a:	25 ff ff 00 00 	andl   $0xffff,%eax
c000499f:	89 44 24 04    	movl   %eax,0x4(%esp,1)
c00049a3:	89 3c 24       	movl   %edi,(%esp,1)
c00049a6:	6a 01          	pushl  $0x1
c00049a8:	57             	pushl  %edi
c00049a9:	ff 74 24 0c    	pushl  0xc(%esp,1)
c00049ad:	ff 74 24 2c    	pushl  0x2c(%esp,1)
c00049b1:	e8 3d fc ff ff 	call   c00045f3 <_fat_rwCluster>
c00049b6:	8b 54 24 30    	movl   0x30(%esp,1),%edx
c00049ba:	8b 82 14 02 00 	movl   0x214(%edx),%eax
c00049bf:	00 
c00049c0:	c1 e8 05       	shrl   $0x5,%eax
c00049c3:	83 c4 10       	addl   $0x10,%esp
c00049c6:	85 c0          	testl  %eax,%eax
c00049c8:	74 6d          	je     c0004a37 <_fat_findEntry+0x12d>
c00049ca:	89 fb          	movl   %edi,%ebx
c00049cc:	bd ff ff ff ff 	movl   $0xffffffff,%ebp
c00049d1:	be 00 00 00 00 	movl   $0x0,%esi
c00049d6:	83 7b 1c ff    	cmpl   $0xffffffff,0x1c(%ebx)
c00049da:	74 23          	je     c00049ff <_fat_findEntry+0xf5>
c00049dc:	83 ec 0c       	subl   $0xc,%esp
c00049df:	ff 74 24 34    	pushl  0x34(%esp,1)
c00049e3:	ff 74 24 18    	pushl  0x18(%esp,1)
c00049e7:	56             	pushl  %esi
c00049e8:	57             	pushl  %edi
c00049e9:	ff 74 24 3c    	pushl  0x3c(%esp,1)
c00049ed:	ff 54 24 4c    	call   *0x4c(%esp,1)
c00049f1:	89 c5          	movl   %eax,%ebp
c00049f3:	83 c4 20       	addl   $0x20,%esp
c00049f6:	83 f8 ff       	cmpl   $0xffffffff,%eax
c00049f9:	74 41          	je     c0004a3c <_fat_findEntry+0x132>
c00049fb:	85 c0          	testl  %eax,%eax
c00049fd:	74 19          	je     c0004a18 <_fat_findEntry+0x10e>
c00049ff:	46             	incl   %esi
c0004a00:	83 c3 20       	addl   $0x20,%ebx
c0004a03:	8b 54 24 20    	movl   0x20(%esp,1),%edx
c0004a07:	8b 82 14 02 00 	movl   0x214(%edx),%eax
c0004a0c:	00 
c0004a0d:	c1 e8 05       	shrl   $0x5,%eax
c0004a10:	39 f0          	cmpl   %esi,%eax
c0004a12:	77 c2          	ja     c00049d6 <_fat_findEntry+0xcc>
c0004a14:	85 ed          	testl  %ebp,%ebp
c0004a16:	75 24          	jne    c0004a3c <_fat_findEntry+0x132>
c0004a18:	6a 02          	pushl  $0x2
c0004a1a:	ff 74 24 04    	pushl  0x4(%esp,1)
c0004a1e:	ff 74 24 0c    	pushl  0xc(%esp,1)
c0004a22:	ff 74 24 2c    	pushl  0x2c(%esp,1)
c0004a26:	e8 c8 fb ff ff 	call   c00045f3 <_fat_rwCluster>
c0004a2b:	83 c4 10       	addl   $0x10,%esp
c0004a2e:	bd 00 00 00 00 	movl   $0x0,%ebp
c0004a33:	85 c0          	testl  %eax,%eax
c0004a35:	74 05          	je     c0004a3c <_fat_findEntry+0x132>
c0004a37:	bd ff ff ff ff 	movl   $0xffffffff,%ebp
c0004a3c:	83 ec 0c       	subl   $0xc,%esp
c0004a3f:	57             	pushl  %edi
c0004a40:	e8 8d d3 ff ff 	call   c0001dd2 <_mm_free>
c0004a45:	83 c4 10       	addl   $0x10,%esp
c0004a48:	eb 05          	jmp    c0004a4f <_fat_findEntry+0x145>
c0004a4a:	bd ff ff ff ff 	movl   $0xffffffff,%ebp
c0004a4f:	89 e8          	movl   %ebp,%eax
c0004a51:	83 c4 0c       	addl   $0xc,%esp
c0004a54:	5b             	popl   %ebx
c0004a55:	5e             	popl   %esi
c0004a56:	5f             	popl   %edi
c0004a57:	5d             	popl   %ebp
c0004a58:	c3             	ret    

c0004a59 <_fat_processCreate>:
c0004a59:	55             	pushl  %ebp
c0004a5a:	57             	pushl  %edi
c0004a5b:	56             	pushl  %esi
c0004a5c:	53             	pushl  %ebx
c0004a5d:	83 ec 1c       	subl   $0x1c,%esp
c0004a60:	8b 6c 24 34    	movl   0x34(%esp,1),%ebp
c0004a64:	8b 7c 24 38    	movl   0x38(%esp,1),%edi
c0004a68:	89 fe          	movl   %edi,%esi
c0004a6a:	c1 e6 05       	shll   $0x5,%esi
c0004a6d:	8d 1c 2e       	leal   (%esi,%ebp,1),%ebx
c0004a70:	8a 03          	movb   (%ebx),%al
c0004a72:	84 c0          	testb  %al,%al
c0004a74:	0f 94 c2       	sete   %dl
c0004a77:	3c e5          	cmpb   $0xe5,%al
c0004a79:	0f 94 c0       	sete   %al
c0004a7c:	b9 fe ff ff ff 	movl   $0xfffffffe,%ecx
c0004a81:	08 d0          	orb    %dl,%al
c0004a83:	0f 84 89 00 00 	je     c0004b12 <_fat_processCreate+0xb9>
c0004a88:	00 
c0004a89:	84 d2          	testb  %dl,%dl
c0004a8b:	74 1e          	je     c0004aab <_fat_processCreate+0x52>
c0004a8d:	8d 47 01       	leal   0x1(%edi),%eax
c0004a90:	8b 54 24 30    	movl   0x30(%esp,1),%edx
c0004a94:	8b 92 14 02 00 	movl   0x214(%edx),%edx
c0004a99:	00 
c0004a9a:	c1 ea 05       	shrl   $0x5,%edx
c0004a9d:	b9 ff ff ff ff 	movl   $0xffffffff,%ecx
c0004aa2:	39 d0          	cmpl   %edx,%eax
c0004aa4:	73 6c          	jae    c0004b12 <_fat_processCreate+0xb9>
c0004aa6:	c6 44 35 20 00 	movb   $0x0,0x20(%ebp,%esi,1)
c0004aab:	83 ec 04       	subl   $0x4,%esp
c0004aae:	6a 20          	pushl  $0x20
c0004ab0:	6a 00          	pushl  $0x0
c0004ab2:	53             	pushl  %ebx
c0004ab3:	e8 57 14 00 00 	call   c0005f0f <_memset>
c0004ab8:	80 4b 0b 20    	orb    $0x20,0xb(%ebx)
c0004abc:	66 c7 44 24 2a 	movw   $0x0,0x2a(%esp,1)
c0004ac1:	00 00 
c0004ac3:	83 c4 0c       	addl   $0xc,%esp
c0004ac6:	6a 02          	pushl  $0x2
c0004ac8:	8d 44 24 22    	leal   0x22(%esp,1),%eax
c0004acc:	50             	pushl  %eax
c0004acd:	8d 43 16       	leal   0x16(%ebx),%eax
c0004ad0:	50             	pushl  %eax
c0004ad1:	e8 5f 14 00 00 	call   c0005f35 <_memcpy>
c0004ad6:	66 c7 44 24 28 	movw   $0x0,0x28(%esp,1)
c0004adb:	00 00 
c0004add:	83 c4 0c       	addl   $0xc,%esp
c0004ae0:	6a 02          	pushl  $0x2
c0004ae2:	8d 44 24 20    	leal   0x20(%esp,1),%eax
c0004ae6:	50             	pushl  %eax
c0004ae7:	8d 43 18       	leal   0x18(%ebx),%eax
c0004aea:	50             	pushl  %eax
c0004aeb:	e8 45 14 00 00 	call   c0005f35 <_memcpy>
c0004af0:	83 c4 08       	addl   $0x8,%esp
c0004af3:	ff 74 24 44    	pushl  0x44(%esp,1)
c0004af7:	53             	pushl  %ebx
c0004af8:	e8 a1 fd ff ff 	call   c000489e <_fat_setName>
c0004afd:	c7 43 1c 00 00 	movl   $0x0,0x1c(%ebx)
c0004b02:	00 00 
c0004b04:	66 c7 43 1a 00 	movw   $0x0,0x1a(%ebx)
c0004b09:	00 
c0004b0a:	b9 00 00 00 00 	movl   $0x0,%ecx
c0004b0f:	83 c4 10       	addl   $0x10,%esp
c0004b12:	89 c8          	movl   %ecx,%eax
c0004b14:	83 c4 1c       	addl   $0x1c,%esp
c0004b17:	5b             	popl   %ebx
c0004b18:	5e             	popl   %esi
c0004b19:	5f             	popl   %edi
c0004b1a:	5d             	popl   %ebp
c0004b1b:	c3             	ret    

c0004b1c <_fat_processDelete>:
c0004b1c:	53             	pushl  %ebx
c0004b1d:	8b 44 24 10    	movl   0x10(%esp,1),%eax
c0004b21:	c1 e0 05       	shll   $0x5,%eax
c0004b24:	89 c3          	movl   %eax,%ebx
c0004b26:	03 5c 24 0c    	addl   0xc(%esp,1),%ebx
c0004b2a:	8a 13          	movb   (%ebx),%dl
c0004b2c:	b8 ff ff ff ff 	movl   $0xffffffff,%eax
c0004b31:	84 d2          	testb  %dl,%dl
c0004b33:	74 25          	je     c0004b5a <_fat_processDelete+0x3e>
c0004b35:	80 fa e5       	cmpb   $0xe5,%dl
c0004b38:	74 1b          	je     c0004b55 <_fat_processDelete+0x39>
c0004b3a:	ff 74 24 14    	pushl  0x14(%esp,1)
c0004b3e:	53             	pushl  %ebx
c0004b3f:	e8 50 fb ff ff 	call   c0004694 <_fat_compareName>
c0004b44:	83 c4 08       	addl   $0x8,%esp
c0004b47:	85 c0          	testl  %eax,%eax
c0004b49:	74 0a          	je     c0004b55 <_fat_processDelete+0x39>
c0004b4b:	c6 03 e5       	movb   $0xe5,(%ebx)
c0004b4e:	b8 00 00 00 00 	movl   $0x0,%eax
c0004b53:	eb 05          	jmp    c0004b5a <_fat_processDelete+0x3e>
c0004b55:	b8 fe ff ff ff 	movl   $0xfffffffe,%eax
c0004b5a:	5b             	popl   %ebx
c0004b5b:	c3             	ret    

c0004b5c <_fat_processRename>:
c0004b5c:	53             	pushl  %ebx
c0004b5d:	83 ec 08       	subl   $0x8,%esp
c0004b60:	8b 44 24 18    	movl   0x18(%esp,1),%eax
c0004b64:	c1 e0 05       	shll   $0x5,%eax
c0004b67:	89 c3          	movl   %eax,%ebx
c0004b69:	03 5c 24 14    	addl   0x14(%esp,1),%ebx
c0004b6d:	8a 13          	movb   (%ebx),%dl
c0004b6f:	b8 ff ff ff ff 	movl   $0xffffffff,%eax
c0004b74:	84 d2          	testb  %dl,%dl
c0004b76:	74 32          	je     c0004baa <_fat_processRename+0x4e>
c0004b78:	80 fa e5       	cmpb   $0xe5,%dl
c0004b7b:	74 28          	je     c0004ba5 <_fat_processRename+0x49>
c0004b7d:	ff 74 24 1c    	pushl  0x1c(%esp,1)
c0004b81:	53             	pushl  %ebx
c0004b82:	e8 0d fb ff ff 	call   c0004694 <_fat_compareName>
c0004b87:	83 c4 08       	addl   $0x8,%esp
c0004b8a:	85 c0          	testl  %eax,%eax
c0004b8c:	74 17          	je     c0004ba5 <_fat_processRename+0x49>
c0004b8e:	83 ec 08       	subl   $0x8,%esp
c0004b91:	ff 74 24 28    	pushl  0x28(%esp,1)
c0004b95:	53             	pushl  %ebx
c0004b96:	e8 03 fd ff ff 	call   c000489e <_fat_setName>
c0004b9b:	b8 00 00 00 00 	movl   $0x0,%eax
c0004ba0:	83 c4 10       	addl   $0x10,%esp
c0004ba3:	eb 05          	jmp    c0004baa <_fat_processRename+0x4e>
c0004ba5:	b8 fe ff ff ff 	movl   $0xfffffffe,%eax
c0004baa:	83 c4 08       	addl   $0x8,%esp
c0004bad:	5b             	popl   %ebx
c0004bae:	c3             	ret    

c0004baf <_fat_mount>:
c0004baf:	53             	pushl  %ebx
c0004bb0:	83 ec 14       	subl   $0x14,%esp
c0004bb3:	68 18 02 00 00 	pushl  $0x218
c0004bb8:	e8 a2 d2 ff ff 	call   c0001e5f <_mm_malloc>
c0004bbd:	89 c3          	movl   %eax,%ebx
c0004bbf:	a3 90 1d 01 c0 	movl   %eax,0xc0011d90
c0004bc4:	83 c4 08       	addl   $0x8,%esp
c0004bc7:	6a 03          	pushl  $0x3
c0004bc9:	ff 74 24 1c    	pushl  0x1c(%esp,1)
c0004bcd:	e8 97 09 00 00 	call   c0005569 <_vfs_open>
c0004bd2:	89 03          	movl   %eax,(%ebx)
c0004bd4:	a1 90 1d 01 c0 	movl   0xc0011d90,%eax
c0004bd9:	8b 10          	movl   (%eax),%edx
c0004bdb:	83 c4 10       	addl   $0x10,%esp
c0004bde:	b9 ff ff ff ff 	movl   $0xffffffff,%ecx
c0004be3:	85 d2          	testl  %edx,%edx
c0004be5:	0f 84 77 01 00 	je     c0004d62 <_fat_mount+0x1b3>
c0004bea:	00 
c0004beb:	83 ec 04       	subl   $0x4,%esp
c0004bee:	68 00 02 00 00 	pushl  $0x200
c0004bf3:	83 c0 04       	addl   $0x4,%eax
c0004bf6:	50             	pushl  %eax
c0004bf7:	52             	pushl  %edx
c0004bf8:	e8 84 0a 00 00 	call   c0005681 <_vfs_read>
c0004bfd:	a1 90 1d 01 c0 	movl   0xc0011d90,%eax
c0004c02:	83 c4 10       	addl   $0x10,%esp
c0004c05:	66 81 b8 02 02 	cmpw   $0xaa55,0x202(%eax)
c0004c0a:	00 00 55 aa 
c0004c0e:	74 25          	je     c0004c35 <_fat_mount+0x86>
c0004c10:	83 ec 0c       	subl   $0xc,%esp
c0004c13:	ff 30          	pushl  (%eax)
c0004c15:	e8 33 0a 00 00 	call   c000564d <_vfs_close>
c0004c1a:	83 c4 04       	addl   $0x4,%esp
c0004c1d:	ff 35 90 1d 01 	pushl  0xc0011d90
c0004c22:	c0 
c0004c23:	e8 aa d1 ff ff 	call   c0001dd2 <_mm_free>
c0004c28:	b9 ff ff ff ff 	movl   $0xffffffff,%ecx
c0004c2d:	83 c4 10       	addl   $0x10,%esp
c0004c30:	e9 2d 01 00 00 	jmp    c0004d62 <_fat_mount+0x1b3>
c0004c35:	50             	pushl  %eax
c0004c36:	e8 a5 f8 ff ff 	call   c00044e0 <_fat_determineType>
c0004c3b:	8b 0d 90 1d 01 	movl   0xc0011d90,%ecx
c0004c40:	c0 
c0004c41:	66 8b 41 0f    	movw   0xf(%ecx),%ax
c0004c45:	25 ff ff 00 00 	andl   $0xffff,%eax
c0004c4a:	ba 00 00 00 00 	movl   $0x0,%edx
c0004c4f:	8a 51 11       	movb   0x11(%ecx),%dl
c0004c52:	0f af c2       	imull  %edx,%eax
c0004c55:	89 81 14 02 00 	movl   %eax,0x214(%ecx)
c0004c5a:	00 
c0004c5b:	8b 0d 90 1d 01 	movl   0xc0011d90,%ecx
c0004c60:	c0 
c0004c61:	66 8b 51 1a    	movw   0x1a(%ecx),%dx
c0004c65:	81 e2 ff ff 00 	andl   $0xffff,%edx
c0004c6a:	00 
c0004c6b:	66 8b 41 0f    	movw   0xf(%ecx),%ax
c0004c6f:	25 ff ff 00 00 	andl   $0xffff,%eax
c0004c74:	0f af d0       	imull  %eax,%edx
c0004c77:	89 91 10 02 00 	movl   %edx,0x210(%ecx)
c0004c7c:	00 
c0004c7d:	8b 1d 90 1d 01 	movl   0xc0011d90,%ebx
c0004c82:	c0 
c0004c83:	83 ec 08       	subl   $0x8,%esp
c0004c86:	ff b3 10 02 00 	pushl  0x210(%ebx)
c0004c8b:	00 
c0004c8c:	e8 ce d1 ff ff 	call   c0001e5f <_mm_malloc>
c0004c91:	89 83 0c 02 00 	movl   %eax,0x20c(%ebx)
c0004c96:	00 
c0004c97:	a1 90 1d 01 c0 	movl   0xc0011d90,%eax
c0004c9c:	83 c4 0c       	addl   $0xc,%esp
c0004c9f:	ff b0 10 02 00 	pushl  0x210(%eax)
c0004ca4:	00 
c0004ca5:	6a 00          	pushl  $0x0
c0004ca7:	ff b0 0c 02 00 	pushl  0x20c(%eax)
c0004cac:	00 
c0004cad:	e8 5d 12 00 00 	call   c0005f0f <_memset>
c0004cb2:	a1 90 1d 01 c0 	movl   0xc0011d90,%eax
c0004cb7:	83 c4 0c       	addl   $0xc,%esp
c0004cba:	ff b0 10 02 00 	pushl  0x210(%eax)
c0004cbf:	00 
c0004cc0:	ff b0 0c 02 00 	pushl  0x20c(%eax)
c0004cc5:	00 
c0004cc6:	ff 30          	pushl  (%eax)
c0004cc8:	e8 b4 09 00 00 	call   c0005681 <_vfs_read>
c0004ccd:	8b 1d 90 1d 01 	movl   0xc0011d90,%ebx
c0004cd2:	c0 
c0004cd3:	66 8b 43 15    	movw   0x15(%ebx),%ax
c0004cd7:	25 ff ff 00 00 	andl   $0xffff,%eax
c0004cdc:	c1 e0 05       	shll   $0x5,%eax
c0004cdf:	89 04 24       	movl   %eax,(%esp,1)
c0004ce2:	e8 78 d1 ff ff 	call   c0001e5f <_mm_malloc>
c0004ce7:	89 83 04 02 00 	movl   %eax,0x204(%ebx)
c0004cec:	00 
c0004ced:	8b 15 90 1d 01 	movl   0xc0011d90,%edx
c0004cf2:	c0 
c0004cf3:	83 c4 0c       	addl   $0xc,%esp
c0004cf6:	66 8b 42 15    	movw   0x15(%edx),%ax
c0004cfa:	25 ff ff 00 00 	andl   $0xffff,%eax
c0004cff:	c1 e0 05       	shll   $0x5,%eax
c0004d02:	50             	pushl  %eax
c0004d03:	6a 00          	pushl  $0x0
c0004d05:	ff b2 04 02 00 	pushl  0x204(%edx)
c0004d0a:	00 
c0004d0b:	e8 ff 11 00 00 	call   c0005f0f <_memset>
c0004d10:	8b 15 90 1d 01 	movl   0xc0011d90,%edx
c0004d15:	c0 
c0004d16:	83 c4 0c       	addl   $0xc,%esp
c0004d19:	6a 00          	pushl  $0x0
c0004d1b:	b8 00 00 00 00 	movl   $0x0,%eax
c0004d20:	8a 42 14       	movb   0x14(%edx),%al
c0004d23:	0f af 82 10 02 	imull  0x210(%edx),%eax
c0004d28:	00 00 
c0004d2a:	05 01 02 00 00 	addl   $0x201,%eax
c0004d2f:	50             	pushl  %eax
c0004d30:	ff 32          	pushl  (%edx)
c0004d32:	e8 da 09 00 00 	call   c0005711 <_vfs_seek>
c0004d37:	8b 15 90 1d 01 	movl   0xc0011d90,%edx
c0004d3c:	c0 
c0004d3d:	83 c4 0c       	addl   $0xc,%esp
c0004d40:	66 8b 42 15    	movw   0x15(%edx),%ax
c0004d44:	25 ff ff 00 00 	andl   $0xffff,%eax
c0004d49:	c1 e0 05       	shll   $0x5,%eax
c0004d4c:	50             	pushl  %eax
c0004d4d:	ff b2 04 02 00 	pushl  0x204(%edx)
c0004d52:	00 
c0004d53:	ff 32          	pushl  (%edx)
c0004d55:	e8 27 09 00 00 	call   c0005681 <_vfs_read>
c0004d5a:	b9 00 00 00 00 	movl   $0x0,%ecx
c0004d5f:	83 c4 10       	addl   $0x10,%esp
c0004d62:	89 c8          	movl   %ecx,%eax
c0004d64:	83 c4 08       	addl   $0x8,%esp
c0004d67:	5b             	popl   %ebx
c0004d68:	c3             	ret    

c0004d69 <_fat_unmount>:
c0004d69:	83 ec 18       	subl   $0x18,%esp
c0004d6c:	a1 90 1d 01 c0 	movl   0xc0011d90,%eax
c0004d71:	ff 30          	pushl  (%eax)
c0004d73:	e8 d5 08 00 00 	call   c000564d <_vfs_close>
c0004d78:	83 c4 04       	addl   $0x4,%esp
c0004d7b:	a1 90 1d 01 c0 	movl   0xc0011d90,%eax
c0004d80:	ff b0 04 02 00 	pushl  0x204(%eax)
c0004d85:	00 
c0004d86:	e8 47 d0 ff ff 	call   c0001dd2 <_mm_free>
c0004d8b:	83 c4 04       	addl   $0x4,%esp
c0004d8e:	ff 35 90 1d 01 	pushl  0xc0011d90
c0004d93:	c0 
c0004d94:	e8 39 d0 ff ff 	call   c0001dd2 <_mm_free>
c0004d99:	b8 00 00 00 00 	movl   $0x0,%eax
c0004d9e:	83 c4 1c       	addl   $0x1c,%esp
c0004da1:	c3             	ret    

c0004da2 <_fat_open>:
c0004da2:	56             	pushl  %esi
c0004da3:	53             	pushl  %ebx
c0004da4:	83 ec 10       	subl   $0x10,%esp
c0004da7:	8b 74 24 1c    	movl   0x1c(%esp,1),%esi
c0004dab:	6a 28          	pushl  $0x28
c0004dad:	e8 ad d0 ff ff 	call   c0001e5f <_mm_malloc>
c0004db2:	89 c3          	movl   %eax,%ebx
c0004db4:	83 c4 0c       	addl   $0xc,%esp
c0004db7:	8d 40 04       	leal   0x4(%eax),%eax
c0004dba:	50             	pushl  %eax
c0004dbb:	ff 74 24 1c    	pushl  0x1c(%esp,1)
c0004dbf:	ff 35 90 1d 01 	pushl  0xc0011d90
c0004dc4:	c0 
c0004dc5:	e8 7f f9 ff ff 	call   c0004749 <_fat_file2entry>
c0004dca:	83 c4 10       	addl   $0x10,%esp
c0004dcd:	85 c0          	testl  %eax,%eax
c0004dcf:	79 13          	jns    c0004de4 <_fat_open+0x42>
c0004dd1:	83 ec 0c       	subl   $0xc,%esp
c0004dd4:	53             	pushl  %ebx
c0004dd5:	e8 f8 cf ff ff 	call   c0001dd2 <_mm_free>
c0004dda:	be 00 00 00 00 	movl   $0x0,%esi
c0004ddf:	83 c4 10       	addl   $0x10,%esp
c0004de2:	eb 11          	jmp    c0004df5 <_fat_open+0x53>
c0004de4:	a1 90 1d 01 c0 	movl   0xc0011d90,%eax
c0004de9:	89 03          	movl   %eax,(%ebx)
c0004deb:	c7 43 24 00 00 	movl   $0x0,0x24(%ebx)
c0004df0:	00 00 
c0004df2:	89 5e 04       	movl   %ebx,0x4(%esi)
c0004df5:	89 f0          	movl   %esi,%eax
c0004df7:	83 c4 04       	addl   $0x4,%esp
c0004dfa:	5b             	popl   %ebx
c0004dfb:	5e             	popl   %esi
c0004dfc:	c3             	ret    

c0004dfd <_fat_close>:
c0004dfd:	83 ec 0c       	subl   $0xc,%esp
c0004e00:	8b 44 24 10    	movl   0x10(%esp,1),%eax
c0004e04:	8b 50 04       	movl   0x4(%eax),%edx
c0004e07:	b8 ff ff ff ff 	movl   $0xffffffff,%eax
c0004e0c:	85 d2          	testl  %edx,%edx
c0004e0e:	74 11          	je     c0004e21 <_fat_close+0x24>
c0004e10:	83 ec 0c       	subl   $0xc,%esp
c0004e13:	52             	pushl  %edx
c0004e14:	e8 b9 cf ff ff 	call   c0001dd2 <_mm_free>
c0004e19:	b8 00 00 00 00 	movl   $0x0,%eax
c0004e1e:	83 c4 10       	addl   $0x10,%esp
c0004e21:	83 c4 0c       	addl   $0xc,%esp
c0004e24:	c3             	ret    
c0004e25:	8d 76 00       	leal   0x0(%esi),%esi
c0004e28:	66 61          	popa   
c0004e2a:	74 5f          	je     c0004e8b <_fat_close+0x8e>
c0004e2c:	72 65          	jb     c0004e93 <_fat_close+0x96>
c0004e2e:	61             	popa   
c0004e2f:	64 3a 20       	cmpb   %fs:(%eax),%ah
c0004e32:	63 6c 75 73    	arpl   %bp,0x73(%ebp,%esi,2)
c0004e36:	74 65          	je     c0004e9d <_fat_close+0xa0>
c0004e38:	72 20          	jb     c0004e5a <_fat_close+0x5d>
c0004e3a:	3d 3d 20 30 78 	cmpl   $0x7830203d,%eax
c0004e3f:	30 30          	xorb   %dh,(%eax)
c0004e41:	30 30          	xorb   %dh,(%eax)
c0004e43:	20 7c 7c 20    	andb   %bh,0x20(%esp,%edi,2)
c0004e47:	63 6c 75 73    	arpl   %bp,0x73(%ebp,%esi,2)
c0004e4b:	74 65          	je     c0004eb2 <_fat_close+0xb5>
c0004e4d:	72 20          	jb     c0004e6f <_fat_close+0x72>
c0004e4f:	3d 3d 20 2d 31 	cmpl   $0x312d203d,%eax
c0004e54:	0a 00          	orb    (%eax),%al
c0004e56:	89 f6          	movl   %esi,%esi
c0004e58:	66 61          	popa   
c0004e5a:	74 5f          	je     c0004ebb <_fat_close+0xbe>
c0004e5c:	72 65          	jb     c0004ec3 <_fat_close+0xc6>
c0004e5e:	61             	popa   
c0004e5f:	64 3a 20       	cmpb   %fs:(%eax),%ah
c0004e62:	66 61          	popa   
c0004e64:	74 5f          	je     c0004ec5 <_fat_read>
c0004e66:	6c             	insb   (%dx),%es:(%edi)
c0004e67:	6f             	outsl  %ds:(%esi),(%dx)
c0004e68:	61             	popa   
c0004e69:	64 43          	incl   %ebx
c0004e6b:	6c             	insb   (%dx),%es:(%edi)
c0004e6c:	75 73          	jne    c0004ee1 <_fat_read+0x1c>
c0004e6e:	74 65          	je     c0004ed5 <_fat_read+0x10>
c0004e70:	72 20          	jb     c0004e92 <_fat_close+0x95>
c0004e72:	66 61          	popa   
c0004e74:	69 6c 65 64 0a 	imull  $0xf689000a,0x64(%ebp,2),%ebp
c0004e79:	00 89 f6 
c0004e7c:	66 61          	popa   
c0004e7e:	74 5f          	je     c0004edf <_fat_read+0x1a>
c0004e80:	72 65          	jb     c0004ee7 <_fat_read+0x22>
c0004e82:	61             	popa   
c0004e83:	64 3a 20       	cmpb   %fs:(%eax),%ah
c0004e86:	62 6f 74       	boundl 0x74(%edi),%ebp
c0004e89:	74 6f          	je     c0004efa <_fat_read+0x35>
c0004e8b:	6d             	insl   (%dx),%es:(%edi)
c0004e8c:	20 6f 66       	andb   %ch,0x66(%edi)
c0004e8f:	20 6c 6f 6f    	andb   %ch,0x6f(%edi,%ebp,2)
c0004e93:	70 2c          	jo     c0004ec1 <_fat_close+0xc4>
c0004e95:	20 63 6c       	andb   %ah,0x6c(%ebx)
c0004e98:	75 73          	jne    c0004f0d <_fat_read+0x48>
c0004e9a:	74 65          	je     c0004f01 <_fat_read+0x3c>
c0004e9c:	72 20          	jb     c0004ebe <_fat_close+0xc1>
c0004e9e:	3d 3d 20 46 41 	cmpl   $0x4146203d,%eax
c0004ea3:	54             	pushl  %esp
c0004ea4:	5f             	popl   %edi
c0004ea5:	46             	incl   %esi
c0004ea6:	52             	pushl  %edx
c0004ea7:	45             	incl   %ebp
c0004ea8:	45             	incl   %ebp
c0004ea9:	43             	incl   %ebx
c0004eaa:	4c             	decl   %esp
c0004eab:	55             	pushl  %ebp
c0004eac:	53             	pushl  %ebx
c0004ead:	54             	pushl  %esp
c0004eae:	45             	incl   %ebp
c0004eaf:	52             	pushl  %edx
c0004eb0:	20 7c 7c 20    	andb   %bh,0x20(%esp,%edi,2)
c0004eb4:	63 6c 75 73    	arpl   %bp,0x73(%ebp,%esi,2)
c0004eb8:	74 65          	je     c0004f1f <_fat_read+0x5a>
c0004eba:	72 20          	jb     c0004edc <_fat_read+0x17>
c0004ebc:	3d 3d 20 2d 31 	cmpl   $0x312d203d,%eax
c0004ec1:	20 20          	andb   %ah,(%eax)
c0004ec3:	0a 00          	orb    (%eax),%al

c0004ec5 <_fat_read>:
c0004ec5:	55             	pushl  %ebp
c0004ec6:	57             	pushl  %edi
c0004ec7:	56             	pushl  %esi
c0004ec8:	53             	pushl  %ebx
c0004ec9:	83 ec 1c       	subl   $0x1c,%esp
c0004ecc:	8b 44 24 30    	movl   0x30(%esp,1),%eax
c0004ed0:	8b 40 04       	movl   0x4(%eax),%eax
c0004ed3:	89 44 24 10    	movl   %eax,0x10(%esp,1)
c0004ed7:	8b 40 24       	movl   0x24(%eax),%eax
c0004eda:	89 44 24 04    	movl   %eax,0x4(%esp,1)
c0004ede:	8b 44 24 10    	movl   0x10(%esp,1),%eax
c0004ee2:	8b 50 20       	movl   0x20(%eax),%edx
c0004ee5:	8b 44 24 04    	movl   0x4(%esp,1),%eax
c0004ee9:	03 44 24 38    	addl   0x38(%esp,1),%eax
c0004eed:	39 d0          	cmpl   %edx,%eax
c0004eef:	76 08          	jbe    c0004ef9 <_fat_read+0x34>
c0004ef1:	2b 54 24 04    	subl   0x4(%esp,1),%edx
c0004ef5:	89 54 24 38    	movl   %edx,0x38(%esp,1)
c0004ef9:	8b 54 24 10    	movl   0x10(%esp,1),%edx
c0004efd:	66 8b 42 1e    	movw   0x1e(%edx),%ax
c0004f01:	89 c6          	movl   %eax,%esi
c0004f03:	81 e6 ff ff 00 	andl   $0xffff,%esi
c0004f08:	00 
c0004f09:	8b 2a          	movl   (%edx),%ebp
c0004f0b:	8b 85 14 02 00 	movl   0x214(%ebp),%eax
c0004f10:	00 
c0004f11:	89 44 24 08    	movl   %eax,0x8(%esp,1)
c0004f15:	8b 54 24 04    	movl   0x4(%esp,1),%edx
c0004f19:	89 d0          	movl   %edx,%eax
c0004f1b:	c1 fa 1f       	sarl   $0x1f,%edx
c0004f1e:	f7 7c 24 08    	idivl  0x8(%esp,1),%eax
c0004f22:	89 c7          	movl   %eax,%edi
c0004f24:	bb 00 00 00 00 	movl   $0x0,%ebx
c0004f29:	eb 32          	jmp    c0004f5d <_fat_read+0x98>
c0004f2b:	56             	pushl  %esi
c0004f2c:	55             	pushl  %ebp
c0004f2d:	e8 29 f5 ff ff 	call   c000445b <_fat_getFATCluster>
c0004f32:	83 c4 08       	addl   $0x8,%esp
c0004f35:	89 c6          	movl   %eax,%esi
c0004f37:	43             	incl   %ebx
c0004f38:	8d 40 01       	leal   0x1(%eax),%eax
c0004f3b:	83 f8 01       	cmpl   $0x1,%eax
c0004f3e:	77 1d          	ja     c0004f5d <_fat_read+0x98>
c0004f40:	83 ec 0c       	subl   $0xc,%esp
c0004f43:	68 28 4e 00 c0 	pushl  $0xc0004e28
c0004f48:	e8 3d c4 ff ff 	call   c000138a <_kernel_printf>
c0004f4d:	c7 44 24 1c ff 	movl   $0xffffffff,0x1c(%esp,1)
c0004f52:	ff ff ff 
c0004f55:	83 c4 10       	addl   $0x10,%esp
c0004f58:	e9 19 01 00 00 	jmp    c0005076 <_fat_read+0x1b1>
c0004f5d:	39 df          	cmpl   %ebx,%edi
c0004f5f:	75 ca          	jne    c0004f2b <_fat_read+0x66>
c0004f61:	8b 54 24 04    	movl   0x4(%esp,1),%edx
c0004f65:	89 d0          	movl   %edx,%eax
c0004f67:	c1 fa 1f       	sarl   $0x1f,%edx
c0004f6a:	f7 7c 24 08    	idivl  0x8(%esp,1),%eax
c0004f6e:	89 d5          	movl   %edx,%ebp
c0004f70:	83 ec 0c       	subl   $0xc,%esp
c0004f73:	ff 74 24 14    	pushl  0x14(%esp,1)
c0004f77:	e8 e3 ce ff ff 	call   c0001e5f <_mm_malloc>
c0004f7c:	89 44 24 24    	movl   %eax,0x24(%esp,1)
c0004f80:	c7 44 24 1c 00 	movl   $0x0,0x1c(%esp,1)
c0004f85:	00 00 00 
c0004f88:	83 c4 10       	addl   $0x10,%esp
c0004f8b:	8b 44 24 10    	movl   0x10(%esp,1),%eax
c0004f8f:	8b 00          	movl   (%eax),%eax
c0004f91:	89 44 24 18    	movl   %eax,0x18(%esp,1)
c0004f95:	8b 88 14 02 00 	movl   0x214(%eax),%ecx
c0004f9a:	00 
c0004f9b:	89 cb          	movl   %ecx,%ebx
c0004f9d:	39 4c 24 38    	cmpl   %ecx,0x38(%esp,1)
c0004fa1:	73 04          	jae    c0004fa7 <_fat_read+0xe2>
c0004fa3:	8b 5c 24 38    	movl   0x38(%esp,1),%ebx
c0004fa7:	8d 3c 2b       	leal   (%ebx,%ebp,1),%edi
c0004faa:	8b 44 24 10    	movl   0x10(%esp,1),%eax
c0004fae:	8b 50 24       	movl   0x24(%eax),%edx
c0004fb1:	89 d0          	movl   %edx,%eax
c0004fb3:	c1 fa 1f       	sarl   $0x1f,%edx
c0004fb6:	f7 f9          	idivl  %ecx,%eax
c0004fb8:	40             	incl   %eax
c0004fb9:	0f af c1       	imull  %ecx,%eax
c0004fbc:	39 c7          	cmpl   %eax,%edi
c0004fbe:	7e 08          	jle    c0004fc8 <_fat_read+0x103>
c0004fc0:	29 c7          	subl   %eax,%edi
c0004fc2:	8b 5c 24 38    	movl   0x38(%esp,1),%ebx
c0004fc6:	29 fb          	subl   %edi,%ebx
c0004fc8:	6a 01          	pushl  $0x1
c0004fca:	ff 74 24 18    	pushl  0x18(%esp,1)
c0004fce:	56             	pushl  %esi
c0004fcf:	ff 74 24 24    	pushl  0x24(%esp,1)
c0004fd3:	e8 1b f6 ff ff 	call   c00045f3 <_fat_rwCluster>
c0004fd8:	83 c4 10       	addl   $0x10,%esp
c0004fdb:	85 c0          	testl  %eax,%eax
c0004fdd:	79 26          	jns    c0005005 <_fat_read+0x140>
c0004fdf:	83 ec 0c       	subl   $0xc,%esp
c0004fe2:	68 58 4e 00 c0 	pushl  $0xc0004e58
c0004fe7:	e8 9e c3 ff ff 	call   c000138a <_kernel_printf>
c0004fec:	83 c4 04       	addl   $0x4,%esp
c0004fef:	ff 74 24 20    	pushl  0x20(%esp,1)
c0004ff3:	e8 da cd ff ff 	call   c0001dd2 <_mm_free>
c0004ff8:	c7 44 24 1c ff 	movl   $0xffffffff,0x1c(%esp,1)
c0004ffd:	ff ff ff 
c0005000:	83 c4 10       	addl   $0x10,%esp
c0005003:	eb 71          	jmp    c0005076 <_fat_read+0x1b1>
c0005005:	83 ec 04       	subl   $0x4,%esp
c0005008:	53             	pushl  %ebx
c0005009:	8b 44 24 1c    	movl   0x1c(%esp,1),%eax
c000500d:	01 e8          	addl   %ebp,%eax
c000500f:	50             	pushl  %eax
c0005010:	ff 74 24 40    	pushl  0x40(%esp,1)
c0005014:	e8 1c 0f 00 00 	call   c0005f35 <_memcpy>
c0005019:	01 5c 24 44    	addl   %ebx,0x44(%esp,1)
c000501d:	01 5c 24 1c    	addl   %ebx,0x1c(%esp,1)
c0005021:	83 c4 10       	addl   $0x10,%esp
c0005024:	29 5c 24 38    	subl   %ebx,0x38(%esp,1)
c0005028:	74 32          	je     c000505c <_fat_read+0x197>
c000502a:	56             	pushl  %esi
c000502b:	8b 54 24 14    	movl   0x14(%esp,1),%edx
c000502f:	ff 32          	pushl  (%edx)
c0005031:	e8 25 f4 ff ff 	call   c000445b <_fat_getFATCluster>
c0005036:	83 c4 08       	addl   $0x8,%esp
c0005039:	89 c6          	movl   %eax,%esi
c000503b:	bd 00 00 00 00 	movl   $0x0,%ebp
c0005040:	8d 40 01       	leal   0x1(%eax),%eax
c0005043:	83 f8 01       	cmpl   $0x1,%eax
c0005046:	0f 87 3f ff ff 	ja     c0004f8b <_fat_read+0xc6>
c000504b:	ff 
c000504c:	83 ec 0c       	subl   $0xc,%esp
c000504f:	68 7c 4e 00 c0 	pushl  $0xc0004e7c
c0005054:	e8 31 c3 ff ff 	call   c000138a <_kernel_printf>
c0005059:	83 c4 10       	addl   $0x10,%esp
c000505c:	83 ec 0c       	subl   $0xc,%esp
c000505f:	ff 74 24 20    	pushl  0x20(%esp,1)
c0005063:	e8 6a cd ff ff 	call   c0001dd2 <_mm_free>
c0005068:	8b 54 24 1c    	movl   0x1c(%esp,1),%edx
c000506c:	8b 44 24 20    	movl   0x20(%esp,1),%eax
c0005070:	01 50 24       	addl   %edx,0x24(%eax)
c0005073:	83 c4 10       	addl   $0x10,%esp
c0005076:	8b 44 24 0c    	movl   0xc(%esp,1),%eax
c000507a:	83 c4 1c       	addl   $0x1c,%esp
c000507d:	5b             	popl   %ebx
c000507e:	5e             	popl   %esi
c000507f:	5f             	popl   %edi
c0005080:	5d             	popl   %ebp
c0005081:	c3             	ret    

c0005082 <_fat_write>:
c0005082:	b8 ff ff ff ff 	movl   $0xffffffff,%eax
c0005087:	c3             	ret    

c0005088 <_fat_seek>:
c0005088:	56             	pushl  %esi
c0005089:	53             	pushl  %ebx
c000508a:	8b 5c 24 10    	movl   0x10(%esp,1),%ebx
c000508e:	8a 4c 24 14    	movb   0x14(%esp,1),%cl
c0005092:	8b 44 24 0c    	movl   0xc(%esp,1),%eax
c0005096:	8b 50 04       	movl   0x4(%eax),%edx
c0005099:	8b 72 24       	movl   0x24(%edx),%esi
c000509c:	84 c9          	testb  %cl,%cl
c000509e:	75 05          	jne    c00050a5 <_fat_seek+0x1d>
c00050a0:	89 5a 24       	movl   %ebx,0x24(%edx)
c00050a3:	eb 1f          	jmp    c00050c4 <_fat_seek+0x3c>
c00050a5:	80 f9 01       	cmpb   $0x1,%cl
c00050a8:	75 08          	jne    c00050b2 <_fat_seek+0x2a>
c00050aa:	8d 04 33       	leal   (%ebx,%esi,1),%eax
c00050ad:	89 42 24       	movl   %eax,0x24(%edx)
c00050b0:	eb 12          	jmp    c00050c4 <_fat_seek+0x3c>
c00050b2:	b8 ff ff ff ff 	movl   $0xffffffff,%eax
c00050b7:	80 f9 02       	cmpb   $0x2,%cl
c00050ba:	75 1a          	jne    c00050d6 <_fat_seek+0x4e>
c00050bc:	8b 42 20       	movl   0x20(%edx),%eax
c00050bf:	29 d8          	subl   %ebx,%eax
c00050c1:	89 42 24       	movl   %eax,0x24(%edx)
c00050c4:	8b 42 24       	movl   0x24(%edx),%eax
c00050c7:	3b 42 20       	cmpl   0x20(%edx),%eax
c00050ca:	77 04          	ja     c00050d0 <_fat_seek+0x48>
c00050cc:	85 c0          	testl  %eax,%eax
c00050ce:	79 03          	jns    c00050d3 <_fat_seek+0x4b>
c00050d0:	89 72 24       	movl   %esi,0x24(%edx)
c00050d3:	8b 42 24       	movl   0x24(%edx),%eax
c00050d6:	5b             	popl   %ebx
c00050d7:	5e             	popl   %esi
c00050d8:	c3             	ret    

c00050d9 <_fat_control>:
c00050d9:	b8 ff ff ff ff 	movl   $0xffffffff,%eax
c00050de:	c3             	ret    

c00050df <_fat_create>:
c00050df:	83 ec 0c       	subl   $0xc,%esp
c00050e2:	68 59 4a 00 c0 	pushl  $0xc0004a59
c00050e7:	6a 00          	pushl  $0x0
c00050e9:	ff 74 24 18    	pushl  0x18(%esp,1)
c00050ed:	ff 35 90 1d 01 	pushl  0xc0011d90
c00050f2:	c0 
c00050f3:	e8 12 f8 ff ff 	call   c000490a <_fat_findEntry>
c00050f8:	83 c4 1c       	addl   $0x1c,%esp
c00050fb:	c3             	ret    

c00050fc <_fat_delete>:
c00050fc:	83 ec 0c       	subl   $0xc,%esp
c00050ff:	68 1c 4b 00 c0 	pushl  $0xc0004b1c
c0005104:	6a 00          	pushl  $0x0
c0005106:	ff 74 24 18    	pushl  0x18(%esp,1)
c000510a:	ff 35 90 1d 01 	pushl  0xc0011d90
c000510f:	c0 
c0005110:	e8 f5 f7 ff ff 	call   c000490a <_fat_findEntry>
c0005115:	83 c4 1c       	addl   $0x1c,%esp
c0005118:	c3             	ret    

c0005119 <_fat_rename>:
c0005119:	83 ec 0c       	subl   $0xc,%esp
c000511c:	68 5c 4b 00 c0 	pushl  $0xc0004b5c
c0005121:	ff 74 24 18    	pushl  0x18(%esp,1)
c0005125:	ff 74 24 18    	pushl  0x18(%esp,1)
c0005129:	ff 35 90 1d 01 	pushl  0xc0011d90
c000512e:	c0 
c000512f:	e8 d6 f7 ff ff 	call   c000490a <_fat_findEntry>
c0005134:	83 c4 1c       	addl   $0x1c,%esp
c0005137:	c3             	ret    

c0005138 <_fat_copy>:
c0005138:	b8 ff ff ff ff 	movl   $0xffffffff,%eax
c000513d:	c3             	ret    

c000513e <_fat_list>:
c000513e:	55             	pushl  %ebp
c000513f:	57             	pushl  %edi
c0005140:	56             	pushl  %esi
c0005141:	53             	pushl  %ebx
c0005142:	83 ec 28       	subl   $0x28,%esp
c0005145:	a1 90 1d 01 c0 	movl   0xc0011d90,%eax
c000514a:	ff b0 14 02 00 	pushl  0x214(%eax)
c000514f:	00 
c0005150:	e8 0a cd ff ff 	call   c0001e5f <_mm_malloc>
c0005155:	89 44 24 20    	movl   %eax,0x20(%esp,1)
c0005159:	83 c4 0c       	addl   $0xc,%esp
c000515c:	50             	pushl  %eax
c000515d:	ff 74 24 38    	pushl  0x38(%esp,1)
c0005161:	ff 35 90 1d 01 	pushl  0xc0011d90
c0005166:	c0 
c0005167:	e8 dd f5 ff ff 	call   c0004749 <_fat_file2entry>
c000516c:	83 c4 10       	addl   $0x10,%esp
c000516f:	85 c0          	testl  %eax,%eax
c0005171:	79 1c          	jns    c000518f <_fat_list+0x51>
c0005173:	83 ec 0c       	subl   $0xc,%esp
c0005176:	ff 74 24 1c    	pushl  0x1c(%esp,1)
c000517a:	e8 53 cc ff ff 	call   c0001dd2 <_mm_free>
c000517f:	c7 44 24 24 00 	movl   $0x0,0x24(%esp,1)
c0005184:	00 00 00 
c0005187:	83 c4 10       	addl   $0x10,%esp
c000518a:	e9 2a 01 00 00 	jmp    c00052b9 <_fat_list+0x17b>
c000518f:	6a 01          	pushl  $0x1
c0005191:	ff 74 24 14    	pushl  0x14(%esp,1)
c0005195:	8b 54 24 18    	movl   0x18(%esp,1),%edx
c0005199:	66 8b 42 1a    	movw   0x1a(%edx),%ax
c000519d:	25 ff ff 00 00 	andl   $0xffff,%eax
c00051a2:	50             	pushl  %eax
c00051a3:	ff 35 90 1d 01 	pushl  0xc0011d90
c00051a8:	c0 
c00051a9:	e8 45 f4 ff ff 	call   c00045f3 <_fat_rwCluster>
c00051ae:	c7 04 24 a8 02 	movl   $0x2a8,(%esp,1)
c00051b3:	00 00 
c00051b5:	e8 a5 cc ff ff 	call   c0001e5f <_mm_malloc>
c00051ba:	89 44 24 24    	movl   %eax,0x24(%esp,1)
c00051be:	8b 74 24 20    	movl   0x20(%esp,1),%esi
c00051c2:	c7 44 24 18 00 	movl   $0x0,0x18(%esp,1)
c00051c7:	00 00 00 
c00051ca:	c7 44 24 1c 00 	movl   $0x0,0x1c(%esp,1)
c00051cf:	00 00 00 
c00051d2:	83 c4 10       	addl   $0x10,%esp
c00051d5:	89 44 24 04    	movl   %eax,0x4(%esp,1)
c00051d9:	89 f5          	movl   %esi,%ebp
c00051db:	8a 06          	movb   (%esi),%al
c00051dd:	84 c0          	testb  %al,%al
c00051df:	0f 84 b6 00 00 	je     c000529b <_fat_list+0x15d>
c00051e4:	00 
c00051e5:	3c e5          	cmpb   $0xe5,%al
c00051e7:	0f 84 9c 00 00 	je     c0005289 <_fat_list+0x14b>
c00051ec:	00 
c00051ed:	8d 46 1c       	leal   0x1c(%esi),%eax
c00051f0:	89 44 24 18    	movl   %eax,0x18(%esp,1)
c00051f4:	83 7e 1c ff    	cmpl   $0xffffffff,0x1c(%esi)
c00051f8:	0f 84 8b 00 00 	je     c0005289 <_fat_list+0x14b>
c00051fd:	00 
c00051fe:	8b 7c 24 04    	movl   0x4(%esp,1),%edi
c0005202:	83 ec 04       	subl   $0x4,%esp
c0005205:	6a 20          	pushl  $0x20
c0005207:	6a 00          	pushl  $0x0
c0005209:	57             	pushl  %edi
c000520a:	e8 00 0d 00 00 	call   c0005f0f <_memset>
c000520f:	89 f1          	movl   %esi,%ecx
c0005211:	89 fa          	movl   %edi,%edx
c0005213:	bb 00 00 00 00 	movl   $0x0,%ebx
c0005218:	83 c4 10       	addl   $0x10,%esp
c000521b:	8a 01          	movb   (%ecx),%al
c000521d:	3c 20          	cmpb   $0x20,%al
c000521f:	74 0a          	je     c000522b <_fat_list+0xed>
c0005221:	88 02          	movb   %al,(%edx)
c0005223:	43             	incl   %ebx
c0005224:	41             	incl   %ecx
c0005225:	42             	incl   %edx
c0005226:	83 fb 08       	cmpl   $0x8,%ebx
c0005229:	75 f0          	jne    c000521b <_fat_list+0xdd>
c000522b:	80 7d 08 20    	cmpb   $0x20,0x8(%ebp)
c000522f:	74 37          	je     c0005268 <_fat_list+0x12a>
c0005231:	c6 04 1f 2e    	movb   $0x2e,(%edi,%ebx,1)
c0005235:	8d 53 01       	leal   0x1(%ebx),%edx
c0005238:	8a 45 08       	movb   0x8(%ebp),%al
c000523b:	b1 00          	movb   $0x0,%cl
c000523d:	3c 20          	cmpb   $0x20,%al
c000523f:	74 02          	je     c0005243 <_fat_list+0x105>
c0005241:	88 c1          	movb   %al,%cl
c0005243:	88 0c 17       	movb   %cl,(%edi,%edx,1)
c0005246:	8d 53 02       	leal   0x2(%ebx),%edx
c0005249:	8a 45 09       	movb   0x9(%ebp),%al
c000524c:	b1 00          	movb   $0x0,%cl
c000524e:	3c 20          	cmpb   $0x20,%al
c0005250:	74 02          	je     c0005254 <_fat_list+0x116>
c0005252:	88 c1          	movb   %al,%cl
c0005254:	88 0c 17       	movb   %cl,(%edi,%edx,1)
c0005257:	8d 53 03       	leal   0x3(%ebx),%edx
c000525a:	8a 45 0a       	movb   0xa(%ebp),%al
c000525d:	b1 00          	movb   $0x0,%cl
c000525f:	3c 20          	cmpb   $0x20,%al
c0005261:	74 02          	je     c0005265 <_fat_list+0x127>
c0005263:	88 c1          	movb   %al,%cl
c0005265:	88 0c 17       	movb   %cl,(%edi,%edx,1)
c0005268:	f6 45 0b 10    	testb  $0x10,0xb(%ebp)
c000526c:	0f 95 c0       	setne  %al
c000526f:	25 ff 00 00 00 	andl   $0xff,%eax
c0005274:	89 47 20       	movl   %eax,0x20(%edi)
c0005277:	8b 54 24 18    	movl   0x18(%esp,1),%edx
c000527b:	8b 02          	movl   (%edx),%eax
c000527d:	89 47 24       	movl   %eax,0x24(%edi)
c0005280:	ff 44 24 0c    	incl   0xc(%esp,1)
c0005284:	83 44 24 04 28 	addl   $0x28,0x4(%esp,1)
c0005289:	ff 44 24 08    	incl   0x8(%esp,1)
c000528d:	83 c6 20       	addl   $0x20,%esi
c0005290:	83 7c 24 08 10 	cmpl   $0x10,0x8(%esp,1)
c0005295:	0f 85 3e ff ff 	jne    c00051d9 <_fat_list+0x9b>
c000529a:	ff 
c000529b:	8b 54 24 0c    	movl   0xc(%esp,1),%edx
c000529f:	8d 04 92       	leal   (%edx,%edx,4),%eax
c00052a2:	8b 54 24 14    	movl   0x14(%esp,1),%edx
c00052a6:	c6 04 c2 00    	movb   $0x0,(%edx,%eax,8)
c00052aa:	83 ec 0c       	subl   $0xc,%esp
c00052ad:	ff 74 24 1c    	pushl  0x1c(%esp,1)
c00052b1:	e8 1c cb ff ff 	call   c0001dd2 <_mm_free>
c00052b6:	83 c4 10       	addl   $0x10,%esp
c00052b9:	8b 44 24 14    	movl   0x14(%esp,1),%eax
c00052bd:	83 c4 1c       	addl   $0x1c,%esp
c00052c0:	5b             	popl   %ebx
c00052c1:	5e             	popl   %esi
c00052c2:	5f             	popl   %edi
c00052c3:	5d             	popl   %ebp
c00052c4:	c3             	ret    

c00052c5 <_fat_init>:
c00052c5:	83 ec 18       	subl   $0x18,%esp
c00052c8:	6a 3c          	pushl  $0x3c
c00052ca:	e8 90 cb ff ff 	call   c0001e5f <_mm_malloc>
c00052cf:	c7 00 01 00 00 	movl   $0x1,(%eax)
c00052d4:	00 
c00052d5:	c7 40 04 a2 4d 	movl   $0xc0004da2,0x4(%eax)
c00052da:	00 c0 
c00052dc:	c7 40 08 fd 4d 	movl   $0xc0004dfd,0x8(%eax)
c00052e1:	00 c0 
c00052e3:	c7 40 0c c5 4e 	movl   $0xc0004ec5,0xc(%eax)
c00052e8:	00 c0 
c00052ea:	c7 40 10 82 50 	movl   $0xc0005082,0x10(%eax)
c00052ef:	00 c0 
c00052f1:	c7 40 14 88 50 	movl   $0xc0005088,0x14(%eax)
c00052f6:	00 c0 
c00052f8:	c7 40 18 d9 50 	movl   $0xc00050d9,0x18(%eax)
c00052fd:	00 c0 
c00052ff:	c7 40 1c df 50 	movl   $0xc00050df,0x1c(%eax)
c0005304:	00 c0 
c0005306:	c7 40 20 fc 50 	movl   $0xc00050fc,0x20(%eax)
c000530b:	00 c0 
c000530d:	c7 40 24 19 51 	movl   $0xc0005119,0x24(%eax)
c0005312:	00 c0 
c0005314:	c7 40 28 38 51 	movl   $0xc0005138,0x28(%eax)
c0005319:	00 c0 
c000531b:	c7 40 2c 3e 51 	movl   $0xc000513e,0x2c(%eax)
c0005320:	00 c0 
c0005322:	c7 40 30 af 4b 	movl   $0xc0004baf,0x30(%eax)
c0005327:	00 c0 
c0005329:	c7 40 34 69 4d 	movl   $0xc0004d69,0x34(%eax)
c000532e:	00 c0 
c0005330:	89 04 24       	movl   %eax,(%esp,1)
c0005333:	e8 10 00 00 00 	call   c0005348 <_vfs_register>
c0005338:	83 c4 1c       	addl   $0x1c,%esp
c000533b:	c3             	ret    
c000533c:	90             	nop    
c000533d:	90             	nop    
c000533e:	90             	nop    
c000533f:	90             	nop    
c0005340:	90             	nop    
c0005341:	90             	nop    
c0005342:	90             	nop    
c0005343:	90             	nop    
c0005344:	90             	nop    
c0005345:	90             	nop    
c0005346:	90             	nop    
c0005347:	90             	nop    

c0005348 <_vfs_register>:
c0005348:	8b 54 24 04    	movl   0x4(%esp,1),%edx
c000534c:	83 3d 4c 80 00 	cmpl   $0x0,0xc000804c
c0005351:	c0 00 
c0005353:	75 08          	jne    c000535d <_vfs_register+0x15>
c0005355:	89 15 4c 80 00 	movl   %edx,0xc000804c
c000535a:	c0 
c000535b:	eb 08          	jmp    c0005365 <_vfs_register+0x1d>
c000535d:	a1 48 80 00 c0 	movl   0xc0008048,%eax
c0005362:	89 50 38       	movl   %edx,0x38(%eax)
c0005365:	89 15 48 80 00 	movl   %edx,0xc0008048
c000536a:	c0 
c000536b:	b8 00 00 00 00 	movl   $0x0,%eax
c0005370:	c3             	ret    

c0005371 <_vfs_unregister>:
c0005371:	b8 ff ff ff ff 	movl   $0xffffffff,%eax
c0005376:	c3             	ret    

c0005377 <_vfs_find>:
c0005377:	8b 54 24 04    	movl   0x4(%esp,1),%edx
c000537b:	a1 4c 80 00 c0 	movl   0xc000804c,%eax
c0005380:	85 c0          	testl  %eax,%eax
c0005382:	75 0d          	jne    c0005391 <_vfs_find+0x1a>
c0005384:	c3             	ret    
c0005385:	3b 10          	cmpl   (%eax),%edx
c0005387:	74 0c          	je     c0005395 <_vfs_find+0x1e>
c0005389:	8b 40 38       	movl   0x38(%eax),%eax
c000538c:	85 c0          	testl  %eax,%eax
c000538e:	75 f5          	jne    c0005385 <_vfs_find+0xe>
c0005390:	c3             	ret    
c0005391:	3b 10          	cmpl   (%eax),%edx
c0005393:	75 f4          	jne    c0005389 <_vfs_find+0x12>
c0005395:	c3             	ret    

c0005396 <_vfs_mount>:
c0005396:	55             	pushl  %ebp
c0005397:	57             	pushl  %edi
c0005398:	56             	pushl  %esi
c0005399:	53             	pushl  %ebx
c000539a:	83 ec 18       	subl   $0x18,%esp
c000539d:	8b 7c 24 2c    	movl   0x2c(%esp,1),%edi
c00053a1:	8b 74 24 30    	movl   0x30(%esp,1),%esi
c00053a5:	8b 6c 24 34    	movl   0x34(%esp,1),%ebp
c00053a9:	6a 10          	pushl  $0x10
c00053ab:	e8 af ca ff ff 	call   c0001e5f <_mm_malloc>
c00053b0:	89 c3          	movl   %eax,%ebx
c00053b2:	55             	pushl  %ebp
c00053b3:	e8 bf ff ff ff 	call   c0005377 <_vfs_find>
c00053b8:	89 03          	movl   %eax,(%ebx)
c00053ba:	83 c4 14       	addl   $0x14,%esp
c00053bd:	85 c0          	testl  %eax,%eax
c00053bf:	75 13          	jne    c00053d4 <_vfs_mount+0x3e>
c00053c1:	83 ec 0c       	subl   $0xc,%esp
c00053c4:	53             	pushl  %ebx
c00053c5:	e8 08 ca ff ff 	call   c0001dd2 <_mm_free>
c00053ca:	ba ff ff ff ff 	movl   $0xffffffff,%edx
c00053cf:	83 c4 10       	addl   $0x10,%esp
c00053d2:	eb 7a          	jmp    c000544e <_vfs_mount+0xb8>
c00053d4:	83 ec 0c       	subl   $0xc,%esp
c00053d7:	56             	pushl  %esi
c00053d8:	e8 db 09 00 00 	call   c0005db8 <_strlen>
c00053dd:	40             	incl   %eax
c00053de:	89 04 24       	movl   %eax,(%esp,1)
c00053e1:	e8 79 ca ff ff 	call   c0001e5f <_mm_malloc>
c00053e6:	89 43 04       	movl   %eax,0x4(%ebx)
c00053e9:	83 c4 08       	addl   $0x8,%esp
c00053ec:	56             	pushl  %esi
c00053ed:	50             	pushl  %eax
c00053ee:	e8 6f 0a 00 00 	call   c0005e62 <_strcpy>
c00053f3:	89 3c 24       	movl   %edi,(%esp,1)
c00053f6:	e8 bd 09 00 00 	call   c0005db8 <_strlen>
c00053fb:	40             	incl   %eax
c00053fc:	89 04 24       	movl   %eax,(%esp,1)
c00053ff:	e8 5b ca ff ff 	call   c0001e5f <_mm_malloc>
c0005404:	89 43 08       	movl   %eax,0x8(%ebx)
c0005407:	83 c4 08       	addl   $0x8,%esp
c000540a:	57             	pushl  %edi
c000540b:	50             	pushl  %eax
c000540c:	e8 51 0a 00 00 	call   c0005e62 <_strcpy>
c0005411:	83 c4 10       	addl   $0x10,%esp
c0005414:	83 3d 54 80 00 	cmpl   $0x0,0xc0008054
c0005419:	c0 00 
c000541b:	75 08          	jne    c0005425 <_vfs_mount+0x8f>
c000541d:	89 1d 54 80 00 	movl   %ebx,0xc0008054
c0005422:	c0 
c0005423:	eb 08          	jmp    c000542d <_vfs_mount+0x97>
c0005425:	a1 50 80 00 c0 	movl   0xc0008050,%eax
c000542a:	89 58 0c       	movl   %ebx,0xc(%eax)
c000542d:	89 1d 50 80 00 	movl   %ebx,0xc0008050
c0005432:	c0 
c0005433:	8b 03          	movl   (%ebx),%eax
c0005435:	8b 40 30       	movl   0x30(%eax),%eax
c0005438:	ba ff ff ff ff 	movl   $0xffffffff,%edx
c000543d:	85 c0          	testl  %eax,%eax
c000543f:	74 0d          	je     c000544e <_vfs_mount+0xb8>
c0005441:	83 ec 04       	subl   $0x4,%esp
c0005444:	55             	pushl  %ebp
c0005445:	56             	pushl  %esi
c0005446:	57             	pushl  %edi
c0005447:	ff d0          	call   *%eax
c0005449:	89 c2          	movl   %eax,%edx
c000544b:	83 c4 10       	addl   $0x10,%esp
c000544e:	89 d0          	movl   %edx,%eax
c0005450:	83 c4 0c       	addl   $0xc,%esp
c0005453:	5b             	popl   %ebx
c0005454:	5e             	popl   %esi
c0005455:	5f             	popl   %edi
c0005456:	5d             	popl   %ebp
c0005457:	c3             	ret    

c0005458 <_vfs_unmount>:
c0005458:	56             	pushl  %esi
c0005459:	53             	pushl  %ebx
c000545a:	81 ec 0c 01 00 	subl   $0x10c,%esp
c000545f:	00 
c0005460:	ff b4 24 18 01 	pushl  0x118(%esp,1)
c0005465:	00 00 
c0005467:	8d 44 24 10    	leal   0x10(%esp,1),%eax
c000546b:	50             	pushl  %eax
c000546c:	e8 f1 09 00 00 	call   c0005e62 <_strcpy>
c0005471:	8b 1d 54 80 00 	movl   0xc0008054,%ebx
c0005476:	c0 
c0005477:	83 c4 10       	addl   $0x10,%esp
c000547a:	85 db          	testl  %ebx,%ebx
c000547c:	0f 84 87 00 00 	je     c0005509 <_vfs_unmount+0xb1>
c0005481:	00 
c0005482:	8d 74 24 04    	leal   0x4(%esp,1),%esi
c0005486:	83 ec 08       	subl   $0x8,%esp
c0005489:	56             	pushl  %esi
c000548a:	ff 73 04       	pushl  0x4(%ebx)
c000548d:	e8 61 09 00 00 	call   c0005df3 <_strcmp>
c0005492:	83 c4 10       	addl   $0x10,%esp
c0005495:	85 c0          	testl  %eax,%eax
c0005497:	74 09          	je     c00054a2 <_vfs_unmount+0x4a>
c0005499:	8b 5b 0c       	movl   0xc(%ebx),%ebx
c000549c:	85 db          	testl  %ebx,%ebx
c000549e:	74 69          	je     c0005509 <_vfs_unmount+0xb1>
c00054a0:	eb e4          	jmp    c0005486 <_vfs_unmount+0x2e>
c00054a2:	8b 03          	movl   (%ebx),%eax
c00054a4:	8b 50 34       	movl   0x34(%eax),%edx
c00054a7:	85 d2          	testl  %edx,%edx
c00054a9:	74 5e          	je     c0005509 <_vfs_unmount+0xb1>
c00054ab:	83 ec 0c       	subl   $0xc,%esp
c00054ae:	8d 44 24 10    	leal   0x10(%esp,1),%eax
c00054b2:	50             	pushl  %eax
c00054b3:	ff d2          	call   *%edx
c00054b5:	8b 15 54 80 00 	movl   0xc0008054,%edx
c00054ba:	c0 
c00054bb:	83 c4 10       	addl   $0x10,%esp
c00054be:	39 d3          	cmpl   %edx,%ebx
c00054c0:	75 4e          	jne    c0005510 <_vfs_unmount+0xb8>
c00054c2:	8b 42 0c       	movl   0xc(%edx),%eax
c00054c5:	a3 54 80 00 c0 	movl   %eax,0xc0008054
c00054ca:	eb 15          	jmp    c00054e1 <_vfs_unmount+0x89>
c00054cc:	8b 42 0c       	movl   0xc(%edx),%eax
c00054cf:	39 c3          	cmpl   %eax,%ebx
c00054d1:	74 08          	je     c00054db <_vfs_unmount+0x83>
c00054d3:	89 c2          	movl   %eax,%edx
c00054d5:	85 d2          	testl  %edx,%edx
c00054d7:	75 f3          	jne    c00054cc <_vfs_unmount+0x74>
c00054d9:	eb 06          	jmp    c00054e1 <_vfs_unmount+0x89>
c00054db:	8b 43 0c       	movl   0xc(%ebx),%eax
c00054de:	89 42 0c       	movl   %eax,0xc(%edx)
c00054e1:	83 ec 0c       	subl   $0xc,%esp
c00054e4:	ff 73 04       	pushl  0x4(%ebx)
c00054e7:	e8 e6 c8 ff ff 	call   c0001dd2 <_mm_free>
c00054ec:	83 c4 04       	addl   $0x4,%esp
c00054ef:	ff 73 08       	pushl  0x8(%ebx)
c00054f2:	e8 db c8 ff ff 	call   c0001dd2 <_mm_free>
c00054f7:	89 1c 24       	movl   %ebx,(%esp,1)
c00054fa:	e8 d3 c8 ff ff 	call   c0001dd2 <_mm_free>
c00054ff:	b8 00 00 00 00 	movl   $0x0,%eax
c0005504:	83 c4 10       	addl   $0x10,%esp
c0005507:	eb 16          	jmp    c000551f <_vfs_unmount+0xc7>
c0005509:	b8 ff ff ff ff 	movl   $0xffffffff,%eax
c000550e:	eb 0f          	jmp    c000551f <_vfs_unmount+0xc7>
c0005510:	85 d2          	testl  %edx,%edx
c0005512:	74 cd          	je     c00054e1 <_vfs_unmount+0x89>
c0005514:	8b 42 0c       	movl   0xc(%edx),%eax
c0005517:	39 c3          	cmpl   %eax,%ebx
c0005519:	74 c0          	je     c00054db <_vfs_unmount+0x83>
c000551b:	89 c2          	movl   %eax,%edx
c000551d:	eb b6          	jmp    c00054d5 <_vfs_unmount+0x7d>
c000551f:	81 c4 04 01 00 	addl   $0x104,%esp
c0005524:	00 
c0005525:	5b             	popl   %ebx
c0005526:	5e             	popl   %esi
c0005527:	c3             	ret    

c0005528 <_vfs_file2mountpoint>:
c0005528:	56             	pushl  %esi
c0005529:	53             	pushl  %ebx
c000552a:	83 ec 04       	subl   $0x4,%esp
c000552d:	8b 74 24 10    	movl   0x10(%esp,1),%esi
c0005531:	8b 1d 54 80 00 	movl   0xc0008054,%ebx
c0005536:	c0 
c0005537:	85 db          	testl  %ebx,%ebx
c0005539:	74 26          	je     c0005561 <_vfs_file2mountpoint+0x39>
c000553b:	83 ec 0c       	subl   $0xc,%esp
c000553e:	ff 73 04       	pushl  0x4(%ebx)
c0005541:	e8 72 08 00 00 	call   c0005db8 <_strlen>
c0005546:	83 c4 0c       	addl   $0xc,%esp
c0005549:	50             	pushl  %eax
c000554a:	56             	pushl  %esi
c000554b:	ff 73 04       	pushl  0x4(%ebx)
c000554e:	e8 be 08 00 00 	call   c0005e11 <_strncmp>
c0005553:	83 c4 10       	addl   $0x10,%esp
c0005556:	85 c0          	testl  %eax,%eax
c0005558:	74 07          	je     c0005561 <_vfs_file2mountpoint+0x39>
c000555a:	8b 5b 0c       	movl   0xc(%ebx),%ebx
c000555d:	85 db          	testl  %ebx,%ebx
c000555f:	75 da          	jne    c000553b <_vfs_file2mountpoint+0x13>
c0005561:	89 d8          	movl   %ebx,%eax
c0005563:	83 c4 04       	addl   $0x4,%esp
c0005566:	5b             	popl   %ebx
c0005567:	5e             	popl   %esi
c0005568:	c3             	ret    

c0005569 <_vfs_open>:
c0005569:	57             	pushl  %edi
c000556a:	56             	pushl  %esi
c000556b:	53             	pushl  %ebx
c000556c:	81 ec 08 01 00 	subl   $0x108,%esp
c0005571:	00 
c0005572:	ff b4 24 18 01 	pushl  0x118(%esp,1)
c0005577:	00 00 
c0005579:	8d 5c 24 0c    	leal   0xc(%esp,1),%ebx
c000557d:	53             	pushl  %ebx
c000557e:	e8 df 08 00 00 	call   c0005e62 <_strcpy>
c0005583:	89 1c 24       	movl   %ebx,(%esp,1)
c0005586:	e8 9d ff ff ff 	call   c0005528 <_vfs_file2mountpoint>
c000558b:	89 c6          	movl   %eax,%esi
c000558d:	83 c4 10       	addl   $0x10,%esp
c0005590:	85 c0          	testl  %eax,%eax
c0005592:	0f 84 a4 00 00 	je     c000563c <_vfs_open+0xd3>
c0005597:	00 
c0005598:	83 ec 0c       	subl   $0xc,%esp
c000559b:	ff 70 04       	pushl  0x4(%eax)
c000559e:	e8 15 08 00 00 	call   c0005db8 <_strlen>
c00055a3:	8d 3c 03       	leal   (%ebx,%eax,1),%edi
c00055a6:	8b 06          	movl   (%esi),%eax
c00055a8:	83 c4 10       	addl   $0x10,%esp
c00055ab:	83 78 04 00    	cmpl   $0x0,0x4(%eax)
c00055af:	0f 84 87 00 00 	je     c000563c <_vfs_open+0xd3>
c00055b4:	00 
c00055b5:	83 ec 0c       	subl   $0xc,%esp
c00055b8:	6a 0c          	pushl  $0xc
c00055ba:	e8 a0 c8 ff ff 	call   c0001e5f <_mm_malloc>
c00055bf:	89 c3          	movl   %eax,%ebx
c00055c1:	89 30          	movl   %esi,(%eax)
c00055c3:	8b 84 24 24 01 	movl   0x124(%esp,1),%eax
c00055c8:	00 00 
c00055ca:	89 43 08       	movl   %eax,0x8(%ebx)
c00055cd:	83 c4 08       	addl   $0x8,%esp
c00055d0:	8b 06          	movl   (%esi),%eax
c00055d2:	57             	pushl  %edi
c00055d3:	53             	pushl  %ebx
c00055d4:	ff 50 04       	call   *0x4(%eax)
c00055d7:	83 c4 10       	addl   $0x10,%esp
c00055da:	85 c0          	testl  %eax,%eax
c00055dc:	74 1d          	je     c00055fb <_vfs_open+0x92>
c00055de:	8b 43 08       	movl   0x8(%ebx),%eax
c00055e1:	83 e0 09       	andl   $0x9,%eax
c00055e4:	83 f8 09       	cmpl   $0x9,%eax
c00055e7:	75 58          	jne    c0005641 <_vfs_open+0xd8>
c00055e9:	83 ec 04       	subl   $0x4,%esp
c00055ec:	6a 02          	pushl  $0x2
c00055ee:	6a 00          	pushl  $0x0
c00055f0:	53             	pushl  %ebx
c00055f1:	e8 1b 01 00 00 	call   c0005711 <_vfs_seek>
c00055f6:	83 c4 10       	addl   $0x10,%esp
c00055f9:	eb 46          	jmp    c0005641 <_vfs_open+0xd8>
c00055fb:	f6 43 08 04    	testb  $0x4,0x8(%ebx)
c00055ff:	74 28          	je     c0005629 <_vfs_open+0xc0>
c0005601:	8b 06          	movl   (%esi),%eax
c0005603:	8b 40 1c       	movl   0x1c(%eax),%eax
c0005606:	85 c0          	testl  %eax,%eax
c0005608:	74 1f          	je     c0005629 <_vfs_open+0xc0>
c000560a:	83 ec 0c       	subl   $0xc,%esp
c000560d:	57             	pushl  %edi
c000560e:	ff d0          	call   *%eax
c0005610:	83 c4 10       	addl   $0x10,%esp
c0005613:	83 f8 ff       	cmpl   $0xffffffff,%eax
c0005616:	74 11          	je     c0005629 <_vfs_open+0xc0>
c0005618:	83 ec 08       	subl   $0x8,%esp
c000561b:	8b 06          	movl   (%esi),%eax
c000561d:	57             	pushl  %edi
c000561e:	53             	pushl  %ebx
c000561f:	ff 50 04       	call   *0x4(%eax)
c0005622:	83 c4 10       	addl   $0x10,%esp
c0005625:	85 c0          	testl  %eax,%eax
c0005627:	75 13          	jne    c000563c <_vfs_open+0xd3>
c0005629:	83 ec 0c       	subl   $0xc,%esp
c000562c:	53             	pushl  %ebx
c000562d:	e8 a0 c7 ff ff 	call   c0001dd2 <_mm_free>
c0005632:	bb 00 00 00 00 	movl   $0x0,%ebx
c0005637:	83 c4 10       	addl   $0x10,%esp
c000563a:	eb 05          	jmp    c0005641 <_vfs_open+0xd8>
c000563c:	bb 00 00 00 00 	movl   $0x0,%ebx
c0005641:	89 d8          	movl   %ebx,%eax
c0005643:	81 c4 00 01 00 	addl   $0x100,%esp
c0005648:	00 
c0005649:	5b             	popl   %ebx
c000564a:	5e             	popl   %esi
c000564b:	5f             	popl   %edi
c000564c:	c3             	ret    

c000564d <_vfs_close>:
c000564d:	56             	pushl  %esi
c000564e:	53             	pushl  %ebx
c000564f:	83 ec 04       	subl   $0x4,%esp
c0005652:	8b 5c 24 10    	movl   0x10(%esp,1),%ebx
c0005656:	8b 03          	movl   (%ebx),%eax
c0005658:	8b 00          	movl   (%eax),%eax
c000565a:	8b 40 08       	movl   0x8(%eax),%eax
c000565d:	be ff ff ff ff 	movl   $0xffffffff,%esi
c0005662:	85 c0          	testl  %eax,%eax
c0005664:	74 13          	je     c0005679 <_vfs_close+0x2c>
c0005666:	83 ec 0c       	subl   $0xc,%esp
c0005669:	53             	pushl  %ebx
c000566a:	ff d0          	call   *%eax
c000566c:	89 c6          	movl   %eax,%esi
c000566e:	89 1c 24       	movl   %ebx,(%esp,1)
c0005671:	e8 5c c7 ff ff 	call   c0001dd2 <_mm_free>
c0005676:	83 c4 10       	addl   $0x10,%esp
c0005679:	89 f0          	movl   %esi,%eax
c000567b:	83 c4 04       	addl   $0x4,%esp
c000567e:	5b             	popl   %ebx
c000567f:	5e             	popl   %esi
c0005680:	c3             	ret    

c0005681 <_vfs_read>:
c0005681:	83 ec 0c       	subl   $0xc,%esp
c0005684:	8b 54 24 10    	movl   0x10(%esp,1),%edx
c0005688:	f6 42 08 01    	testb  $0x1,0x8(%edx)
c000568c:	74 1e          	je     c00056ac <_vfs_read+0x2b>
c000568e:	8b 02          	movl   (%edx),%eax
c0005690:	8b 00          	movl   (%eax),%eax
c0005692:	8b 40 0c       	movl   0xc(%eax),%eax
c0005695:	85 c0          	testl  %eax,%eax
c0005697:	74 13          	je     c00056ac <_vfs_read+0x2b>
c0005699:	83 ec 04       	subl   $0x4,%esp
c000569c:	ff 74 24 1c    	pushl  0x1c(%esp,1)
c00056a0:	ff 74 24 1c    	pushl  0x1c(%esp,1)
c00056a4:	52             	pushl  %edx
c00056a5:	ff d0          	call   *%eax
c00056a7:	83 c4 10       	addl   $0x10,%esp
c00056aa:	eb 05          	jmp    c00056b1 <_vfs_read+0x30>
c00056ac:	b8 ff ff ff ff 	movl   $0xffffffff,%eax
c00056b1:	83 c4 0c       	addl   $0xc,%esp
c00056b4:	c3             	ret    

c00056b5 <_vfs_write>:
c00056b5:	56             	pushl  %esi
c00056b6:	53             	pushl  %ebx
c00056b7:	83 ec 04       	subl   $0x4,%esp
c00056ba:	8b 74 24 10    	movl   0x10(%esp,1),%esi
c00056be:	f6 46 08 02    	testb  $0x2,0x8(%esi)
c00056c2:	74 40          	je     c0005704 <_vfs_write+0x4f>
c00056c4:	8b 06          	movl   (%esi),%eax
c00056c6:	8b 00          	movl   (%eax),%eax
c00056c8:	8b 40 10       	movl   0x10(%eax),%eax
c00056cb:	85 c0          	testl  %eax,%eax
c00056cd:	74 35          	je     c0005704 <_vfs_write+0x4f>
c00056cf:	83 ec 04       	subl   $0x4,%esp
c00056d2:	ff 74 24 1c    	pushl  0x1c(%esp,1)
c00056d6:	ff 74 24 1c    	pushl  0x1c(%esp,1)
c00056da:	56             	pushl  %esi
c00056db:	ff d0          	call   *%eax
c00056dd:	89 c3          	movl   %eax,%ebx
c00056df:	83 c4 10       	addl   $0x10,%esp
c00056e2:	83 f8 ff       	cmpl   $0xffffffff,%eax
c00056e5:	74 1d          	je     c0005704 <_vfs_write+0x4f>
c00056e7:	8b 46 08       	movl   0x8(%esi),%eax
c00056ea:	83 e0 09       	andl   $0x9,%eax
c00056ed:	83 f8 09       	cmpl   $0x9,%eax
c00056f0:	75 17          	jne    c0005709 <_vfs_write+0x54>
c00056f2:	83 ec 04       	subl   $0x4,%esp
c00056f5:	6a 02          	pushl  $0x2
c00056f7:	6a 00          	pushl  $0x0
c00056f9:	56             	pushl  %esi
c00056fa:	e8 12 00 00 00 	call   c0005711 <_vfs_seek>
c00056ff:	83 c4 10       	addl   $0x10,%esp
c0005702:	eb 05          	jmp    c0005709 <_vfs_write+0x54>
c0005704:	bb ff ff ff ff 	movl   $0xffffffff,%ebx
c0005709:	89 d8          	movl   %ebx,%eax
c000570b:	83 c4 04       	addl   $0x4,%esp
c000570e:	5b             	popl   %ebx
c000570f:	5e             	popl   %esi
c0005710:	c3             	ret    

c0005711 <_vfs_seek>:
c0005711:	53             	pushl  %ebx
c0005712:	83 ec 08       	subl   $0x8,%esp
c0005715:	8b 5c 24 10    	movl   0x10(%esp,1),%ebx
c0005719:	8a 4c 24 18    	movb   0x18(%esp,1),%cl
c000571d:	8b 03          	movl   (%ebx),%eax
c000571f:	8b 00          	movl   (%eax),%eax
c0005721:	8b 50 14       	movl   0x14(%eax),%edx
c0005724:	b8 ff ff ff ff 	movl   $0xffffffff,%eax
c0005729:	85 d2          	testl  %edx,%edx
c000572b:	74 15          	je     c0005742 <_vfs_seek+0x31>
c000572d:	83 ec 04       	subl   $0x4,%esp
c0005730:	b8 00 00 00 00 	movl   $0x0,%eax
c0005735:	88 c8          	movb   %cl,%al
c0005737:	50             	pushl  %eax
c0005738:	ff 74 24 1c    	pushl  0x1c(%esp,1)
c000573c:	53             	pushl  %ebx
c000573d:	ff d2          	call   *%edx
c000573f:	83 c4 10       	addl   $0x10,%esp
c0005742:	83 c4 08       	addl   $0x8,%esp
c0005745:	5b             	popl   %ebx
c0005746:	c3             	ret    

c0005747 <_vfs_control>:
c0005747:	83 ec 0c       	subl   $0xc,%esp
c000574a:	8b 4c 24 10    	movl   0x10(%esp,1),%ecx
c000574e:	8b 01          	movl   (%ecx),%eax
c0005750:	8b 00          	movl   (%eax),%eax
c0005752:	8b 50 18       	movl   0x18(%eax),%edx
c0005755:	b8 ff ff ff ff 	movl   $0xffffffff,%eax
c000575a:	85 d2          	testl  %edx,%edx
c000575c:	74 11          	je     c000576f <_vfs_control+0x28>
c000575e:	83 ec 04       	subl   $0x4,%esp
c0005761:	ff 74 24 1c    	pushl  0x1c(%esp,1)
c0005765:	ff 74 24 1c    	pushl  0x1c(%esp,1)
c0005769:	51             	pushl  %ecx
c000576a:	ff d2          	call   *%edx
c000576c:	83 c4 10       	addl   $0x10,%esp
c000576f:	83 c4 0c       	addl   $0xc,%esp
c0005772:	c3             	ret    

c0005773 <_vfs_create>:
c0005773:	56             	pushl  %esi
c0005774:	53             	pushl  %ebx
c0005775:	81 ec 0c 01 00 	subl   $0x10c,%esp
c000577a:	00 
c000577b:	ff b4 24 18 01 	pushl  0x118(%esp,1)
c0005780:	00 00 
c0005782:	8d 74 24 10    	leal   0x10(%esp,1),%esi
c0005786:	56             	pushl  %esi
c0005787:	e8 d6 06 00 00 	call   c0005e62 <_strcpy>
c000578c:	89 34 24       	movl   %esi,(%esp,1)
c000578f:	e8 94 fd ff ff 	call   c0005528 <_vfs_file2mountpoint>
c0005794:	89 c3          	movl   %eax,%ebx
c0005796:	83 c4 10       	addl   $0x10,%esp
c0005799:	85 c0          	testl  %eax,%eax
c000579b:	74 25          	je     c00057c2 <_vfs_create+0x4f>
c000579d:	83 ec 0c       	subl   $0xc,%esp
c00057a0:	ff 70 04       	pushl  0x4(%eax)
c00057a3:	e8 10 06 00 00 	call   c0005db8 <_strlen>
c00057a8:	8d 14 06       	leal   (%esi,%eax,1),%edx
c00057ab:	8b 03          	movl   (%ebx),%eax
c00057ad:	8b 40 1c       	movl   0x1c(%eax),%eax
c00057b0:	83 c4 10       	addl   $0x10,%esp
c00057b3:	85 c0          	testl  %eax,%eax
c00057b5:	74 0b          	je     c00057c2 <_vfs_create+0x4f>
c00057b7:	83 ec 0c       	subl   $0xc,%esp
c00057ba:	52             	pushl  %edx
c00057bb:	ff d0          	call   *%eax
c00057bd:	83 c4 10       	addl   $0x10,%esp
c00057c0:	eb 05          	jmp    c00057c7 <_vfs_create+0x54>
c00057c2:	b8 ff ff ff ff 	movl   $0xffffffff,%eax
c00057c7:	81 c4 04 01 00 	addl   $0x104,%esp
c00057cc:	00 
c00057cd:	5b             	popl   %ebx
c00057ce:	5e             	popl   %esi
c00057cf:	c3             	ret    

c00057d0 <_vfs_delete>:
c00057d0:	56             	pushl  %esi
c00057d1:	53             	pushl  %ebx
c00057d2:	81 ec 0c 01 00 	subl   $0x10c,%esp
c00057d7:	00 
c00057d8:	ff b4 24 18 01 	pushl  0x118(%esp,1)
c00057dd:	00 00 
c00057df:	8d 74 24 10    	leal   0x10(%esp,1),%esi
c00057e3:	56             	pushl  %esi
c00057e4:	e8 79 06 00 00 	call   c0005e62 <_strcpy>
c00057e9:	89 34 24       	movl   %esi,(%esp,1)
c00057ec:	e8 37 fd ff ff 	call   c0005528 <_vfs_file2mountpoint>
c00057f1:	89 c3          	movl   %eax,%ebx
c00057f3:	83 c4 10       	addl   $0x10,%esp
c00057f6:	85 c0          	testl  %eax,%eax
c00057f8:	74 25          	je     c000581f <_vfs_delete+0x4f>
c00057fa:	83 ec 0c       	subl   $0xc,%esp
c00057fd:	ff 70 04       	pushl  0x4(%eax)
c0005800:	e8 b3 05 00 00 	call   c0005db8 <_strlen>
c0005805:	8d 14 06       	leal   (%esi,%eax,1),%edx
c0005808:	8b 03          	movl   (%ebx),%eax
c000580a:	8b 40 20       	movl   0x20(%eax),%eax
c000580d:	83 c4 10       	addl   $0x10,%esp
c0005810:	85 c0          	testl  %eax,%eax
c0005812:	74 0b          	je     c000581f <_vfs_delete+0x4f>
c0005814:	83 ec 0c       	subl   $0xc,%esp
c0005817:	52             	pushl  %edx
c0005818:	ff d0          	call   *%eax
c000581a:	83 c4 10       	addl   $0x10,%esp
c000581d:	eb 05          	jmp    c0005824 <_vfs_delete+0x54>
c000581f:	b8 ff ff ff ff 	movl   $0xffffffff,%eax
c0005824:	81 c4 04 01 00 	addl   $0x104,%esp
c0005829:	00 
c000582a:	5b             	popl   %ebx
c000582b:	5e             	popl   %esi
c000582c:	c3             	ret    

c000582d <_vfs_rename>:
c000582d:	57             	pushl  %edi
c000582e:	56             	pushl  %esi
c000582f:	53             	pushl  %ebx
c0005830:	81 ec 08 02 00 	subl   $0x208,%esp
c0005835:	00 
c0005836:	ff b4 24 18 02 	pushl  0x218(%esp,1)
c000583b:	00 00 
c000583d:	8d b4 24 0c 01 	leal   0x10c(%esp,1),%esi
c0005842:	00 00 
c0005844:	56             	pushl  %esi
c0005845:	e8 18 06 00 00 	call   c0005e62 <_strcpy>
c000584a:	83 c4 08       	addl   $0x8,%esp
c000584d:	ff b4 24 1c 02 	pushl  0x21c(%esp,1)
c0005852:	00 00 
c0005854:	8d 7c 24 0c    	leal   0xc(%esp,1),%edi
c0005858:	57             	pushl  %edi
c0005859:	e8 04 06 00 00 	call   c0005e62 <_strcpy>
c000585e:	89 34 24       	movl   %esi,(%esp,1)
c0005861:	e8 c2 fc ff ff 	call   c0005528 <_vfs_file2mountpoint>
c0005866:	89 c3          	movl   %eax,%ebx
c0005868:	83 c4 10       	addl   $0x10,%esp
c000586b:	85 c0          	testl  %eax,%eax
c000586d:	74 33          	je     c00058a2 <_vfs_rename+0x75>
c000586f:	83 ec 0c       	subl   $0xc,%esp
c0005872:	ff 70 04       	pushl  0x4(%eax)
c0005875:	e8 3e 05 00 00 	call   c0005db8 <_strlen>
c000587a:	01 c6          	addl   %eax,%esi
c000587c:	83 c4 04       	addl   $0x4,%esp
c000587f:	ff 73 04       	pushl  0x4(%ebx)
c0005882:	e8 31 05 00 00 	call   c0005db8 <_strlen>
c0005887:	8d 14 07       	leal   (%edi,%eax,1),%edx
c000588a:	8b 03          	movl   (%ebx),%eax
c000588c:	8b 40 24       	movl   0x24(%eax),%eax
c000588f:	83 c4 10       	addl   $0x10,%esp
c0005892:	85 c0          	testl  %eax,%eax
c0005894:	74 0c          	je     c00058a2 <_vfs_rename+0x75>
c0005896:	83 ec 08       	subl   $0x8,%esp
c0005899:	52             	pushl  %edx
c000589a:	56             	pushl  %esi
c000589b:	ff d0          	call   *%eax
c000589d:	83 c4 10       	addl   $0x10,%esp
c00058a0:	eb 05          	jmp    c00058a7 <_vfs_rename+0x7a>
c00058a2:	b8 ff ff ff ff 	movl   $0xffffffff,%eax
c00058a7:	81 c4 00 02 00 	addl   $0x200,%esp
c00058ac:	00 
c00058ad:	5b             	popl   %ebx
c00058ae:	5e             	popl   %esi
c00058af:	5f             	popl   %edi
c00058b0:	c3             	ret    

c00058b1 <_vfs_copy>:
c00058b1:	57             	pushl  %edi
c00058b2:	56             	pushl  %esi
c00058b3:	53             	pushl  %ebx
c00058b4:	81 ec 08 02 00 	subl   $0x208,%esp
c00058b9:	00 
c00058ba:	ff b4 24 18 02 	pushl  0x218(%esp,1)
c00058bf:	00 00 
c00058c1:	8d b4 24 0c 01 	leal   0x10c(%esp,1),%esi
c00058c6:	00 00 
c00058c8:	56             	pushl  %esi
c00058c9:	e8 94 05 00 00 	call   c0005e62 <_strcpy>
c00058ce:	83 c4 08       	addl   $0x8,%esp
c00058d1:	ff b4 24 1c 02 	pushl  0x21c(%esp,1)
c00058d6:	00 00 
c00058d8:	8d 7c 24 0c    	leal   0xc(%esp,1),%edi
c00058dc:	57             	pushl  %edi
c00058dd:	e8 80 05 00 00 	call   c0005e62 <_strcpy>
c00058e2:	89 34 24       	movl   %esi,(%esp,1)
c00058e5:	e8 3e fc ff ff 	call   c0005528 <_vfs_file2mountpoint>
c00058ea:	89 c3          	movl   %eax,%ebx
c00058ec:	83 c4 10       	addl   $0x10,%esp
c00058ef:	85 c0          	testl  %eax,%eax
c00058f1:	74 33          	je     c0005926 <_vfs_copy+0x75>
c00058f3:	83 ec 0c       	subl   $0xc,%esp
c00058f6:	ff 70 04       	pushl  0x4(%eax)
c00058f9:	e8 ba 04 00 00 	call   c0005db8 <_strlen>
c00058fe:	01 c6          	addl   %eax,%esi
c0005900:	83 c4 04       	addl   $0x4,%esp
c0005903:	ff 73 04       	pushl  0x4(%ebx)
c0005906:	e8 ad 04 00 00 	call   c0005db8 <_strlen>
c000590b:	8d 14 07       	leal   (%edi,%eax,1),%edx
c000590e:	8b 03          	movl   (%ebx),%eax
c0005910:	8b 40 28       	movl   0x28(%eax),%eax
c0005913:	83 c4 10       	addl   $0x10,%esp
c0005916:	85 c0          	testl  %eax,%eax
c0005918:	74 0c          	je     c0005926 <_vfs_copy+0x75>
c000591a:	83 ec 08       	subl   $0x8,%esp
c000591d:	52             	pushl  %edx
c000591e:	56             	pushl  %esi
c000591f:	ff d0          	call   *%eax
c0005921:	83 c4 10       	addl   $0x10,%esp
c0005924:	eb 05          	jmp    c000592b <_vfs_copy+0x7a>
c0005926:	b8 ff ff ff ff 	movl   $0xffffffff,%eax
c000592b:	81 c4 00 02 00 	addl   $0x200,%esp
c0005930:	00 
c0005931:	5b             	popl   %ebx
c0005932:	5e             	popl   %esi
c0005933:	5f             	popl   %edi
c0005934:	c3             	ret    

c0005935 <_vfs_list>:
c0005935:	56             	pushl  %esi
c0005936:	53             	pushl  %ebx
c0005937:	81 ec 0c 01 00 	subl   $0x10c,%esp
c000593c:	00 
c000593d:	8b 9c 24 18 01 	movl   0x118(%esp,1),%ebx
c0005942:	00 00 
c0005944:	53             	pushl  %ebx
c0005945:	8d 74 24 10    	leal   0x10(%esp,1),%esi
c0005949:	56             	pushl  %esi
c000594a:	e8 13 05 00 00 	call   c0005e62 <_strcpy>
c000594f:	89 34 24       	movl   %esi,(%esp,1)
c0005952:	e8 61 04 00 00 	call   c0005db8 <_strlen>
c0005957:	83 c4 10       	addl   $0x10,%esp
c000595a:	80 7c 03 ff 2f 	cmpb   $0x2f,0xffffffff(%ebx,%eax,1)
c000595f:	75 37          	jne    c0005998 <_vfs_list+0x63>
c0005961:	83 ec 0c       	subl   $0xc,%esp
c0005964:	56             	pushl  %esi
c0005965:	e8 be fb ff ff 	call   c0005528 <_vfs_file2mountpoint>
c000596a:	89 c3          	movl   %eax,%ebx
c000596c:	83 c4 10       	addl   $0x10,%esp
c000596f:	85 c0          	testl  %eax,%eax
c0005971:	74 25          	je     c0005998 <_vfs_list+0x63>
c0005973:	83 ec 0c       	subl   $0xc,%esp
c0005976:	ff 70 04       	pushl  0x4(%eax)
c0005979:	e8 3a 04 00 00 	call   c0005db8 <_strlen>
c000597e:	8d 14 06       	leal   (%esi,%eax,1),%edx
c0005981:	8b 03          	movl   (%ebx),%eax
c0005983:	8b 40 2c       	movl   0x2c(%eax),%eax
c0005986:	83 c4 10       	addl   $0x10,%esp
c0005989:	85 c0          	testl  %eax,%eax
c000598b:	74 0b          	je     c0005998 <_vfs_list+0x63>
c000598d:	83 ec 0c       	subl   $0xc,%esp
c0005990:	52             	pushl  %edx
c0005991:	ff d0          	call   *%eax
c0005993:	83 c4 10       	addl   $0x10,%esp
c0005996:	eb 05          	jmp    c000599d <_vfs_list+0x68>
c0005998:	b8 00 00 00 00 	movl   $0x0,%eax
c000599d:	81 c4 04 01 00 	addl   $0x104,%esp
c00059a2:	00 
c00059a3:	5b             	popl   %ebx
c00059a4:	5e             	popl   %esi
c00059a5:	c3             	ret    
c00059a6:	2f             	das    
c00059a7:	64 65 76 69    	jbe    c0005a14 <_printf_putuint+0x3c>
c00059ab:	63 65 2f       	arpl   %sp,0x2f(%ebp)
	...

c00059af <_vfs_init>:
c00059af:	83 ec 0c       	subl   $0xc,%esp
c00059b2:	e8 a8 e9 ff ff 	call   c000435f <_dfs_init>
c00059b7:	83 ec 04       	subl   $0x4,%esp
c00059ba:	6a 02          	pushl  $0x2
c00059bc:	68 a6 59 00 c0 	pushl  $0xc00059a6
c00059c1:	6a 00          	pushl  $0x0
c00059c3:	e8 ce f9 ff ff 	call   c0005396 <_vfs_mount>
c00059c8:	e8 f8 f8 ff ff 	call   c00052c5 <_fat_init>
c00059cd:	b8 00 00 00 00 	movl   $0x0,%eax
c00059d2:	83 c4 1c       	addl   $0x1c,%esp
c00059d5:	c3             	ret    
c00059d6:	90             	nop    
c00059d7:	90             	nop    

c00059d8 <_printf_putuint>:
c00059d8:	56             	pushl  %esi
c00059d9:	53             	pushl  %ebx
c00059da:	81 ec 04 01 00 	subl   $0x104,%esp
c00059df:	00 
c00059e0:	8b 8c 24 14 01 	movl   0x114(%esp,1),%ecx
c00059e5:	00 00 
c00059e7:	89 ca          	movl   %ecx,%edx
c00059e9:	c1 ea 09       	shrl   $0x9,%edx
c00059ec:	b8 83 4b 04 00 	movl   $0x44b83,%eax
c00059f1:	f7 e2          	mull   %edx,%eax
c00059f3:	c1 ea 07       	shrl   $0x7,%edx
c00059f6:	85 d2          	testl  %edx,%edx
c00059f8:	74 0c          	je     c0005a06 <_printf_putuint+0x2e>
c00059fa:	bb 00 ca 9a 3b 	movl   $0x3b9aca00,%ebx
c00059ff:	be 00 00 00 00 	movl   $0x0,%esi
c0005a04:	eb 3a          	jmp    c0005a40 <_printf_putuint+0x68>
c0005a06:	bb 00 ca 9a 3b 	movl   $0x3b9aca00,%ebx
c0005a0b:	be cd cc cc cc 	movl   $0xcccccccd,%esi
c0005a10:	89 d8          	movl   %ebx,%eax
c0005a12:	f7 e6          	mull   %esi,%eax
c0005a14:	89 d3          	movl   %edx,%ebx
c0005a16:	c1 eb 03       	shrl   $0x3,%ebx
c0005a19:	89 c8          	movl   %ecx,%eax
c0005a1b:	ba 00 00 00 00 	movl   $0x0,%edx
c0005a20:	f7 f3          	divl   %ebx,%eax
c0005a22:	85 c0          	testl  %eax,%eax
c0005a24:	0f 94 c2       	sete   %dl
c0005a27:	83 fb 09       	cmpl   $0x9,%ebx
c0005a2a:	0f 97 c0       	seta   %al
c0005a2d:	84 d0          	testb  %dl,%al
c0005a2f:	75 df          	jne    c0005a10 <_printf_putuint+0x38>
c0005a31:	be 00 00 00 00 	movl   $0x0,%esi
c0005a36:	83 fb 09       	cmpl   $0x9,%ebx
c0005a39:	76 2b          	jbe    c0005a66 <_printf_putuint+0x8e>
c0005a3b:	be 00 00 00 00 	movl   $0x0,%esi
c0005a40:	89 c8          	movl   %ecx,%eax
c0005a42:	ba 00 00 00 00 	movl   $0x0,%edx
c0005a47:	f7 f3          	divl   %ebx,%eax
c0005a49:	83 c0 30       	addl   $0x30,%eax
c0005a4c:	88 44 34 05    	movb   %al,0x5(%esp,%esi,1)
c0005a50:	46             	incl   %esi
c0005a51:	89 d1          	movl   %edx,%ecx
c0005a53:	ba cd cc cc cc 	movl   $0xcccccccd,%edx
c0005a58:	89 d8          	movl   %ebx,%eax
c0005a5a:	f7 e2          	mull   %edx,%eax
c0005a5c:	89 d3          	movl   %edx,%ebx
c0005a5e:	c1 eb 03       	shrl   $0x3,%ebx
c0005a61:	83 fb 09       	cmpl   $0x9,%ebx
c0005a64:	77 da          	ja     c0005a40 <_printf_putuint+0x68>
c0005a66:	8d 41 30       	leal   0x30(%ecx),%eax
c0005a69:	88 44 34 05    	movb   %al,0x5(%esp,%esi,1)
c0005a6d:	c6 44 34 06 00 	movb   $0x0,0x6(%esp,%esi,1)
c0005a72:	83 ec 0c       	subl   $0xc,%esp
c0005a75:	8d 5c 24 11    	leal   0x11(%esp,1),%ebx
c0005a79:	53             	pushl  %ebx
c0005a7a:	e8 39 03 00 00 	call   c0005db8 <_strlen>
c0005a7f:	83 c4 0c       	addl   $0xc,%esp
c0005a82:	50             	pushl  %eax
c0005a83:	53             	pushl  %ebx
c0005a84:	ff b4 24 1c 01 	pushl  0x11c(%esp,1)
c0005a89:	00 00 
c0005a8b:	e8 25 fc ff ff 	call   c00056b5 <_vfs_write>
c0005a90:	81 c4 14 01 00 	addl   $0x114,%esp
c0005a95:	00 
c0005a96:	5b             	popl   %ebx
c0005a97:	5e             	popl   %esi
c0005a98:	c3             	ret    
c0005a99:	2d 00 56 53 83 	subl   $0x83535600,%eax

c0005a9b <_printf_putint>:
c0005a9b:	56             	pushl  %esi
c0005a9c:	53             	pushl  %ebx
c0005a9d:	83 ec 04       	subl   $0x4,%esp
c0005aa0:	8b 74 24 10    	movl   0x10(%esp,1),%esi
c0005aa4:	8b 5c 24 14    	movl   0x14(%esp,1),%ebx
c0005aa8:	85 db          	testl  %ebx,%ebx
c0005aaa:	78 0f          	js     c0005abb <_printf_putint+0x20>
c0005aac:	83 ec 08       	subl   $0x8,%esp
c0005aaf:	53             	pushl  %ebx
c0005ab0:	56             	pushl  %esi
c0005ab1:	e8 22 ff ff ff 	call   c00059d8 <_printf_putuint>
c0005ab6:	83 c4 10       	addl   $0x10,%esp
c0005ab9:	eb 21          	jmp    c0005adc <_printf_putint+0x41>
c0005abb:	83 ec 04       	subl   $0x4,%esp
c0005abe:	6a 01          	pushl  $0x1
c0005ac0:	68 99 5a 00 c0 	pushl  $0xc0005a99
c0005ac5:	56             	pushl  %esi
c0005ac6:	e8 ea fb ff ff 	call   c00056b5 <_vfs_write>
c0005acb:	83 c4 08       	addl   $0x8,%esp
c0005ace:	89 d8          	movl   %ebx,%eax
c0005ad0:	f7 d8          	negl   %eax
c0005ad2:	50             	pushl  %eax
c0005ad3:	56             	pushl  %esi
c0005ad4:	e8 ff fe ff ff 	call   c00059d8 <_printf_putuint>
c0005ad9:	83 c4 10       	addl   $0x10,%esp
c0005adc:	83 c4 04       	addl   $0x4,%esp
c0005adf:	5b             	popl   %ebx
c0005ae0:	5e             	popl   %esi
c0005ae1:	c3             	ret    
c0005ae2:	30 31          	xorb   %dh,(%ecx)
c0005ae4:	32 33          	xorb   (%ebx),%dh
c0005ae6:	34 35          	xorb   $0x35,%al
c0005ae8:	36 37          	aaa    
c0005aea:	38 39          	cmpb   %bh,(%ecx)
c0005aec:	41             	incl   %ecx
c0005aed:	42             	incl   %edx
c0005aee:	43             	incl   %ebx
c0005aef:	44             	incl   %esp
c0005af0:	45             	incl   %ebp
c0005af1:	46             	incl   %esi
c0005af2:	30 00          	xorb   %al,(%eax)
c0005af4:	78 00          	js     c0005af6 <_printf_puthex>

c0005af6 <_printf_puthex>:
c0005af6:	57             	pushl  %edi
c0005af7:	56             	pushl  %esi
c0005af8:	53             	pushl  %ebx
c0005af9:	8b 7c 24 10    	movl   0x10(%esp,1),%edi
c0005afd:	8b 5c 24 14    	movl   0x14(%esp,1),%ebx
c0005b01:	83 ec 04       	subl   $0x4,%esp
c0005b04:	6a 01          	pushl  $0x1
c0005b06:	68 f2 5a 00 c0 	pushl  $0xc0005af2
c0005b0b:	57             	pushl  %edi
c0005b0c:	e8 a4 fb ff ff 	call   c00056b5 <_vfs_write>
c0005b11:	83 c4 0c       	addl   $0xc,%esp
c0005b14:	6a 01          	pushl  $0x1
c0005b16:	68 f4 5a 00 c0 	pushl  $0xc0005af4
c0005b1b:	57             	pushl  %edi
c0005b1c:	e8 94 fb ff ff 	call   c00056b5 <_vfs_write>
c0005b21:	89 d8          	movl   %ebx,%eax
c0005b23:	c1 e8 1c       	shrl   $0x1c,%eax
c0005b26:	83 c4 10       	addl   $0x10,%esp
c0005b29:	be 00 00 00 10 	movl   $0x10000000,%esi
c0005b2e:	85 c0          	testl  %eax,%eax
c0005b30:	74 04          	je     c0005b36 <_printf_puthex+0x40>
c0005b32:	89 d8          	movl   %ebx,%eax
c0005b34:	eb 24          	jmp    c0005b5a <_printf_puthex+0x64>
c0005b36:	c1 ee 04       	shrl   $0x4,%esi
c0005b39:	89 d8          	movl   %ebx,%eax
c0005b3b:	ba 00 00 00 00 	movl   $0x0,%edx
c0005b40:	f7 f6          	divl   %esi,%eax
c0005b42:	85 c0          	testl  %eax,%eax
c0005b44:	0f 94 c2       	sete   %dl
c0005b47:	83 fe 0f       	cmpl   $0xf,%esi
c0005b4a:	0f 97 c0       	seta   %al
c0005b4d:	84 d0          	testb  %dl,%al
c0005b4f:	75 e5          	jne    c0005b36 <_printf_puthex+0x40>
c0005b51:	89 d8          	movl   %ebx,%eax
c0005b53:	83 fe 0e       	cmpl   $0xe,%esi
c0005b56:	76 29          	jbe    c0005b81 <_printf_puthex+0x8b>
c0005b58:	89 d8          	movl   %ebx,%eax
c0005b5a:	83 ec 04       	subl   $0x4,%esp
c0005b5d:	6a 01          	pushl  $0x1
c0005b5f:	ba 00 00 00 00 	movl   $0x0,%edx
c0005b64:	f7 f6          	divl   %esi,%eax
c0005b66:	89 d3          	movl   %edx,%ebx
c0005b68:	05 e2 5a 00 c0 	addl   $0xc0005ae2,%eax
c0005b6d:	50             	pushl  %eax
c0005b6e:	57             	pushl  %edi
c0005b6f:	e8 41 fb ff ff 	call   c00056b5 <_vfs_write>
c0005b74:	89 d8          	movl   %ebx,%eax
c0005b76:	c1 ee 04       	shrl   $0x4,%esi
c0005b79:	83 c4 10       	addl   $0x10,%esp
c0005b7c:	83 fe 0e       	cmpl   $0xe,%esi
c0005b7f:	77 d9          	ja     c0005b5a <_printf_puthex+0x64>
c0005b81:	83 ec 04       	subl   $0x4,%esp
c0005b84:	6a 01          	pushl  $0x1
c0005b86:	05 e2 5a 00 c0 	addl   $0xc0005ae2,%eax
c0005b8b:	50             	pushl  %eax
c0005b8c:	57             	pushl  %edi
c0005b8d:	e8 23 fb ff ff 	call   c00056b5 <_vfs_write>
c0005b92:	83 c4 10       	addl   $0x10,%esp
c0005b95:	5b             	popl   %ebx
c0005b96:	5e             	popl   %esi
c0005b97:	5f             	popl   %edi
c0005b98:	c3             	ret    

c0005b99 <_printf>:
c0005b99:	55             	pushl  %ebp
c0005b9a:	57             	pushl  %edi
c0005b9b:	56             	pushl  %esi
c0005b9c:	53             	pushl  %ebx
c0005b9d:	83 ec 1c       	subl   $0x1c,%esp
c0005ba0:	8b 74 24 30    	movl   0x30(%esp,1),%esi
c0005ba4:	8b 5c 24 34    	movl   0x34(%esp,1),%ebx
c0005ba8:	8b 6c 24 38    	movl   0x38(%esp,1),%ebp
c0005bac:	85 f6          	testl  %esi,%esi
c0005bae:	0f 85 78 01 00 	jne    c0005d2c <_printf+0x193>
c0005bb3:	00 
c0005bb4:	e9 7d 01 00 00 	jmp    c0005d36 <_printf+0x19d>
c0005bb9:	89 da          	movl   %ebx,%edx
c0005bbb:	bf 00 00 00 00 	movl   $0x0,%edi
c0005bc0:	3c 25          	cmpb   $0x25,%al
c0005bc2:	0f 85 46 01 00 	jne    c0005d0e <_printf+0x175>
c0005bc7:	00 
c0005bc8:	47             	incl   %edi
c0005bc9:	8d 14 3b       	leal   (%ebx,%edi,1),%edx
c0005bcc:	0f be 02       	movsbl (%edx),%eax
c0005bcf:	83 e8 63       	subl   $0x63,%eax
c0005bd2:	83 f8 15       	cmpl   $0x15,%eax
c0005bd5:	0f 87 22 01 00 	ja     c0005cfd <_printf+0x164>
c0005bda:	00 
c0005bdb:	ff 24 85 e4 5b 	jmp    *0xc0005be4(,%eax,4)
c0005be0:	00 c0 
c0005be2:	89 f6          	movl   %esi,%esi
c0005be4:	66 5c          	popw   %sp
c0005be6:	00 c0          	addb   %al,%al
c0005be8:	8d 5c 00 c0    	leal   0xffffffc0(%eax,%eax,1),%ebx
c0005bec:	fd             	std    
c0005bed:	5c             	popl   %esp
c0005bee:	00 c0          	addb   %al,%al
c0005bf0:	fd             	std    
c0005bf1:	5c             	popl   %esp
c0005bf2:	00 c0          	addb   %al,%al
c0005bf4:	fd             	std    
c0005bf5:	5c             	popl   %esp
c0005bf6:	00 c0          	addb   %al,%al
c0005bf8:	fd             	std    
c0005bf9:	5c             	popl   %esp
c0005bfa:	00 c0          	addb   %al,%al
c0005bfc:	a9 5c 00 c0 fd 	testl  $0xfdc0005c,%eax
c0005c01:	5c             	popl   %esp
c0005c02:	00 c0          	addb   %al,%al
c0005c04:	fd             	std    
c0005c05:	5c             	popl   %esp
c0005c06:	00 c0          	addb   %al,%al
c0005c08:	fd             	std    
c0005c09:	5c             	popl   %esp
c0005c0a:	00 c0          	addb   %al,%al
c0005c0c:	fd             	std    
c0005c0d:	5c             	popl   %esp
c0005c0e:	00 c0          	addb   %al,%al
c0005c10:	fd             	std    
c0005c11:	5c             	popl   %esp
c0005c12:	00 c0          	addb   %al,%al
c0005c14:	fd             	std    
c0005c15:	5c             	popl   %esp
c0005c16:	00 c0          	addb   %al,%al
c0005c18:	fd             	std    
c0005c19:	5c             	popl   %esp
c0005c1a:	00 c0          	addb   %al,%al
c0005c1c:	fd             	std    
c0005c1d:	5c             	popl   %esp
c0005c1e:	00 c0          	addb   %al,%al
c0005c20:	fd             	std    
c0005c21:	5c             	popl   %esp
c0005c22:	00 c0          	addb   %al,%al
c0005c24:	3c 5c          	cmpb   $0x5c,%al
c0005c26:	00 c0          	addb   %al,%al
c0005c28:	fd             	std    
c0005c29:	5c             	popl   %esp
c0005c2a:	00 c0          	addb   %al,%al
c0005c2c:	c5 5c 00 c0    	ldsl   0xffffffc0(%eax,%eax,1),%ebx
c0005c30:	fd             	std    
c0005c31:	5c             	popl   %esp
c0005c32:	00 c0          	addb   %al,%al
c0005c34:	fd             	std    
c0005c35:	5c             	popl   %esp
c0005c36:	00 c0          	addb   %al,%al
c0005c38:	e1 5c          	loope  c0005c96 <_printf+0xfd>
c0005c3a:	00 c0          	addb   %al,%al
c0005c3c:	8d 45 04       	leal   0x4(%ebp),%eax
c0005c3f:	89 44 24 18    	movl   %eax,0x18(%esp,1)
c0005c43:	8b 6d 00       	movl   0x0(%ebp),%ebp
c0005c46:	83 ec 0c       	subl   $0xc,%esp
c0005c49:	55             	pushl  %ebp
c0005c4a:	e8 69 01 00 00 	call   c0005db8 <_strlen>
c0005c4f:	83 c4 0c       	addl   $0xc,%esp
c0005c52:	50             	pushl  %eax
c0005c53:	55             	pushl  %ebp
c0005c54:	56             	pushl  %esi
c0005c55:	e8 5b fa ff ff 	call   c00056b5 <_vfs_write>
c0005c5a:	8b 6c 24 28    	movl   0x28(%esp,1),%ebp
c0005c5e:	83 c4 10       	addl   $0x10,%esp
c0005c61:	e9 b7 00 00 00 	jmp    c0005d1d <_printf+0x184>
c0005c66:	8d 45 04       	leal   0x4(%ebp),%eax
c0005c69:	89 44 24 14    	movl   %eax,0x14(%esp,1)
c0005c6d:	83 ec 04       	subl   $0x4,%esp
c0005c70:	6a 01          	pushl  $0x1
c0005c72:	b8 00 00 00 00 	movl   $0x0,%eax
c0005c77:	8a 45 00       	movb   0x0(%ebp),%al
c0005c7a:	50             	pushl  %eax
c0005c7b:	56             	pushl  %esi
c0005c7c:	e8 34 fa ff ff 	call   c00056b5 <_vfs_write>
c0005c81:	8b 6c 24 24    	movl   0x24(%esp,1),%ebp
c0005c85:	83 c4 10       	addl   $0x10,%esp
c0005c88:	e9 90 00 00 00 	jmp    c0005d1d <_printf+0x184>
c0005c8d:	8d 45 04       	leal   0x4(%ebp),%eax
c0005c90:	89 44 24 10    	movl   %eax,0x10(%esp,1)
c0005c94:	83 ec 08       	subl   $0x8,%esp
c0005c97:	ff 75 00       	pushl  0x0(%ebp)
c0005c9a:	56             	pushl  %esi
c0005c9b:	e8 fb fd ff ff 	call   c0005a9b <_printf_putint>
c0005ca0:	8b 6c 24 20    	movl   0x20(%esp,1),%ebp
c0005ca4:	83 c4 10       	addl   $0x10,%esp
c0005ca7:	eb 74          	jmp    c0005d1d <_printf+0x184>
c0005ca9:	8d 45 04       	leal   0x4(%ebp),%eax
c0005cac:	89 44 24 0c    	movl   %eax,0xc(%esp,1)
c0005cb0:	83 ec 08       	subl   $0x8,%esp
c0005cb3:	ff 75 00       	pushl  0x0(%ebp)
c0005cb6:	56             	pushl  %esi
c0005cb7:	e8 df fd ff ff 	call   c0005a9b <_printf_putint>
c0005cbc:	8b 6c 24 1c    	movl   0x1c(%esp,1),%ebp
c0005cc0:	83 c4 10       	addl   $0x10,%esp
c0005cc3:	eb 58          	jmp    c0005d1d <_printf+0x184>
c0005cc5:	8d 45 04       	leal   0x4(%ebp),%eax
c0005cc8:	89 44 24 08    	movl   %eax,0x8(%esp,1)
c0005ccc:	83 ec 08       	subl   $0x8,%esp
c0005ccf:	ff 75 00       	pushl  0x0(%ebp)
c0005cd2:	56             	pushl  %esi
c0005cd3:	e8 00 fd ff ff 	call   c00059d8 <_printf_putuint>
c0005cd8:	8b 6c 24 18    	movl   0x18(%esp,1),%ebp
c0005cdc:	83 c4 10       	addl   $0x10,%esp
c0005cdf:	eb 3c          	jmp    c0005d1d <_printf+0x184>
c0005ce1:	8d 45 04       	leal   0x4(%ebp),%eax
c0005ce4:	89 44 24 04    	movl   %eax,0x4(%esp,1)
c0005ce8:	83 ec 08       	subl   $0x8,%esp
c0005ceb:	ff 75 00       	pushl  0x0(%ebp)
c0005cee:	56             	pushl  %esi
c0005cef:	e8 02 fe ff ff 	call   c0005af6 <_printf_puthex>
c0005cf4:	8b 6c 24 14    	movl   0x14(%esp,1),%ebp
c0005cf8:	83 c4 10       	addl   $0x10,%esp
c0005cfb:	eb 20          	jmp    c0005d1d <_printf+0x184>
c0005cfd:	83 ec 04       	subl   $0x4,%esp
c0005d00:	6a 01          	pushl  $0x1
c0005d02:	52             	pushl  %edx
c0005d03:	56             	pushl  %esi
c0005d04:	e8 ac f9 ff ff 	call   c00056b5 <_vfs_write>
c0005d09:	83 c4 10       	addl   $0x10,%esp
c0005d0c:	eb 0f          	jmp    c0005d1d <_printf+0x184>
c0005d0e:	83 ec 04       	subl   $0x4,%esp
c0005d11:	6a 01          	pushl  $0x1
c0005d13:	52             	pushl  %edx
c0005d14:	56             	pushl  %esi
c0005d15:	e8 9b f9 ff ff 	call   c00056b5 <_vfs_write>
c0005d1a:	83 c4 10       	addl   $0x10,%esp
c0005d1d:	47             	incl   %edi
c0005d1e:	8d 14 3b       	leal   (%ebx,%edi,1),%edx
c0005d21:	8a 02          	movb   (%edx),%al
c0005d23:	84 c0          	testb  %al,%al
c0005d25:	74 0f          	je     c0005d36 <_printf+0x19d>
c0005d27:	e9 94 fe ff ff 	jmp    c0005bc0 <_printf+0x27>
c0005d2c:	8a 03          	movb   (%ebx),%al
c0005d2e:	84 c0          	testb  %al,%al
c0005d30:	0f 85 83 fe ff 	jne    c0005bb9 <_printf+0x20>
c0005d35:	ff 
c0005d36:	83 c4 1c       	addl   $0x1c,%esp
c0005d39:	5b             	popl   %ebx
c0005d3a:	5e             	popl   %esi
c0005d3b:	5f             	popl   %edi
c0005d3c:	5d             	popl   %ebp
c0005d3d:	c3             	ret    

c0005d3e <_print>:
c0005d3e:	83 ec 10       	subl   $0x10,%esp
c0005d41:	8d 44 24 1c    	leal   0x1c(%esp,1),%eax
c0005d45:	50             	pushl  %eax
c0005d46:	ff 74 24 1c    	pushl  0x1c(%esp,1)
c0005d4a:	ff 74 24 1c    	pushl  0x1c(%esp,1)
c0005d4e:	e8 46 fe ff ff 	call   c0005b99 <_printf>
c0005d53:	83 c4 1c       	addl   $0x1c,%esp
c0005d56:	c3             	ret    

c0005d57 <_get>:
c0005d57:	57             	pushl  %edi
c0005d58:	56             	pushl  %esi
c0005d59:	53             	pushl  %ebx
c0005d5a:	8b 5c 24 10    	movl   0x10(%esp,1),%ebx
c0005d5e:	8b 7c 24 14    	movl   0x14(%esp,1),%edi
c0005d62:	83 ec 04       	subl   $0x4,%esp
c0005d65:	6a 01          	pushl  $0x1
c0005d67:	6a 04          	pushl  $0x4
c0005d69:	53             	pushl  %ebx
c0005d6a:	e8 d8 f9 ff ff 	call   c0005747 <_vfs_control>
c0005d6f:	83 c4 0c       	addl   $0xc,%esp
c0005d72:	6a 0a          	pushl  $0xa
c0005d74:	6a 03          	pushl  $0x3
c0005d76:	53             	pushl  %ebx
c0005d77:	e8 cb f9 ff ff 	call   c0005747 <_vfs_control>
c0005d7c:	83 c4 0c       	addl   $0xc,%esp
c0005d7f:	ff 74 24 1c    	pushl  0x1c(%esp,1)
c0005d83:	57             	pushl  %edi
c0005d84:	53             	pushl  %ebx
c0005d85:	e8 f7 f8 ff ff 	call   c0005681 <_vfs_read>
c0005d8a:	89 c6          	movl   %eax,%esi
c0005d8c:	83 c4 0c       	addl   $0xc,%esp
c0005d8f:	6a 00          	pushl  $0x0
c0005d91:	6a 04          	pushl  $0x4
c0005d93:	53             	pushl  %ebx
c0005d94:	e8 ae f9 ff ff 	call   c0005747 <_vfs_control>
c0005d99:	83 c4 10       	addl   $0x10,%esp
c0005d9c:	83 fe ff       	cmpl   $0xffffffff,%esi
c0005d9f:	74 04          	je     c0005da5 <_get+0x4e>
c0005da1:	c6 04 37 00    	movb   $0x0,(%edi,%esi,1)
c0005da5:	89 f0          	movl   %esi,%eax
c0005da7:	5b             	popl   %ebx
c0005da8:	5e             	popl   %esi
c0005da9:	5f             	popl   %edi
c0005daa:	c3             	ret    
c0005dab:	90             	nop    
c0005dac:	90             	nop    
c0005dad:	90             	nop    
c0005dae:	90             	nop    
c0005daf:	90             	nop    
c0005db0:	90             	nop    
c0005db1:	90             	nop    
c0005db2:	90             	nop    
c0005db3:	90             	nop    
c0005db4:	90             	nop    
c0005db5:	90             	nop    
c0005db6:	90             	nop    
c0005db7:	90             	nop    

c0005db8 <_strlen>:
c0005db8:	8b 54 24 04    	movl   0x4(%esp,1),%edx
c0005dbc:	89 d0          	movl   %edx,%eax
c0005dbe:	80 3a 00       	cmpb   $0x0,(%edx)
c0005dc1:	74 08          	je     c0005dcb <_strlen+0x13>
c0005dc3:	89 d0          	movl   %edx,%eax
c0005dc5:	40             	incl   %eax
c0005dc6:	80 38 00       	cmpb   $0x0,(%eax)
c0005dc9:	75 fa          	jne    c0005dc5 <_strlen+0xd>
c0005dcb:	29 d0          	subl   %edx,%eax
c0005dcd:	c3             	ret    

c0005dce <_strrchr>:
c0005dce:	53             	pushl  %ebx
c0005dcf:	8b 5c 24 08    	movl   0x8(%esp,1),%ebx
c0005dd3:	53             	pushl  %ebx
c0005dd4:	e8 df ff ff ff 	call   c0005db8 <_strlen>
c0005dd9:	8d 04 03       	leal   (%ebx,%eax,1),%eax
c0005ddc:	83 c4 04       	addl   $0x4,%esp
c0005ddf:	8a 54 24 0c    	movb   0xc(%esp,1),%dl
c0005de3:	38 10          	cmpb   %dl,(%eax)
c0005de5:	74 0a          	je     c0005df1 <_strrchr+0x23>
c0005de7:	48             	decl   %eax
c0005de8:	39 c3          	cmpl   %eax,%ebx
c0005dea:	76 f3          	jbe    c0005ddf <_strrchr+0x11>
c0005dec:	b8 00 00 00 00 	movl   $0x0,%eax
c0005df1:	5b             	popl   %ebx
c0005df2:	c3             	ret    

c0005df3 <_strcmp>:
c0005df3:	53             	pushl  %ebx
c0005df4:	8b 4c 24 08    	movl   0x8(%esp,1),%ecx
c0005df8:	8b 54 24 0c    	movl   0xc(%esp,1),%edx
c0005dfc:	8a 01          	movb   (%ecx),%al
c0005dfe:	88 c3          	movb   %al,%bl
c0005e00:	2a 1a          	subb   (%edx),%bl
c0005e02:	42             	incl   %edx
c0005e03:	84 db          	testb  %bl,%bl
c0005e05:	75 05          	jne    c0005e0c <_strcmp+0x19>
c0005e07:	41             	incl   %ecx
c0005e08:	84 c0          	testb  %al,%al
c0005e0a:	75 f0          	jne    c0005dfc <_strcmp+0x9>
c0005e0c:	0f be c3       	movsbl %bl,%eax
c0005e0f:	5b             	popl   %ebx
c0005e10:	c3             	ret    

c0005e11 <_strncmp>:
c0005e11:	57             	pushl  %edi
c0005e12:	56             	pushl  %esi
c0005e13:	53             	pushl  %ebx
c0005e14:	8b 5c 24 10    	movl   0x10(%esp,1),%ebx
c0005e18:	8b 54 24 14    	movl   0x14(%esp,1),%edx
c0005e1c:	8b 7c 24 18    	movl   0x18(%esp,1),%edi
c0005e20:	85 ff          	testl  %edi,%edi
c0005e22:	75 1e          	jne    c0005e42 <_strncmp+0x31>
c0005e24:	eb 18          	jmp    c0005e3e <_strncmp+0x2d>
c0005e26:	8a 0c 1a       	movb   (%edx,%ebx,1),%cl
c0005e29:	88 c8          	movb   %cl,%al
c0005e2b:	2a 04 32       	subb   (%edx,%esi,1),%al
c0005e2e:	84 c0          	testb  %al,%al
c0005e30:	75 29          	jne    c0005e5b <_strncmp+0x4a>
c0005e32:	42             	incl   %edx
c0005e33:	84 c9          	testb  %cl,%cl
c0005e35:	74 07          	je     c0005e3e <_strncmp+0x2d>
c0005e37:	8d 47 ff       	leal   0xffffffff(%edi),%eax
c0005e3a:	39 c2          	cmpl   %eax,%edx
c0005e3c:	75 e8          	jne    c0005e26 <_strncmp+0x15>
c0005e3e:	b0 00          	movb   $0x0,%al
c0005e40:	eb 19          	jmp    c0005e5b <_strncmp+0x4a>
c0005e42:	8a 0b          	movb   (%ebx),%cl
c0005e44:	88 c8          	movb   %cl,%al
c0005e46:	2a 02          	subb   (%edx),%al
c0005e48:	8d 72 01       	leal   0x1(%edx),%esi
c0005e4b:	84 c0          	testb  %al,%al
c0005e4d:	75 0c          	jne    c0005e5b <_strncmp+0x4a>
c0005e4f:	43             	incl   %ebx
c0005e50:	ba 00 00 00 00 	movl   $0x0,%edx
c0005e55:	84 c9          	testb  %cl,%cl
c0005e57:	75 de          	jne    c0005e37 <_strncmp+0x26>
c0005e59:	eb e3          	jmp    c0005e3e <_strncmp+0x2d>
c0005e5b:	0f be c0       	movsbl %al,%eax
c0005e5e:	5b             	popl   %ebx
c0005e5f:	5e             	popl   %esi
c0005e60:	5f             	popl   %edi
c0005e61:	c3             	ret    

c0005e62 <_strcpy>:
c0005e62:	8b 4c 24 08    	movl   0x8(%esp,1),%ecx
c0005e66:	8b 54 24 04    	movl   0x4(%esp,1),%edx
c0005e6a:	8a 01          	movb   (%ecx),%al
c0005e6c:	88 02          	movb   %al,(%edx)
c0005e6e:	42             	incl   %edx
c0005e6f:	41             	incl   %ecx
c0005e70:	84 c0          	testb  %al,%al
c0005e72:	75 f6          	jne    c0005e6a <_strcpy+0x8>
c0005e74:	8b 44 24 04    	movl   0x4(%esp,1),%eax
c0005e78:	c3             	ret    

c0005e79 <_strncpy>:
c0005e79:	57             	pushl  %edi
c0005e7a:	56             	pushl  %esi
c0005e7b:	53             	pushl  %ebx
c0005e7c:	8b 4c 24 10    	movl   0x10(%esp,1),%ecx
c0005e80:	8b 54 24 14    	movl   0x14(%esp,1),%edx
c0005e84:	8b 5c 24 18    	movl   0x18(%esp,1),%ebx
c0005e88:	85 db          	testl  %ebx,%ebx
c0005e8a:	75 19          	jne    c0005ea5 <_strncpy+0x2c>
c0005e8c:	eb 25          	jmp    c0005eb3 <_strncpy+0x3a>
c0005e8e:	ba 00 00 00 00 	movl   $0x0,%edx
c0005e93:	4b             	decl   %ebx
c0005e94:	39 da          	cmpl   %ebx,%edx
c0005e96:	74 1b          	je     c0005eb3 <_strncpy+0x3a>
c0005e98:	8a 04 32       	movb   (%edx,%esi,1),%al
c0005e9b:	88 04 3a       	movb   %al,(%edx,%edi,1)
c0005e9e:	42             	incl   %edx
c0005e9f:	84 c0          	testb  %al,%al
c0005ea1:	74 10          	je     c0005eb3 <_strncpy+0x3a>
c0005ea3:	eb ef          	jmp    c0005e94 <_strncpy+0x1b>
c0005ea5:	8a 02          	movb   (%edx),%al
c0005ea7:	88 01          	movb   %al,(%ecx)
c0005ea9:	8d 79 01       	leal   0x1(%ecx),%edi
c0005eac:	8d 72 01       	leal   0x1(%edx),%esi
c0005eaf:	84 c0          	testb  %al,%al
c0005eb1:	75 db          	jne    c0005e8e <_strncpy+0x15>
c0005eb3:	89 c8          	movl   %ecx,%eax
c0005eb5:	5b             	popl   %ebx
c0005eb6:	5e             	popl   %esi
c0005eb7:	5f             	popl   %edi
c0005eb8:	c3             	ret    

c0005eb9 <_strstr>:
c0005eb9:	57             	pushl  %edi
c0005eba:	56             	pushl  %esi
c0005ebb:	53             	pushl  %ebx
c0005ebc:	8b 74 24 14    	movl   0x14(%esp,1),%esi
c0005ec0:	56             	pushl  %esi
c0005ec1:	e8 f2 fe ff ff 	call   c0005db8 <_strlen>
c0005ec6:	89 c3          	movl   %eax,%ebx
c0005ec8:	83 c4 04       	addl   $0x4,%esp
c0005ecb:	85 c0          	testl  %eax,%eax
c0005ecd:	74 38          	je     c0005f07 <_strstr+0x4e>
c0005ecf:	ff 74 24 10    	pushl  0x10(%esp,1)
c0005ed3:	e8 e0 fe ff ff 	call   c0005db8 <_strlen>
c0005ed8:	89 c7          	movl   %eax,%edi
c0005eda:	83 c4 04       	addl   $0x4,%esp
c0005edd:	39 c3          	cmpl   %eax,%ebx
c0005edf:	7f 1e          	jg     c0005eff <_strstr+0x46>
c0005ee1:	4f             	decl   %edi
c0005ee2:	83 ec 04       	subl   $0x4,%esp
c0005ee5:	53             	pushl  %ebx
c0005ee6:	56             	pushl  %esi
c0005ee7:	ff 74 24 1c    	pushl  0x1c(%esp,1)
c0005eeb:	e8 6a 00 00 00 	call   c0005f5a <_memcmp>
c0005ef0:	83 c4 10       	addl   $0x10,%esp
c0005ef3:	85 c0          	testl  %eax,%eax
c0005ef5:	74 10          	je     c0005f07 <_strstr+0x4e>
c0005ef7:	ff 44 24 10    	incl   0x10(%esp,1)
c0005efb:	39 fb          	cmpl   %edi,%ebx
c0005efd:	7e e2          	jle    c0005ee1 <_strstr+0x28>
c0005eff:	c7 44 24 10 00 	movl   $0x0,0x10(%esp,1)
c0005f04:	00 00 00 
c0005f07:	8b 44 24 10    	movl   0x10(%esp,1),%eax
c0005f0b:	5b             	popl   %ebx
c0005f0c:	5e             	popl   %esi
c0005f0d:	5f             	popl   %edi
c0005f0e:	c3             	ret    

c0005f0f <_memset>:
c0005f0f:	56             	pushl  %esi
c0005f10:	53             	pushl  %ebx
c0005f11:	8b 5c 24 0c    	movl   0xc(%esp,1),%ebx
c0005f15:	8a 44 24 10    	movb   0x10(%esp,1),%al
c0005f19:	8b 4c 24 14    	movl   0x14(%esp,1),%ecx
c0005f1d:	49             	decl   %ecx
c0005f1e:	83 f9 ff       	cmpl   $0xffffffff,%ecx
c0005f21:	74 0d          	je     c0005f30 <_memset+0x21>
c0005f23:	89 da          	movl   %ebx,%edx
c0005f25:	8d 4c 0b 01    	leal   0x1(%ebx,%ecx,1),%ecx
c0005f29:	88 02          	movb   %al,(%edx)
c0005f2b:	42             	incl   %edx
c0005f2c:	39 d1          	cmpl   %edx,%ecx
c0005f2e:	75 f9          	jne    c0005f29 <_memset+0x1a>
c0005f30:	89 d8          	movl   %ebx,%eax
c0005f32:	5b             	popl   %ebx
c0005f33:	5e             	popl   %esi
c0005f34:	c3             	ret    

c0005f35 <_memcpy>:
c0005f35:	53             	pushl  %ebx
c0005f36:	8b 5c 24 08    	movl   0x8(%esp,1),%ebx
c0005f3a:	8b 4c 24 0c    	movl   0xc(%esp,1),%ecx
c0005f3e:	8b 44 24 10    	movl   0x10(%esp,1),%eax
c0005f42:	48             	decl   %eax
c0005f43:	83 f8 ff       	cmpl   $0xffffffff,%eax
c0005f46:	74 10          	je     c0005f58 <_memcpy+0x23>
c0005f48:	89 da          	movl   %ebx,%edx
c0005f4a:	8d 5c 03 01    	leal   0x1(%ebx,%eax,1),%ebx
c0005f4e:	8a 01          	movb   (%ecx),%al
c0005f50:	88 02          	movb   %al,(%edx)
c0005f52:	42             	incl   %edx
c0005f53:	41             	incl   %ecx
c0005f54:	39 da          	cmpl   %ebx,%edx
c0005f56:	75 f6          	jne    c0005f4e <_memcpy+0x19>
c0005f58:	5b             	popl   %ebx
c0005f59:	c3             	ret    

c0005f5a <_memcmp>:
c0005f5a:	57             	pushl  %edi
c0005f5b:	56             	pushl  %esi
c0005f5c:	53             	pushl  %ebx
c0005f5d:	8b 7c 24 18    	movl   0x18(%esp,1),%edi
c0005f61:	8b 74 24 10    	movl   0x10(%esp,1),%esi
c0005f65:	8b 5c 24 14    	movl   0x14(%esp,1),%ebx
c0005f69:	b1 00          	movb   $0x0,%cl
c0005f6b:	85 ff          	testl  %edi,%edi
c0005f6d:	7e 29          	jle    c0005f98 <_memcmp+0x3e>
c0005f6f:	eb 18          	jmp    c0005f89 <_memcmp+0x2f>
c0005f71:	8a 44 16 01    	movb   0x1(%esi,%edx,1),%al
c0005f75:	88 c1          	movb   %al,%cl
c0005f77:	2a 4c 13 01    	subb   0x1(%ebx,%edx,1),%cl
c0005f7b:	42             	incl   %edx
c0005f7c:	84 c9          	testb  %cl,%cl
c0005f7e:	75 18          	jne    c0005f98 <_memcmp+0x3e>
c0005f80:	8d 47 ff       	leal   0xffffffff(%edi),%eax
c0005f83:	39 c2          	cmpl   %eax,%edx
c0005f85:	75 ea          	jne    c0005f71 <_memcmp+0x17>
c0005f87:	eb 0f          	jmp    c0005f98 <_memcmp+0x3e>
c0005f89:	8a 06          	movb   (%esi),%al
c0005f8b:	88 c1          	movb   %al,%cl
c0005f8d:	2a 0b          	subb   (%ebx),%cl
c0005f8f:	ba 00 00 00 00 	movl   $0x0,%edx
c0005f94:	84 c9          	testb  %cl,%cl
c0005f96:	74 e8          	je     c0005f80 <_memcmp+0x26>
c0005f98:	0f be c1       	movsbl %cl,%eax
c0005f9b:	5b             	popl   %ebx
c0005f9c:	5e             	popl   %esi
c0005f9d:	5f             	popl   %edi
c0005f9e:	c3             	ret    
c0005f9f:	90             	nop    
c0005fa0:	90             	nop    
c0005fa1:	90             	nop    
c0005fa2:	90             	nop    
c0005fa3:	90             	nop    
c0005fa4:	90             	nop    
c0005fa5:	90             	nop    
c0005fa6:	90             	nop    
c0005fa7:	90             	nop    
	...
