00000000  55                push ebp
00000001  89E5              mov ebp,esp
00000003  83EC08            sub esp,byte +0x8
00000006  83E4F0            and esp,byte -0x10
00000009  83EC18            sub esp,byte +0x18
0000000C  6A00              push byte +0x0
0000000E  6A00              push byte +0x0
00000010  E824050000        call 0x539
00000015  E833160000        call 0x164d
0000001A  83C410            add esp,byte +0x10
0000001D  C9                leave
0000001E  C3                ret
0000001F  55                push ebp
00000020  89E5              mov ebp,esp
00000022  83EC0C            sub esp,byte +0xc
00000025  8B4508            mov eax,[ebp+0x8]
00000028  8845FC            mov [ebp-0x4],al
0000002B  6A01              push byte +0x1
0000002D  8D45FC            lea eax,[ebp-0x4]
00000030  50                push eax
00000031  6A00              push byte +0x0
00000033  E891140000        call 0x14c9
00000038  83C410            add esp,byte +0x10
0000003B  C9                leave
0000003C  C3                ret
0000003D  61                popa
0000003E  7267              jc 0xa7
00000040  765B              jna 0x9d
00000042  25645D3D22        and eax,0x223d5d64
00000047  2573220A00        and eax,0xa2273
0000004C  55                push ebp
0000004D  89E5              mov ebp,esp
0000004F  57                push edi
00000050  56                push esi
00000051  53                push ebx
00000052  83EC0C            sub esp,byte +0xc
00000055  8B7508            mov esi,[ebp+0x8]
00000058  8B7D0C            mov edi,[ebp+0xc]
0000005B  85F6              test esi,esi
0000005D  7E1E              jng 0x7d
0000005F  BB00000000        mov ebx,0x0
00000064  83EC04            sub esp,byte +0x4
00000067  FF349F            push dword [edi+ebx*4]
0000006A  53                push ebx
0000006B  683D000010        push dword 0x1000003d
00000070  E85C190000        call 0x19d1
00000075  43                inc ebx
00000076  83C410            add esp,byte +0x10
00000079  39DE              cmp esi,ebx
0000007B  75E7              jnz 0x64
0000007D  8D65F4            lea esp,[ebp-0xc]
00000080  5B                pop ebx
00000081  5E                pop esi
00000082  5F                pop edi
00000083  5D                pop ebp
00000084  C3                ret
00000085  7175              jno 0xfc
00000087  69743A2071756974  imul esi,[edx+edi+0x20],dword 0x74697571
0000008F  7469              jz 0xfa
00000091  6E                outsb
00000092  672E2E2E0A00      or al,[cs:bx+si]
00000098  55                push ebp
00000099  89E5              mov ebp,esp
0000009B  83EC14            sub esp,byte +0x14
0000009E  6885000010        push dword 0x10000085
000000A3  E829190000        call 0x19d1
000000A8  C705501E00100100  mov dword [0x10001e50],0x1
         -0000
000000B2  83C410            add esp,byte +0x10
000000B5  C9                leave
000000B6  C3                ret
000000B7  55                push ebp
000000B8  89E5              mov ebp,esp
000000BA  83EC10            sub esp,byte +0x10
000000BD  FF750C            push dword [ebp+0xc]
000000C0  FF7508            push dword [ebp+0x8]
000000C3  E884FFFFFF        call 0x4c
000000C8  83C410            add esp,byte +0x10
000000CB  C9                leave
000000CC  C3                ret
000000CD  55                push ebp
000000CE  89E5              mov ebp,esp
000000D0  83EC10            sub esp,byte +0x10
000000D3  FF750C            push dword [ebp+0xc]
000000D6  FF7508            push dword [ebp+0x8]
000000D9  E86EFFFFFF        call 0x4c
000000DE  83C410            add esp,byte +0x10
000000E1  C9                leave
000000E2  C3                ret
000000E3  55                push ebp
000000E4  89E5              mov ebp,esp
000000E6  83EC10            sub esp,byte +0x10
000000E9  FF750C            push dword [ebp+0xc]
000000EC  FF7508            push dword [ebp+0x8]
000000EF  E858FFFFFF        call 0x4c
000000F4  83C410            add esp,byte +0x10
000000F7  C9                leave
000000F8  C3                ret
000000F9  55                push ebp
000000FA  89E5              mov ebp,esp
000000FC  83EC10            sub esp,byte +0x10
000000FF  FF750C            push dword [ebp+0xc]
00000102  FF7508            push dword [ebp+0x8]
00000105  E842FFFFFF        call 0x4c
0000010A  83C410            add esp,byte +0x10
0000010D  C9                leave
0000010E  C3                ret
0000010F  55                push ebp
00000110  89E5              mov ebp,esp
00000112  83EC10            sub esp,byte +0x10
00000115  FF750C            push dword [ebp+0xc]
00000118  FF7508            push dword [ebp+0x8]
0000011B  E82CFFFFFF        call 0x4c
00000120  83C410            add esp,byte +0x10
00000123  C9                leave
00000124  C3                ret
00000125  55                push ebp
00000126  89E5              mov ebp,esp
00000128  83EC10            sub esp,byte +0x10
0000012B  FF750C            push dword [ebp+0xc]
0000012E  FF7508            push dword [ebp+0x8]
00000131  E816FFFFFF        call 0x4c
00000136  83C410            add esp,byte +0x10
00000139  C9                leave
0000013A  C3                ret
0000013B  55                push ebp
0000013C  89E5              mov ebp,esp
0000013E  83EC10            sub esp,byte +0x10
00000141  FF750C            push dword [ebp+0xc]
00000144  FF7508            push dword [ebp+0x8]
00000147  E800FFFFFF        call 0x4c
0000014C  83C410            add esp,byte +0x10
0000014F  C9                leave
00000150  C3                ret
00000151  55                push ebp
00000152  89E5              mov ebp,esp
00000154  83EC10            sub esp,byte +0x10
00000157  FF750C            push dword [ebp+0xc]
0000015A  FF7508            push dword [ebp+0x8]
0000015D  E8EAFEFFFF        call 0x4c
00000162  83C410            add esp,byte +0x10
00000165  C9                leave
00000166  C3                ret
00000167  90                nop
00000168  7370              jnc 0x1da
0000016A  61                popa
0000016B  776E              ja 0x1db
0000016D  3A20              cmp ah,[eax]
0000016F  796F              jns 0x1e0
00000171  7520              jnz 0x193
00000173  6D                insd
00000174  7573              jnz 0x1e9
00000176  7420              jz 0x198
00000178  656E              gs outsb
0000017A  7465              jz 0x1e1
0000017C  7220              jc 0x19e
0000017E  61                popa
0000017F  6E                outsb
00000180  206578            and [ebp+0x78],ah
00000183  65637574          arpl [gs:ebp+0x74],si
00000187  61                popa
00000188  626C6520          bound ebp,[ebp+0x20]
0000018C  66696C656E616D    imul bp,[ebp+0x6e],word 0x6d61
00000193  6520746F20        and [gs:edi+ebp*2+0x20],dh
00000198  7370              jnc 0x20a
0000019A  61                popa
0000019B  776E              ja 0x20b
0000019D  2E0A00            or al,[cs:eax]
000001A0  26005589          add [es:ebp-0x77],dl
000001A4  E583              in eax,0x83
000001A6  EC                in al,dx
000001A7  088B550885D2      or [ebx+0xd2850855],cl
000001AD  7F12              jg 0x1c1
000001AF  83EC0C            sub esp,byte +0xc
000001B2  6868010010        push dword 0x10000168
000001B7  E815180000        call 0x19d1
000001BC  83C410            add esp,byte +0x10
000001BF  EB17              jmp short 0x1d8
000001C1  83EC08            sub esp,byte +0x8
000001C4  68A0010010        push dword 0x100001a0
000001C9  8B450C            mov eax,[ebp+0xc]
000001CC  FF7490FC          push dword [eax+edx*4-0x4]
000001D0  E8BD180000        call 0x1a92
000001D5  83C410            add esp,byte +0x10
000001D8  C9                leave
000001D9  C3                ret
000001DA  89F6              mov esi,esi
000001DC  6B696C6C          imul ebp,[ecx+0x6c],byte +0x6c
000001E0  3A20              cmp ah,[eax]
000001E2  796F              jns 0x253
000001E4  7520              jnz 0x206
000001E6  6D                insd
000001E7  7573              jnz 0x25c
000001E9  7420              jz 0x20b
000001EB  656E              gs outsb
000001ED  7465              jz 0x254
000001EF  7220              jc 0x211
000001F1  61                popa
000001F2  207072            and [eax+0x72],dh
000001F5  6F                outsd
000001F6  636573            arpl [ebp+0x73],sp
000001F9  7320              jnc 0x21b
000001FB  696420746F206B69  imul esp,[eax+0x74],dword 0x696b206f
00000203  6C                insb
00000204  6C                insb
00000205  2E0A00            or al,[cs:eax]
00000208  6B696C6C          imul ebp,[ecx+0x6c],byte +0x6c
0000020C  3A20              cmp ah,[eax]
0000020E  61                popa
0000020F  6D                insd
00000210  6F                outsd
00000211  735F              jnc 0x272
00000213  6B696C6C          imul ebp,[ecx+0x6c],byte +0x6c
00000217  2820              sub [eax],ah
00000219  256420290A        and eax,0xa292064
0000021E  005589            add [ebp-0x77],dl
00000221  E583              in eax,0x83
00000223  EC                in al,dx
00000224  08837D08007F      or [ebx+0x7f00087d],al
0000022A  1283EC0C68DC      adc al,[ebx+0xdc680cec]
00000230  0100              add [eax],eax
00000232  10E8              adc al,ch
00000234  99                cdq
00000235  17                pop ss
00000236  0000              add [eax],al
00000238  83C410            add esp,byte +0x10
0000023B  EB12              jmp short 0x24f
0000023D  83EC08            sub esp,byte +0x8
00000240  6A0D              push byte +0xd
00000242  6808020010        push dword 0x10000208
00000247  E885170000        call 0x19d1
0000024C  83C410            add esp,byte +0x10
0000024F  C9                leave
00000250  C3                ret
00000251  7175              jno 0x2c8
00000253  6974006578697420  imul esi,[eax+eax+0x65],dword 0x20746978
0000025B  7468              jz 0x2c5
0000025D  65207368          and [gs:ebx+0x68],dh
00000261  656C              gs insb
00000263  6C                insb
00000264  006372            add [ebx+0x72],ah
00000267  6561              gs popa
00000269  7465              jz 0x2d0
0000026B  006372            add [ebx+0x72],ah
0000026E  6561              gs popa
00000270  7465              jz 0x2d7
00000272  206120            and [ecx+0x20],ah
00000275  66696C65005B66    imul bp,[ebp+0x0],word 0x665b
0000027C  696C655D0064656C  imul ebp,[ebp+0x5d],dword 0x6c656400
00000284  657465            gs jz 0x2ec
00000287  0064656C          add [ebp+0x6c],ah
0000028B  657465            gs jz 0x2f3
0000028E  206120            and [ecx+0x20],ah
00000291  66696C65007265    imul bp,[ebp+0x0],word 0x6572
00000298  6E                outsb
00000299  61                popa
0000029A  6D                insd
0000029B  65007265          add [gs:edx+0x65],dh
0000029F  6E                outsb
000002A0  61                popa
000002A1  6D                insd
000002A2  65206120          and [gs:ecx+0x20],ah
000002A6  66696C6500905B    imul bp,[ebp+0x0],word 0x5b90
000002AD  736F              jnc 0x31e
000002AF  7572              jnz 0x323
000002B1  636520            arpl [ebp+0x20],sp
000002B4  66696C655D205B    imul bp,[ebp+0x5d],word 0x5b20
000002BB  64657374          gs jnc 0x333
000002BF  696E6174696F6E    imul ebp,[esi+0x61],dword 0x6e6f6974
000002C6  206669            and [esi+0x69],ah
000002C9  6C                insb
000002CA  655D              gs pop ebp
000002CC  00636F            add [ebx+0x6f],ah
000002CF  7079              jo 0x34a
000002D1  00636F            add [ebx+0x6f],ah
000002D4  7079              jo 0x34f
000002D6  206120            and [ecx+0x20],ah
000002D9  66696C65006C69    imul bp,[ebp+0x0],word 0x696c
000002E0  7374              jnc 0x356
000002E2  006C6973          add [ecx+ebp*2+0x73],ch
000002E6  7420              jz 0x308
000002E8  6469726563746F72  imul esi,[fs:edx+0x65],dword 0x726f7463
000002F0  7920              jns 0x312
000002F2  636F6E            arpl [edi+0x6e],bp
000002F5  7465              jz 0x35c
000002F7  6E                outsb
000002F8  7473              jz 0x36d
000002FA  003C64            add [esp],bh
000002FD  69726563746F72    imul esi,[edx+0x65],dword 0x726f7463
00000304  793E              jns 0x344
00000306  006364            add [ebx+0x64],ah
00000309  006368            add [ebx+0x68],ah
0000030C  61                popa
0000030D  6E                outsb
0000030E  676520776F        and [gs:bx+0x6f],dh
00000313  726B              jc 0x380
00000315  696E6720646972    imul ebp,[esi+0x67],dword 0x72696420
0000031C  6563746F72        arpl [gs:edi+ebp*2+0x72],si
00000321  7900              jns 0x323
00000323  5B                pop ebx
00000324  6469726563746F72  imul esi,[fs:edx+0x65],dword 0x726f7463
0000032C  795D              jns 0x38b
0000032E  006D6F            add [ebp+0x6f],ch
00000331  756E              jnz 0x3a1
00000333  7400              jz 0x335
00000335  6D                insd
00000336  6F                outsd
00000337  756E              jnz 0x3a7
00000339  7420              jz 0x35b
0000033B  61                popa
0000033C  20766F            and [esi+0x6f],dh
0000033F  6C                insb
00000340  756D              jnz 0x3af
00000342  65005B64          add [gs:ebx+0x64],bl
00000346  657669            gs jna 0x3b2
00000349  63655D            arpl [ebp+0x5d],sp
0000034C  205B6D            and [ebx+0x6d],bl
0000034F  6F                outsd
00000350  756E              jnz 0x3c0
00000352  7470              jz 0x3c4
00000354  6F                outsd
00000355  696E745D205B66    imul ebp,[esi+0x74],dword 0x665b205d
0000035C  696C652073797374  imul ebp,[ebp+0x20],dword 0x74737973
00000364  656D              gs insd
00000366  5D                pop ebp
00000367  00756E            add [ebp+0x6e],dh
0000036A  6D                insd
0000036B  6F                outsd
0000036C  756E              jnz 0x3dc
0000036E  7400              jz 0x370
00000370  756E              jnz 0x3e0
00000372  6D                insd
00000373  6F                outsd
00000374  756E              jnz 0x3e4
00000376  7420              jz 0x398
00000378  61                popa
00000379  20766F            and [esi+0x6f],dh
0000037C  6C                insb
0000037D  756D              jnz 0x3ec
0000037F  65005B6D          add [gs:ebx+0x6d],bl
00000383  6F                outsd
00000384  756E              jnz 0x3f4
00000386  7470              jz 0x3f8
00000388  6F                outsd
00000389  696E745D007370    imul ebp,[esi+0x74],dword 0x7073005d
00000390  61                popa
00000391  776E              ja 0x401
00000393  007370            add [ebx+0x70],dh
00000396  61                popa
00000397  776E              ja 0x407
00000399  206120            and [ecx+0x20],ah
0000039C  7072              jo 0x410
0000039E  6F                outsd
0000039F  636573            arpl [ebp+0x73],sp
000003A2  7300              jnc 0x3a4
000003A4  5B                pop ebx
000003A5  657865            gs js 0x40d
000003A8  637574            arpl [ebp+0x74],si
000003AB  61                popa
000003AC  626C655D          bound ebp,[ebp+0x5d]
000003B0  006B69            add [ebx+0x69],ch
000003B3  6C                insb
000003B4  6C                insb
000003B5  006B69            add [ebx+0x69],ch
000003B8  6C                insb
000003B9  6C                insb
000003BA  206120            and [ecx+0x20],ah
000003BD  7072              jo 0x431
000003BF  6F                outsd
000003C0  636573            arpl [ebp+0x73],sp
000003C3  7300              jnc 0x3c5
000003C5  5B                pop ebx
000003C6  7072              jo 0x43a
000003C8  6F                outsd
000003C9  636573            arpl [ebp+0x73],sp
000003CC  7320              jnc 0x3ee
000003CE  69645D005589E583  imul esp,[ebp+ebx*2+0x0],dword 0x83e58955
000003D6  EC                in al,dx
000003D7  08E8              or al,ch
000003D9  7012              jo 0x3ed
000003DB  0000              add [eax],al
000003DD  C9                leave
000003DE  C3                ret
000003DF  2D68005368        sub eax,0x68530068
000003E4  656C              gs insb
000003E6  6C                insb
000003E7  205573            and [ebp+0x73],dl
000003EA  61                popa
000003EB  67653A0A          cmp cl,[gs:bp+si]
000003EF  002D76005368      add [0x68530076],ch
000003F5  656C              gs insb
000003F7  6C                insb
000003F8  205665            and [esi+0x65],dl
000003FB  7273              jc 0x470
000003FD  696F6E20312E30    imul ebp,[edi+0x6e],dword 0x302e3120
00000404  0A00              or al,[eax]
00000406  55                push ebp
00000407  89E5              mov ebp,esp
00000409  57                push edi
0000040A  56                push esi
0000040B  53                push ebx
0000040C  83EC0C            sub esp,byte +0xc
0000040F  8B7D08            mov edi,[ebp+0x8]
00000412  85FF              test edi,edi
00000414  7E68              jng 0x47e
00000416  BE00000000        mov esi,0x0
0000041B  8B450C            mov eax,[ebp+0xc]
0000041E  8D1CB0            lea ebx,[eax+esi*4]
00000421  83EC08            sub esp,byte +0x8
00000424  68DF030010        push dword 0x100003df
00000429  FF33              push dword [ebx]
0000042B  E862160000        call 0x1a92
00000430  83C410            add esp,byte +0x10
00000433  85C0              test eax,eax
00000435  7517              jnz 0x44e
00000437  83EC0C            sub esp,byte +0xc
0000043A  68E2030010        push dword 0x100003e2
0000043F  E88D150000        call 0x19d1
00000444  E889FFFFFF        call 0x3d2
00000449  83C410            add esp,byte +0x10
0000044C  EB2B              jmp short 0x479
0000044E  83EC08            sub esp,byte +0x8
00000451  68F0030010        push dword 0x100003f0
00000456  FF33              push dword [ebx]
00000458  E835160000        call 0x1a92
0000045D  83C410            add esp,byte +0x10
00000460  85C0              test eax,eax
00000462  7515              jnz 0x479
00000464  83EC0C            sub esp,byte +0xc
00000467  68F3030010        push dword 0x100003f3
0000046C  E860150000        call 0x19d1
00000471  E85CFFFFFF        call 0x3d2
00000476  83C410            add esp,byte +0x10
00000479  46                inc esi
0000047A  39F7              cmp edi,esi
0000047C  759D              jnz 0x41b
0000047E  8D65F4            lea esp,[ebp-0xc]
00000481  5B                pop ebx
00000482  5E                pop esi
00000483  5F                pop edi
00000484  5D                pop ebp
00000485  C3                ret
00000486  55                push ebp
00000487  89E5              mov ebp,esp
00000489  53                push ebx
0000048A  83EC10            sub esp,byte +0x10
0000048D  8B5D08            mov ebx,[ebp+0x8]
00000490  68501C0010        push dword 0x10001c50
00000495  E88E0E0000        call 0x1328
0000049A  C70424701C0010    mov dword [esp],0x10001c70
000004A1  E8820E0000        call 0x1328
000004A6  C70424901C0010    mov dword [esp],0x10001c90
000004AD  E8760E0000        call 0x1328
000004B2  C70424B01C0010    mov dword [esp],0x10001cb0
000004B9  E86A0E0000        call 0x1328
000004BE  C70424D01C0010    mov dword [esp],0x10001cd0
000004C5  E85E0E0000        call 0x1328
000004CA  C70424F01C0010    mov dword [esp],0x10001cf0
000004D1  E8520E0000        call 0x1328
000004D6  C70424101D0010    mov dword [esp],0x10001d10
000004DD  E8460E0000        call 0x1328
000004E2  C70424301D0010    mov dword [esp],0x10001d30
000004E9  E83A0E0000        call 0x1328
000004EE  C70424501D0010    mov dword [esp],0x10001d50
000004F5  E82E0E0000        call 0x1328
000004FA  C70424701D0010    mov dword [esp],0x10001d70
00000501  E8220E0000        call 0x1328
00000506  C70424901D0010    mov dword [esp],0x10001d90
0000050D  E8160E0000        call 0x1328
00000512  83C410            add esp,byte +0x10
00000515  85DB              test ebx,ebx
00000517  7E14              jng 0x52d
00000519  83FB01            cmp ebx,byte +0x1
0000051C  7E0F              jng 0x52d
0000051E  83EC08            sub esp,byte +0x8
00000521  FF750C            push dword [ebp+0xc]
00000524  53                push ebx
00000525  E8DCFEFFFF        call 0x406
0000052A  83C410            add esp,byte +0x10
0000052D  8B5DFC            mov ebx,[ebp-0x4]
00000530  C9                leave
00000531  C3                ret
00000532  41                inc ecx
00000533  4D                dec ebp
00000534  4F                dec edi
00000535  53                push ebx
00000536  3A3E              cmp bh,[esi]
00000538  005589            add [ebp-0x77],dl
0000053B  E556              in eax,0x56
0000053D  53                push ebx
0000053E  81EC08010000      sub esp,0x108
00000544  FF750C            push dword [ebp+0xc]
00000547  FF7508            push dword [ebp+0x8]
0000054A  E837FFFFFF        call 0x486
0000054F  C7042432050010    mov dword [esp],0x10000532
00000556  E8130E0000        call 0x136e
0000055B  83C410            add esp,byte +0x10
0000055E  8DB5F8FEFFFF      lea esi,[ebp+0xfffffef8]
00000564  EB36              jmp short 0x59c
00000566  83EC08            sub esp,byte +0x8
00000569  6800010000        push dword 0x100
0000056E  89F3              mov ebx,esi
00000570  56                push esi
00000571  E874140000        call 0x19ea
00000576  8A85F8FEFFFF      mov al,[ebp+0xfffffef8]
0000057C  83C410            add esp,byte +0x10
0000057F  84C0              test al,al
00000581  7419              jz 0x59c
00000583  83EC0C            sub esp,byte +0xc
00000586  25FF000000        and eax,0xff
0000058B  50                push eax
0000058C  E87E0D0000        call 0x130f
00000591  8A4301            mov al,[ebx+0x1]
00000594  43                inc ebx
00000595  83C410            add esp,byte +0x10
00000598  84C0              test al,al
0000059A  75E7              jnz 0x583
0000059C  A1501E0010        mov eax,[0x10001e50]
000005A1  85C0              test eax,eax
000005A3  74C1              jz 0x566
000005A5  E828FEFFFF        call 0x3d2
000005AA  8D65F8            lea esp,[ebp-0x8]
000005AD  5B                pop ebx
000005AE  5E                pop esi
000005AF  5D                pop ebp
000005B0  C3                ret
000005B1  90                nop
000005B2  90                nop
000005B3  90                nop
000005B4  90                nop
000005B5  90                nop
000005B6  90                nop
000005B7  90                nop
000005B8  90                nop
000005B9  90                nop
000005BA  90                nop
000005BB  90                nop
000005BC  90                nop
000005BD  90                nop
000005BE  90                nop
000005BF  90                nop
000005C0  68656C7000        push dword 0x706c65
000005C5  646973706C617920  imul esi,[fs:ebx+0x70],dword 0x2079616c
000005CD  68656C7000        push dword 0x706c65
000005D2  3C63              cmp al,0x63
000005D4  723E              jc 0x614
000005D6  005589            add [ebp-0x77],dl
000005D9  E58B              in eax,0x8b
000005DB  55                push ebp
000005DC  08B800000000      or [eax+0x0],bh
000005E2  803A00            cmp byte [edx],0x0
000005E5  740C              jz 0x5f3
000005E7  B800000000        mov eax,0x0
000005EC  40                inc eax
000005ED  803C0200          cmp byte [edx+eax],0x0
000005F1  75F9              jnz 0x5ec
000005F3  5D                pop ebp
000005F4  C3                ret
000005F5  55                push ebp
000005F6  89E5              mov ebp,esp
000005F8  53                push ebx
000005F9  83EC04            sub esp,byte +0x4
000005FC  8B5508            mov edx,[ebp+0x8]
000005FF  8A02              mov al,[edx]
00000601  84C0              test al,al
00000603  741B              jz 0x620
00000605  89D3              mov ebx,edx
00000607  83EC0C            sub esp,byte +0xc
0000060A  25FF000000        and eax,0xff
0000060F  50                push eax
00000610  E80AFAFFFF        call 0x1f
00000615  8A4301            mov al,[ebx+0x1]
00000618  43                inc ebx
00000619  83C410            add esp,byte +0x10
0000061C  84C0              test al,al
0000061E  75E7              jnz 0x607
00000620  8B5DFC            mov ebx,[ebp-0x4]
00000623  C9                leave
00000624  C3                ret
00000625  8D7600            lea esi,[esi+0x0]
00000628  3F                aas
00000629  2020              and [eax],ah
0000062B  2020              and [eax],ah
0000062D  2020              and [eax],ah
0000062F  2020              and [eax],ah
00000631  2020              and [eax],ah
00000633  2020              and [eax],ah
00000635  646973706C617920  imul esi,[fs:ebx+0x70],dword 0x2079616c
0000063D  68656C7020        push dword 0x20706c65
00000642  6F                outsd
00000643  6E                outsb
00000644  206769            and [edi+0x69],ah
00000647  7665              jna 0x6ae
00000649  6E                outsb
0000064A  206F72            and [edi+0x72],ch
0000064D  206176            and [ecx+0x76],ah
00000650  61                popa
00000651  696C61626C652063  imul ebp,[ecx+0x62],dword 0x6320656c
00000659  6F                outsd
0000065A  6D                insd
0000065B  6D                insd
0000065C  61                popa
0000065D  6E                outsb
0000065E  64730A            fs jnc 0x66b
00000661  003C54            add [esp+edx*2],bh
00000664  41                inc ecx
00000665  42                inc edx
00000666  3E2020            and [ds:eax],ah
00000669  2020              and [eax],ah
0000066B  2020              and [eax],ah
0000066D  2020              and [eax],ah
0000066F  61                popa
00000670  7574              jnz 0x6e6
00000672  6F                outsd
00000673  2D636F6D70        sub eax,0x706d6f63
00000678  6C                insb
00000679  657469            gs jz 0x6e5
0000067C  6F                outsd
0000067D  6E                outsb
0000067E  0A00              or al,[eax]
00000680  3C63              cmp al,0x63
00000682  723E              jc 0x6c2
00000684  2020              and [eax],ah
00000686  2020              and [eax],ah
00000688  2020              and [eax],ah
0000068A  2020              and [eax],ah
0000068C  206578            and [ebp+0x78],ah
0000068F  65637574          arpl [gs:ebp+0x74],si
00000693  6520636F          and [gs:ebx+0x6f],ah
00000697  6D                insd
00000698  6D                insd
00000699  61                popa
0000069A  6E                outsb
0000069B  64206C696E        and [fs:ecx+ebp*2+0x6e],ch
000006A0  650A00            or al,[gs:eax]
000006A3  90                nop
000006A4  43                inc ebx
000006A5  54                push esp
000006A6  52                push edx
000006A7  4C                dec esp
000006A8  2D50202020        sub eax,0x20202050
000006AD  2020              and [eax],ah
000006AF  2020              and [eax],ah
000006B1  7265              jc 0x718
000006B3  63616C            arpl [ecx+0x6c],sp
000006B6  6C                insb
000006B7  207072            and [eax+0x72],dh
000006BA  657669            gs jna 0x726
000006BD  6F                outsd
000006BE  7573              jnz 0x733
000006C0  20696E            and [ecx+0x6e],ch
000006C3  7075              jo 0x73a
000006C5  7420              jz 0x6e7
000006C7  6C                insb
000006C8  696E650A008D76    imul ebp,[esi+0x65],dword 0x768d000a
000006CF  004354            add [ebx+0x54],al
000006D2  52                push edx
000006D3  4C                dec esp
000006D4  2D4E202020        sub eax,0x2020204e
000006D9  2020              and [eax],ah
000006DB  2020              and [eax],ah
000006DD  7265              jc 0x744
000006DF  63616C            arpl [ecx+0x6c],sp
000006E2  6C                insb
000006E3  206E65            and [esi+0x65],ch
000006E6  7874              js 0x75c
000006E8  20696E            and [ecx+0x6e],ch
000006EB  7075              jo 0x762
000006ED  7420              jz 0x70f
000006EF  6C                insb
000006F0  696E650A008D76    imul ebp,[esi+0x65],dword 0x768d000a
000006F7  003C61            add [ecx],bh
000006FA  6E                outsb
000006FB  793E              jns 0x73b
000006FD  2020              and [eax],ah
000006FF  2020              and [eax],ah
00000701  2020              and [eax],ah
00000703  2020              and [eax],ah
00000705  7472              jz 0x779
00000707  6561              gs popa
00000709  7420              jz 0x72b
0000070B  61                popa
0000070C  7320              jnc 0x72e
0000070E  696E7075742063    imul ebp,[esi+0x70],dword 0x63207475
00000715  6861726163        push dword 0x63617261
0000071A  7465              jz 0x781
0000071C  720A              jc 0x728
0000071E  005589            add [ebp-0x77],dl
00000721  E583              in eax,0x83
00000723  EC                in al,dx
00000724  1468              adc al,0x68
00000726  2806              sub [esi],al
00000728  0010              add [eax],dl
0000072A  E8C6FEFFFF        call 0x5f5
0000072F  C7042462060010    mov dword [esp],0x10000662
00000736  E8BAFEFFFF        call 0x5f5
0000073B  C7042480060010    mov dword [esp],0x10000680
00000742  E8AEFEFFFF        call 0x5f5
00000747  C70424A4060010    mov dword [esp],0x100006a4
0000074E  E8A2FEFFFF        call 0x5f5
00000753  C70424D0060010    mov dword [esp],0x100006d0
0000075A  E896FEFFFF        call 0x5f5
0000075F  C70424F8060010    mov dword [esp],0x100006f8
00000766  E88AFEFFFF        call 0x5f5
0000076B  83C410            add esp,byte +0x10
0000076E  C9                leave
0000076F  C3                ret
00000770  55                push ebp
00000771  89E5              mov ebp,esp
00000773  53                push ebx
00000774  8B5508            mov edx,[ebp+0x8]
00000777  8B450C            mov eax,[ebp+0xc]
0000077A  8A1A              mov bl,[edx]
0000077C  84DB              test bl,bl
0000077E  740F              jz 0x78f
00000780  EB2C              jmp short 0x7ae
00000782  40                inc eax
00000783  8A5A01            mov bl,[edx+0x1]
00000786  84DB              test bl,bl
00000788  7405              jz 0x78f
0000078A  42                inc edx
0000078B  3A18              cmp bl,[eax]
0000078D  74F3              jz 0x782
0000078F  8A00              mov al,[eax]
00000791  3C20              cmp al,0x20
00000793  0F94C2            setz dl
00000796  84C0              test al,al
00000798  0F94C0            setz al
0000079B  B903000000        mov ecx,0x3
000007A0  08C2              or dl,al
000007A2  7410              jz 0x7b4
000007A4  80FB01            cmp bl,0x1
000007A7  19C9              sbb ecx,ecx
000007A9  83C102            add ecx,byte +0x2
000007AC  EB06              jmp short 0x7b4
000007AE  3A18              cmp bl,[eax]
000007B0  74D0              jz 0x782
000007B2  EBDB              jmp short 0x78f
000007B4  89C8              mov eax,ecx
000007B6  5B                pop ebx
000007B7  5D                pop ebp
000007B8  C3                ret
000007B9  55                push ebp
000007BA  89E5              mov ebp,esp
000007BC  57                push edi
000007BD  56                push esi
000007BE  53                push ebx
000007BF  83EC04            sub esp,byte +0x4
000007C2  8B7D0C            mov edi,[ebp+0xc]
000007C5  8B1F              mov ebx,[edi]
000007C7  8A03              mov al,[ebx]
000007C9  3C20              cmp al,0x20
000007CB  7507              jnz 0x7d4
000007CD  43                inc ebx
000007CE  8A03              mov al,[ebx]
000007D0  3C20              cmp al,0x20
000007D2  74F9              jz 0x7cd
000007D4  84C0              test al,al
000007D6  750C              jnz 0x7e4
000007D8  891F              mov [edi],ebx
000007DA  B800000000        mov eax,0x0
000007DF  E9E0000000        jmp 0x8c4
000007E4  8B4508            mov eax,[ebp+0x8]
000007E7  8B30              mov esi,[eax]
000007E9  85F6              test esi,esi
000007EB  0F8494000000      jz near 0x885
000007F1  C745F000000000    mov dword [ebp-0x10],0x0
000007F8  53                push ebx
000007F9  FF7604            push dword [esi+0x4]
000007FC  E86FFFFFFF        call 0x770
00000801  83C408            add esp,byte +0x8
00000804  83F801            cmp eax,byte +0x1
00000807  7532              jnz 0x83b
00000809  E990000000        jmp 0x89e
0000080E  43                inc ebx
0000080F  8A03              mov al,[ebx]
00000811  84C0              test al,al
00000813  0F95C2            setnz dl
00000816  3C20              cmp al,0x20
00000818  0F95C0            setnz al
0000081B  84D0              test al,dl
0000081D  75EF              jnz 0x80e
0000081F  803B20            cmp byte [ebx],0x20
00000822  7506              jnz 0x82a
00000824  43                inc ebx
00000825  803B20            cmp byte [ebx],0x20
00000828  74FA              jz 0x824
0000082A  891F              mov [edi],ebx
0000082C  8B5508            mov edx,[ebp+0x8]
0000082F  8932              mov [edx],esi
00000831  B804000000        mov eax,0x4
00000836  E989000000        jmp 0x8c4
0000083B  83F802            cmp eax,byte +0x2
0000083E  7509              jnz 0x849
00000840  837DF000          cmp dword [ebp-0x10],byte +0x0
00000844  7571              jnz 0x8b7
00000846  8975F0            mov [ebp-0x10],esi
00000849  8B7618            mov esi,[esi+0x18]
0000084C  85F6              test esi,esi
0000084E  75A8              jnz 0x7f8
00000850  837DF000          cmp dword [ebp-0x10],byte +0x0
00000854  7536              jnz 0x88c
00000856  EB2D              jmp short 0x885
00000858  43                inc ebx
00000859  8A03              mov al,[ebx]
0000085B  84C0              test al,al
0000085D  0F95C2            setnz dl
00000860  3C20              cmp al,0x20
00000862  0F95C0            setnz al
00000865  84D0              test al,dl
00000867  75EF              jnz 0x858
00000869  803B20            cmp byte [ebx],0x20
0000086C  7506              jnz 0x874
0000086E  43                inc ebx
0000086F  803B20            cmp byte [ebx],0x20
00000872  74FA              jz 0x86e
00000874  8B55F0            mov edx,[ebp-0x10]
00000877  8B4508            mov eax,[ebp+0x8]
0000087A  8910              mov [eax],edx
0000087C  891F              mov [edi],ebx
0000087E  B804000000        mov eax,0x4
00000883  EB3F              jmp short 0x8c4
00000885  B803000000        mov eax,0x3
0000088A  EB38              jmp short 0x8c4
0000088C  8A03              mov al,[ebx]
0000088E  84C0              test al,al
00000890  0F95C2            setnz dl
00000893  3C20              cmp al,0x20
00000895  0F95C0            setnz al
00000898  84D0              test al,dl
0000089A  75BC              jnz 0x858
0000089C  EBCB              jmp short 0x869
0000089E  8A03              mov al,[ebx]
000008A0  84C0              test al,al
000008A2  0F95C2            setnz dl
000008A5  3C20              cmp al,0x20
000008A7  0F95C0            setnz al
000008AA  84D0              test al,dl
000008AC  0F855CFFFFFF      jnz near 0x80e
000008B2  E968FFFFFF        jmp 0x81f
000008B7  8B55F0            mov edx,[ebp-0x10]
000008BA  8B4508            mov eax,[ebp+0x8]
000008BD  8910              mov [eax],edx
000008BF  B805000000        mov eax,0x5
000008C4  8D65F4            lea esp,[ebp-0xc]
000008C7  5B                pop ebx
000008C8  5E                pop esi
000008C9  5F                pop edi
000008CA  5D                pop ebp
000008CB  C3                ret
000008CC  55                push ebp
000008CD  89E5              mov ebp,esp
000008CF  8B450C            mov eax,[ebp+0xc]
000008D2  8A10              mov dl,[eax]
000008D4  84D2              test dl,dl
000008D6  741B              jz 0x8f3
000008D8  89C1              mov ecx,eax
000008DA  A1A0300010        mov eax,[0x100030a0]
000008DF  8890902F0010      mov [eax+0x10002f90],dl
000008E5  40                inc eax
000008E6  A3A0300010        mov [0x100030a0],eax
000008EB  8A5101            mov dl,[ecx+0x1]
000008EE  41                inc ecx
000008EF  84D2              test dl,dl
000008F1  75E7              jnz 0x8da
000008F3  A1A0300010        mov eax,[0x100030a0]
000008F8  C680902F001000    mov byte [eax+0x10002f90],0x0
000008FF  8B4508            mov eax,[ebp+0x8]
00000902  A3C0300010        mov [0x100030c0],eax
00000907  5D                pop ebp
00000908  C3                ret
00000909  55                push ebp
0000090A  89E5              mov ebp,esp
0000090C  57                push edi
0000090D  56                push esi
0000090E  53                push ebx
0000090F  83EC4C            sub esp,byte +0x4c
00000912  8B7D08            mov edi,[ebp+0x8]
00000915  8B4D0C            mov ecx,[ebp+0xc]
00000918  BA01000000        mov edx,0x1
0000091D  8A4411FF          mov al,[ecx+edx-0x1]
00000921  88826F2E0010      mov [edx+0x10002e6f],al
00000927  42                inc edx
00000928  81FA01010000      cmp edx,0x101
0000092E  75ED              jnz 0x91d
00000930  8B4704            mov eax,[edi+0x4]
00000933  8945B4            mov [ebp-0x4c],eax
00000936  BE01000000        mov esi,0x1
0000093B  BB702E0010        mov ebx,0x10002e70
00000940  803D702E001000    cmp byte [0x10002e70],0x0
00000947  754D              jnz 0x996
00000949  EB53              jmp short 0x99e
0000094B  43                inc ebx
0000094C  8A03              mov al,[ebx]
0000094E  3C20              cmp al,0x20
00000950  74F9              jz 0x94b
00000952  84C0              test al,al
00000954  7448              jz 0x99e
00000956  895CB5B4          mov [ebp+esi*4-0x4c],ebx
0000095A  46                inc esi
0000095B  8A0B              mov cl,[ebx]
0000095D  80F920            cmp cl,0x20
00000960  0F95C2            setnz dl
00000963  84C9              test cl,cl
00000965  0F95C0            setnz al
00000968  84D0              test al,dl
0000096A  7412              jz 0x97e
0000096C  43                inc ebx
0000096D  8A0B              mov cl,[ebx]
0000096F  80F920            cmp cl,0x20
00000972  0F95C2            setnz dl
00000975  84C9              test cl,cl
00000977  0F95C0            setnz al
0000097A  84D0              test al,dl
0000097C  75EE              jnz 0x96c
0000097E  84C9              test cl,cl
00000980  741C              jz 0x99e
00000982  C60300            mov byte [ebx],0x0
00000985  43                inc ebx
00000986  83FE0F            cmp esi,byte +0xf
00000989  0F9EC2            setng dl
0000098C  803B00            cmp byte [ebx],0x0
0000098F  0F95C0            setnz al
00000992  84D0              test al,dl
00000994  7408              jz 0x99e
00000996  8A03              mov al,[ebx]
00000998  3C20              cmp al,0x20
0000099A  75B6              jnz 0x952
0000099C  EBAD              jmp short 0x94b
0000099E  837F1000          cmp dword [edi+0x10],byte +0x0
000009A2  7416              jz 0x9ba
000009A4  8B4714            mov eax,[edi+0x14]
000009A7  A3D0300010        mov [0x100030d0],eax
000009AC  83EC08            sub esp,byte +0x8
000009AF  8D45B4            lea eax,[ebp-0x4c]
000009B2  50                push eax
000009B3  56                push esi
000009B4  FF5710            call near [edi+0x10]
000009B7  83C410            add esp,byte +0x10
000009BA  8D65F4            lea esp,[ebp-0xc]
000009BD  5B                pop ebx
000009BE  5E                pop esi
000009BF  5F                pop edi
000009C0  5D                pop ebp
000009C1  C3                ret
000009C2  61                popa
000009C3  6D                insd
000009C4  626967            bound ebp,[ecx+0x67]
000009C7  7569              jnz 0xa32
000009C9  7479              jz 0xa44
000009CB  3A20              cmp ah,[eax]
000009CD  006E6F            add [esi+0x6f],ch
000009D0  206D61            and [ebp+0x61],ch
000009D3  7463              jz 0xa38
000009D5  683A200055        push dword 0x5500203a
000009DA  89E5              mov ebp,esp
000009DC  53                push ebx
000009DD  83EC14            sub esp,byte +0x14
000009E0  8B5D0C            mov ebx,[ebp+0xc]
000009E3  895DF8            mov [ebp-0x8],ebx
000009E6  8D45F8            lea eax,[ebp-0x8]
000009E9  50                push eax
000009EA  8D4508            lea eax,[ebp+0x8]
000009ED  50                push eax
000009EE  E8C6FDFFFF        call 0x7b9
000009F3  83C408            add esp,byte +0x8
000009F6  83F804            cmp eax,byte +0x4
000009F9  751F              jnz 0xa1a
000009FB  8B5508            mov edx,[ebp+0x8]
000009FE  85D2              test edx,edx
00000A00  0F848B000000      jz near 0xa91
00000A06  8B4A1C            mov ecx,[edx+0x1c]
00000A09  85C9              test ecx,ecx
00000A0B  743B              jz 0xa48
00000A0D  8B45F8            mov eax,[ebp-0x8]
00000A10  803800            cmp byte [eax],0x0
00000A13  7444              jz 0xa59
00000A15  894D08            mov [ebp+0x8],ecx
00000A18  EBCC              jmp short 0x9e6
00000A1A  83F805            cmp eax,byte +0x5
00000A1D  7546              jnz 0xa65
00000A1F  83EC0C            sub esp,byte +0xc
00000A22  68C2090010        push dword 0x100009c2
00000A27  E8C9FBFFFF        call 0x5f5
00000A2C  83C404            add esp,byte +0x4
00000A2F  FF75F8            push dword [ebp-0x8]
00000A32  E8BEFBFFFF        call 0x5f5
00000A37  C704240A000000    mov dword [esp],0xa
00000A3E  E8DCF5FFFF        call 0x1f
00000A43  83C410            add esp,byte +0x10
00000A46  EB49              jmp short 0xa91
00000A48  83EC08            sub esp,byte +0x8
00000A4B  FF75F8            push dword [ebp-0x8]
00000A4E  52                push edx
00000A4F  E8B5FEFFFF        call 0x909
00000A54  83C410            add esp,byte +0x10
00000A57  EB38              jmp short 0xa91
00000A59  53                push ebx
00000A5A  52                push edx
00000A5B  E86CFEFFFF        call 0x8cc
00000A60  83C408            add esp,byte +0x8
00000A63  EB2C              jmp short 0xa91
00000A65  83F803            cmp eax,byte +0x3
00000A68  7527              jnz 0xa91
00000A6A  83EC0C            sub esp,byte +0xc
00000A6D  68CE090010        push dword 0x100009ce
00000A72  E87EFBFFFF        call 0x5f5
00000A77  83C404            add esp,byte +0x4
00000A7A  FF75F8            push dword [ebp-0x8]
00000A7D  E873FBFFFF        call 0x5f5
00000A82  C704240A000000    mov dword [esp],0xa
00000A89  E891F5FFFF        call 0x1f
00000A8E  83C410            add esp,byte +0x10
00000A91  B800000000        mov eax,0x0
00000A96  8B5DFC            mov ebx,[ebp-0x4]
00000A99  C9                leave
00000A9A  C3                ret
00000A9B  55                push ebp
00000A9C  89E5              mov ebp,esp
00000A9E  57                push edi
00000A9F  56                push esi
00000AA0  53                push ebx
00000AA1  83EC18            sub esp,byte +0x18
00000AA4  8B7508            mov esi,[ebp+0x8]
00000AA7  6A0A              push byte +0xa
00000AA9  E871F5FFFF        call 0x1f
00000AAE  83C410            add esp,byte +0x10
00000AB1  85F6              test esi,esi
00000AB3  0F848F000000      jz near 0xb48
00000AB9  89F3              mov ebx,esi
00000ABB  BF00000000        mov edi,0x0
00000AC0  FF7304            push dword [ebx+0x4]
00000AC3  E80FFBFFFF        call 0x5d7
00000AC8  83C404            add esp,byte +0x4
00000ACB  39F8              cmp eax,edi
00000ACD  7E0D              jng 0xadc
00000ACF  FF7304            push dword [ebx+0x4]
00000AD2  E800FBFFFF        call 0x5d7
00000AD7  89C7              mov edi,eax
00000AD9  83C404            add esp,byte +0x4
00000ADC  8B5B18            mov ebx,[ebx+0x18]
00000ADF  85DB              test ebx,ebx
00000AE1  75DD              jnz 0xac0
00000AE3  83C702            add edi,byte +0x2
00000AE6  897DF0            mov [ebp-0x10],edi
00000AE9  837E0800          cmp dword [esi+0x8],byte +0x0
00000AED  7452              jz 0xb41
00000AEF  83EC0C            sub esp,byte +0xc
00000AF2  FF7604            push dword [esi+0x4]
00000AF5  E8FBFAFFFF        call 0x5f5
00000AFA  FF7604            push dword [esi+0x4]
00000AFD  E8D5FAFFFF        call 0x5d7
00000B02  8B55F0            mov edx,[ebp-0x10]
00000B05  83C414            add esp,byte +0x14
00000B08  39D0              cmp eax,edx
00000B0A  7D1B              jnl 0xb27
00000B0C  BB00000000        mov ebx,0x0
00000B11  89D7              mov edi,edx
00000B13  29C7              sub edi,eax
00000B15  83EC0C            sub esp,byte +0xc
00000B18  6A20              push byte +0x20
00000B1A  E800F5FFFF        call 0x1f
00000B1F  43                inc ebx
00000B20  83C410            add esp,byte +0x10
00000B23  39FB              cmp ebx,edi
00000B25  75EE              jnz 0xb15
00000B27  83EC0C            sub esp,byte +0xc
00000B2A  FF7608            push dword [esi+0x8]
00000B2D  E8C3FAFFFF        call 0x5f5
00000B32  C704240A000000    mov dword [esp],0xa
00000B39  E8E1F4FFFF        call 0x1f
00000B3E  83C410            add esp,byte +0x10
00000B41  8B7618            mov esi,[esi+0x18]
00000B44  85F6              test esi,esi
00000B46  75A1              jnz 0xae9
00000B48  8D65F4            lea esp,[ebp-0xc]
00000B4B  5B                pop ebx
00000B4C  5E                pop esi
00000B4D  5F                pop edi
00000B4E  5D                pop ebp
00000B4F  C3                ret
00000B50  3A20              cmp ah,[eax]
00000B52  006E6F            add [esi+0x6f],ch
00000B55  206865            and [eax+0x65],ch
00000B58  6C                insb
00000B59  7020              jo 0xb7b
00000B5B  61                popa
00000B5C  7661              jna 0xbbf
00000B5E  696C61626C65000A  imul ebp,[ecx+0x62],dword 0xa00656c
00000B66  61                popa
00000B67  6D                insd
00000B68  626967            bound ebp,[ecx+0x67]
00000B6B  7569              jnz 0xbd6
00000B6D  7479              jz 0xbe8
00000B6F  3A20              cmp ah,[eax]
00000B71  000A              add [edx],cl
00000B73  6E                outsb
00000B74  6F                outsd
00000B75  206D61            and [ebp+0x61],ch
00000B78  7463              jz 0xbdd
00000B7A  683A200055        push dword 0x5500203a
00000B7F  89E5              mov ebp,esp
00000B81  83EC18            sub esp,byte +0x18
00000B84  8B450C            mov eax,[ebp+0xc]
00000B87  8945FC            mov [ebp-0x4],eax
00000B8A  8D45FC            lea eax,[ebp-0x4]
00000B8D  50                push eax
00000B8E  8D4508            lea eax,[ebp+0x8]
00000B91  50                push eax
00000B92  E822FCFFFF        call 0x7b9
00000B97  83C408            add esp,byte +0x8
00000B9A  83F804            cmp eax,byte +0x4
00000B9D  0F859A000000      jnz near 0xc3d
00000BA3  8B55FC            mov edx,[ebp-0x4]
00000BA6  803A00            cmp byte [edx],0x0
00000BA9  0F8516010000      jnz near 0xcc5
00000BAF  8B4508            mov eax,[ebp+0x8]
00000BB2  8B401C            mov eax,[eax+0x1c]
00000BB5  85C0              test eax,eax
00000BB7  7411              jz 0xbca
00000BB9  83EC0C            sub esp,byte +0xc
00000BBC  50                push eax
00000BBD  E8D9FEFFFF        call 0xa9b
00000BC2  83C410            add esp,byte +0x10
00000BC5  E909010000        jmp 0xcd3
00000BCA  807AFF20          cmp byte [edx-0x1],0x20
00000BCE  740D              jz 0xbdd
00000BD0  83EC0C            sub esp,byte +0xc
00000BD3  6A20              push byte +0x20
00000BD5  E845F4FFFF        call 0x1f
00000BDA  83C410            add esp,byte +0x10
00000BDD  8B4508            mov eax,[ebp+0x8]
00000BE0  8B400C            mov eax,[eax+0xc]
00000BE3  85C0              test eax,eax
00000BE5  740C              jz 0xbf3
00000BE7  83EC0C            sub esp,byte +0xc
00000BEA  50                push eax
00000BEB  E805FAFFFF        call 0x5f5
00000BF0  83C410            add esp,byte +0x10
00000BF3  83EC0C            sub esp,byte +0xc
00000BF6  68500B0010        push dword 0x10000b50
00000BFB  E8F5F9FFFF        call 0x5f5
00000C00  8B4508            mov eax,[ebp+0x8]
00000C03  8B4008            mov eax,[eax+0x8]
00000C06  83C410            add esp,byte +0x10
00000C09  85C0              test eax,eax
00000C0B  740E              jz 0xc1b
00000C0D  83EC0C            sub esp,byte +0xc
00000C10  50                push eax
00000C11  E8DFF9FFFF        call 0x5f5
00000C16  83C410            add esp,byte +0x10
00000C19  EB10              jmp short 0xc2b
00000C1B  83EC0C            sub esp,byte +0xc
00000C1E  68530B0010        push dword 0x10000b53
00000C23  E8CDF9FFFF        call 0x5f5
00000C28  83C410            add esp,byte +0x10
00000C2B  83EC0C            sub esp,byte +0xc
00000C2E  6A0A              push byte +0xa
00000C30  E8EAF3FFFF        call 0x1f
00000C35  83C410            add esp,byte +0x10
00000C38  E996000000        jmp 0xcd3
00000C3D  83F805            cmp eax,byte +0x5
00000C40  7529              jnz 0xc6b
00000C42  83EC0C            sub esp,byte +0xc
00000C45  68650B0010        push dword 0x10000b65
00000C4A  E8A6F9FFFF        call 0x5f5
00000C4F  83C404            add esp,byte +0x4
00000C52  FF75FC            push dword [ebp-0x4]
00000C55  E89BF9FFFF        call 0x5f5
00000C5A  C704240A000000    mov dword [esp],0xa
00000C61  E8B9F3FFFF        call 0x1f
00000C66  83C410            add esp,byte +0x10
00000C69  EB68              jmp short 0xcd3
00000C6B  83F803            cmp eax,byte +0x3
00000C6E  7529              jnz 0xc99
00000C70  83EC0C            sub esp,byte +0xc
00000C73  68720B0010        push dword 0x10000b72
00000C78  E878F9FFFF        call 0x5f5
00000C7D  83C404            add esp,byte +0x4
00000C80  FF75FC            push dword [ebp-0x4]
00000C83  E86DF9FFFF        call 0x5f5
00000C88  C704240A000000    mov dword [esp],0xa
00000C8F  E88BF3FFFF        call 0x1f
00000C94  83C410            add esp,byte +0x10
00000C97  EB3A              jmp short 0xcd3
00000C99  A1C0300010        mov eax,[0x100030c0]
00000C9E  85C0              test eax,eax
00000CA0  7410              jz 0xcb2
00000CA2  83EC0C            sub esp,byte +0xc
00000CA5  FF701C            push dword [eax+0x1c]
00000CA8  E8EEFDFFFF        call 0xa9b
00000CAD  83C410            add esp,byte +0x10
00000CB0  EB21              jmp short 0xcd3
00000CB2  83EC0C            sub esp,byte +0xc
00000CB5  FF35341E0010      push dword [0x10001e34]
00000CBB  E8DBFDFFFF        call 0xa9b
00000CC0  83C410            add esp,byte +0x10
00000CC3  EB0E              jmp short 0xcd3
00000CC5  8B4508            mov eax,[ebp+0x8]
00000CC8  8B401C            mov eax,[eax+0x1c]
00000CCB  894508            mov [ebp+0x8],eax
00000CCE  E9B7FEFFFF        jmp 0xb8a
00000CD3  B800000000        mov eax,0x0
00000CD8  C9                leave
00000CD9  C3                ret
00000CDA  55                push ebp
00000CDB  89E5              mov ebp,esp
00000CDD  57                push edi
00000CDE  56                push esi
00000CDF  53                push ebx
00000CE0  83EC2C            sub esp,byte +0x2c
00000CE3  8B450C            mov eax,[ebp+0xc]
00000CE6  8945F0            mov [ebp-0x10],eax
00000CE9  8B45F0            mov eax,[ebp-0x10]
00000CEC  8945D8            mov [ebp-0x28],eax
00000CEF  8D45F0            lea eax,[ebp-0x10]
00000CF2  50                push eax
00000CF3  8D4508            lea eax,[ebp+0x8]
00000CF6  50                push eax
00000CF7  E8BDFAFFFF        call 0x7b9
00000CFC  89C1              mov ecx,eax
00000CFE  8B55D8            mov edx,[ebp-0x28]
00000D01  8A02              mov al,[edx]
00000D03  83C408            add esp,byte +0x8
00000D06  3C20              cmp al,0x20
00000D08  0F95C2            setnz dl
00000D0B  84C0              test al,al
00000D0D  0F95C0            setnz al
00000D10  C745D400000000    mov dword [ebp-0x2c],0x0
00000D17  84D0              test al,dl
00000D19  7421              jz 0xd3c
00000D1B  C745D400000000    mov dword [ebp-0x2c],0x0
00000D22  FF45D4            inc dword [ebp-0x2c]
00000D25  8B5DD8            mov ebx,[ebp-0x28]
00000D28  8B7DD4            mov edi,[ebp-0x2c]
00000D2B  8A043B            mov al,[ebx+edi]
00000D2E  3C20              cmp al,0x20
00000D30  0F95C2            setnz dl
00000D33  84C0              test al,al
00000D35  0F95C0            setnz al
00000D38  84D0              test al,dl
00000D3A  75E6              jnz 0xd22
00000D3C  83F904            cmp ecx,byte +0x4
00000D3F  7513              jnz 0xd54
00000D41  8B45F0            mov eax,[ebp-0x10]
00000D44  803800            cmp byte [eax],0x0
00000D47  740B              jz 0xd54
00000D49  8B4508            mov eax,[ebp+0x8]
00000D4C  8B401C            mov eax,[eax+0x1c]
00000D4F  894508            mov [ebp+0x8],eax
00000D52  EB95              jmp short 0xce9
00000D54  8D41FC            lea eax,[ecx-0x4]
00000D57  83F801            cmp eax,byte +0x1
00000D5A  0F96C2            setna dl
00000D5D  85C9              test ecx,ecx
00000D5F  0F94C0            setz al
00000D62  08C2              or dl,al
00000D64  0F84A6010000      jz near 0xf10
00000D6A  8B5D08            mov ebx,[ebp+0x8]
00000D6D  85DB              test ebx,ebx
00000D6F  0F849B010000      jz near 0xf10
00000D75  C745DC00000000    mov dword [ebp-0x24],0x0
00000D7C  C745E000000000    mov dword [ebp-0x20],0x0
00000D83  C745D000010000    mov dword [ebp-0x30],0x100
00000D8A  FF75D8            push dword [ebp-0x28]
00000D8D  FF7304            push dword [ebx+0x4]
00000D90  E8DBF9FFFF        call 0x770
00000D95  83C408            add esp,byte +0x8
00000D98  83F801            cmp eax,byte +0x1
00000D9B  757C              jnz 0xe19
00000D9D  E9D1010000        jmp 0xf73
00000DA2  8B5DD4            mov ebx,[ebp-0x2c]
00000DA5  83EC0C            sub esp,byte +0xc
00000DA8  25FF000000        and eax,0xff
00000DAD  50                push eax
00000DAE  E85C050000        call 0x130f
00000DB3  43                inc ebx
00000DB4  8B4508            mov eax,[ebp+0x8]
00000DB7  8B4004            mov eax,[eax+0x4]
00000DBA  8A0403            mov al,[ebx+eax]
00000DBD  83C410            add esp,byte +0x10
00000DC0  84C0              test al,al
00000DC2  75E1              jnz 0xda5
00000DC4  8B45F0            mov eax,[ebp-0x10]
00000DC7  8078FF20          cmp byte [eax-0x1],0x20
00000DCB  740D              jz 0xdda
00000DCD  83EC0C            sub esp,byte +0xc
00000DD0  6A20              push byte +0x20
00000DD2  E838050000        call 0x130f
00000DD7  83C410            add esp,byte +0x10
00000DDA  8B5508            mov edx,[ebp+0x8]
00000DDD  8B421C            mov eax,[edx+0x1c]
00000DE0  85C0              test eax,eax
00000DE2  752D              jnz 0xe11
00000DE4  8B420C            mov eax,[edx+0xc]
00000DE7  85C0              test eax,eax
00000DE9  0F8421010000      jz near 0xf10
00000DEF  83EC0C            sub esp,byte +0xc
00000DF2  50                push eax
00000DF3  E8FDF7FFFF        call 0x5f5
00000DF8  C704240A000000    mov dword [esp],0xa
00000DFF  E81BF2FFFF        call 0x1f
00000E04  B801000000        mov eax,0x1
00000E09  83C410            add esp,byte +0x10
00000E0C  E97B010000        jmp 0xf8c
00000E11  894508            mov [ebp+0x8],eax
00000E14  E9D0FEFFFF        jmp 0xce9
00000E19  83F802            cmp eax,byte +0x2
00000E1C  754C              jnz 0xe6a
00000E1E  FF45E0            inc dword [ebp-0x20]
00000E21  837DDC00          cmp dword [ebp-0x24],byte +0x0
00000E25  0F8509010000      jnz near 0xf34
00000E2B  FF7304            push dword [ebx+0x4]
00000E2E  E8A4F7FFFF        call 0x5d7
00000E33  8945D0            mov [ebp-0x30],eax
00000E36  895DDC            mov [ebp-0x24],ebx
00000E39  83C404            add esp,byte +0x4
00000E3C  EB2C              jmp short 0xe6a
00000E3E  41                inc ecx
00000E3F  8A4701            mov al,[edi+0x1]
00000E42  8845CF            mov [ebp-0x31],al
00000E45  394DD0            cmp [ebp-0x30],ecx
00000E48  0F9FC2            setg dl
00000E4B  84C0              test al,al
00000E4D  0F95C0            setnz al
00000E50  84D0              test al,dl
00000E52  740F              jz 0xe63
00000E54  8A4601            mov al,[esi+0x1]
00000E57  47                inc edi
00000E58  46                inc esi
00000E59  3845CF            cmp [ebp-0x31],al
00000E5C  7505              jnz 0xe63
00000E5E  EBDE              jmp short 0xe3e
00000E60  8B4DD4            mov ecx,[ebp-0x2c]
00000E63  84D2              test dl,dl
00000E65  7403              jz 0xe6a
00000E67  894DD0            mov [ebp-0x30],ecx
00000E6A  8B5B18            mov ebx,[ebx+0x18]
00000E6D  85DB              test ebx,ebx
00000E6F  0F84A9000000      jz near 0xf1e
00000E75  E910FFFFFF        jmp 0xd8a
00000E7A  8B55D4            mov edx,[ebp-0x2c]
00000E7D  3955D0            cmp [ebp-0x30],edx
00000E80  0F85A4000000      jnz near 0xf2a
00000E86  83EC0C            sub esp,byte +0xc
00000E89  6A0A              push byte +0xa
00000E8B  E88FF1FFFF        call 0x1f
00000E90  8B5D08            mov ebx,[ebp+0x8]
00000E93  83C410            add esp,byte +0x10
00000E96  85DB              test ebx,ebx
00000E98  747D              jz 0xf17
00000E9A  FF75D8            push dword [ebp-0x28]
00000E9D  FF7304            push dword [ebx+0x4]
00000EA0  E8CBF8FFFF        call 0x770
00000EA5  48                dec eax
00000EA6  83C408            add esp,byte +0x8
00000EA9  83F801            cmp eax,byte +0x1
00000EAC  771A              ja 0xec8
00000EAE  83EC0C            sub esp,byte +0xc
00000EB1  FF7304            push dword [ebx+0x4]
00000EB4  E83CF7FFFF        call 0x5f5
00000EB9  C704240A000000    mov dword [esp],0xa
00000EC0  E85AF1FFFF        call 0x1f
00000EC5  83C410            add esp,byte +0x10
00000EC8  8B5B18            mov ebx,[ebx+0x18]
00000ECB  85DB              test ebx,ebx
00000ECD  7448              jz 0xf17
00000ECF  EBC9              jmp short 0xe9a
00000ED1  8B5DD4            mov ebx,[ebp-0x2c]
00000ED4  8B75D0            mov esi,[ebp-0x30]
00000ED7  83EC0C            sub esp,byte +0xc
00000EDA  8B7DDC            mov edi,[ebp-0x24]
00000EDD  8B4704            mov eax,[edi+0x4]
00000EE0  8A0418            mov al,[eax+ebx]
00000EE3  25FF000000        and eax,0xff
00000EE8  50                push eax
00000EE9  E821040000        call 0x130f
00000EEE  43                inc ebx
00000EEF  83C410            add esp,byte +0x10
00000EF2  39F3              cmp ebx,esi
00000EF4  75E1              jnz 0xed7
00000EF6  837DE001          cmp dword [ebp-0x20],byte +0x1
00000EFA  7514              jnz 0xf10
00000EFC  83EC0C            sub esp,byte +0xc
00000EFF  6A20              push byte +0x20
00000F01  E809040000        call 0x130f
00000F06  B800000000        mov eax,0x0
00000F0B  83C410            add esp,byte +0x10
00000F0E  EB7C              jmp short 0xf8c
00000F10  B800000000        mov eax,0x0
00000F15  EB75              jmp short 0xf8c
00000F17  B801000000        mov eax,0x1
00000F1C  EB6E              jmp short 0xf8c
00000F1E  837DDC00          cmp dword [ebp-0x24],byte +0x0
00000F22  0F8552FFFFFF      jnz near 0xe7a
00000F28  EBE6              jmp short 0xf10
00000F2A  8B45D4            mov eax,[ebp-0x2c]
00000F2D  3945D0            cmp [ebp-0x30],eax
00000F30  7EC4              jng 0xef6
00000F32  EB9D              jmp short 0xed1
00000F34  8B7304            mov esi,[ebx+0x4]
00000F37  8B55D4            mov edx,[ebp-0x2c]
00000F3A  8A0C16            mov cl,[esi+edx]
00000F3D  8B7DD0            mov edi,[ebp-0x30]
00000F40  39FA              cmp edx,edi
00000F42  0F9CC2            setl dl
00000F45  84C9              test cl,cl
00000F47  0F95C0            setnz al
00000F4A  84D0              test al,dl
00000F4C  0F840EFFFFFF      jz near 0xe60
00000F52  8B7DDC            mov edi,[ebp-0x24]
00000F55  8B4704            mov eax,[edi+0x4]
00000F58  8B7DD4            mov edi,[ebp-0x2c]
00000F5B  3A0C07            cmp cl,[edi+eax]
00000F5E  0F85FCFEFFFF      jnz near 0xe60
00000F64  01F7              add edi,esi
00000F66  8B75D4            mov esi,[ebp-0x2c]
00000F69  01C6              add esi,eax
00000F6B  8B4DD4            mov ecx,[ebp-0x2c]
00000F6E  E9CBFEFFFF        jmp 0xe3e
00000F73  8B4508            mov eax,[ebp+0x8]
00000F76  8B4004            mov eax,[eax+0x4]
00000F79  8B55D4            mov edx,[ebp-0x2c]
00000F7C  8A0410            mov al,[eax+edx]
00000F7F  84C0              test al,al
00000F81  0F843DFEFFFF      jz near 0xdc4
00000F87  E916FEFFFF        jmp 0xda2
00000F8C  8D65F4            lea esp,[ebp-0xc]
00000F8F  5B                pop ebx
00000F90  5E                pop esi
00000F91  5F                pop edi
00000F92  5D                pop ebp
00000F93  C3                ret
00000F94  3E2000            and [ds:eax],al
00000F97  55                push ebp
00000F98  89E5              mov ebp,esp
00000F9A  83EC14            sub esp,byte +0x14
00000F9D  68F01D0010        push dword 0x10001df0
00000FA2  E84EF6FFFF        call 0x5f5
00000FA7  83C410            add esp,byte +0x10
00000FAA  833DA030001000    cmp dword [0x100030a0],byte +0x0
00000FB1  741C              jz 0xfcf
00000FB3  83EC0C            sub esp,byte +0xc
00000FB6  68902F0010        push dword 0x10002f90
00000FBB  E835F6FFFF        call 0x5f5
00000FC0  C70424940F0010    mov dword [esp],0x10000f94
00000FC7  E829F6FFFF        call 0x5f5
00000FCC  83C410            add esp,byte +0x10
00000FCF  C705B03000100000  mov dword [0x100030b0],0x0
         -0000
00000FD9  C9                leave
00000FDA  C3                ret
00000FDB  0820              or [eax],ah
00000FDD  0800              or [eax],al
00000FDF  55                push ebp
00000FE0  89E5              mov ebp,esp
00000FE2  57                push edi
00000FE3  56                push esi
00000FE4  53                push ebx
00000FE5  83EC0C            sub esp,byte +0xc
00000FE8  8A5D08            mov bl,[ebp+0x8]
00000FEB  8B0D802F0010      mov ecx,[0x10002f80]
00000FF1  89C8              mov eax,ecx
00000FF3  C1E008            shl eax,0x8
00000FF6  8DB408601E0010    lea esi,[eax+ecx+0x10001e60]
00000FFD  80FB0A            cmp bl,0xa
00001000  0F94C2            setz dl
00001003  80FB0D            cmp bl,0xd
00001006  0F94C0            setz al
00001009  08C2              or dl,al
0000100B  0F8488000000      jz near 0x1099
00001011  833DD01D001000    cmp dword [0x10001dd0],byte +0x0
00001018  7413              jz 0x102d
0000101A  83EC0C            sub esp,byte +0xc
0000101D  B800000000        mov eax,0x0
00001022  88D8              mov al,bl
00001024  50                push eax
00001025  E8F5EFFFFF        call 0x1f
0000102A  83C410            add esp,byte +0x10
0000102D  8A06              mov al,[esi]
0000102F  3C20              cmp al,0x20
00001031  7507              jnz 0x103a
00001033  46                inc esi
00001034  8A06              mov al,[esi]
00001036  3C20              cmp al,0x20
00001038  74F9              jz 0x1033
0000103A  84C0              test al,al
0000103C  7451              jz 0x108f
0000103E  A1C0300010        mov eax,[0x100030c0]
00001043  85C0              test eax,eax
00001045  7405              jz 0x104c
00001047  8B401C            mov eax,[eax+0x1c]
0000104A  EB05              jmp short 0x1051
0000104C  A1341E0010        mov eax,[0x10001e34]
00001051  83EC08            sub esp,byte +0x8
00001054  56                push esi
00001055  50                push eax
00001056  E87EF9FFFF        call 0x9d9
0000105B  A1802F0010        mov eax,[0x10002f80]
00001060  40                inc eax
00001061  89C2              mov edx,eax
00001063  C1FA1F            sar edx,0x1f
00001066  C1EA1C            shr edx,0x1c
00001069  01D0              add eax,edx
0000106B  83E00F            and eax,byte +0xf
0000106E  29D0              sub eax,edx
00001070  A3802F0010        mov [0x10002f80],eax
00001075  C705B03000100000  mov dword [0x100030b0],0x0
         -0000
0000107F  89C2              mov edx,eax
00001081  C1E208            shl edx,0x8
00001084  C68402601E001000  mov byte [edx+eax+0x10001e60],0x0
0000108C  83C410            add esp,byte +0x10
0000108F  E803FFFFFF        call 0xf97
00001094  E96E020000        jmp 0x1307
00001099  80FB2F            cmp bl,0x2f
0000109C  752F              jnz 0x10cd
0000109E  833DD01D001000    cmp dword [0x10001dd0],byte +0x0
000010A5  740D              jz 0x10b4
000010A7  83EC0C            sub esp,byte +0xc
000010AA  6A2F              push byte +0x2f
000010AC  E86EEFFFFF        call 0x1f
000010B1  83C410            add esp,byte +0x10
000010B4  C705A03000100000  mov dword [0x100030a0],0x0
         -0000
000010BE  C705C03000100000  mov dword [0x100030c0],0x0
         -0000
000010C8  E93A020000        jmp 0x1307
000010CD  80FB08            cmp bl,0x8
000010D0  0F94C2            setz dl
000010D3  80FB7F            cmp bl,0x7f
000010D6  0F94C0            setz al
000010D9  08C2              or dl,al
000010DB  7431              jz 0x110e
000010DD  833DB030001000    cmp dword [0x100030b0],byte +0x0
000010E4  0F8E1D020000      jng near 0x1307
000010EA  83EC0C            sub esp,byte +0xc
000010ED  68DB0F0010        push dword 0x10000fdb
000010F2  E8FEF4FFFF        call 0x5f5
000010F7  A1B0300010        mov eax,[0x100030b0]
000010FC  48                dec eax
000010FD  A3B0300010        mov [0x100030b0],eax
00001102  C6040600          mov byte [esi+eax],0x0
00001106  83C410            add esp,byte +0x10
00001109  E9F9010000        jmp 0x1307
0000110E  80FB10            cmp bl,0x10
00001111  0F858B000000      jnz near 0x11a2
00001117  8D410F            lea eax,[ecx+0xf]
0000111A  89C2              mov edx,eax
0000111C  C1FA1F            sar edx,0x1f
0000111F  C1EA1C            shr edx,0x1c
00001122  01D0              add eax,edx
00001124  83E00F            and eax,byte +0xf
00001127  89C7              mov edi,eax
00001129  29D7              sub edi,edx
0000112B  89F8              mov eax,edi
0000112D  C1E008            shl eax,0x8
00001130  01F8              add eax,edi
00001132  8DB0601E0010      lea esi,[eax+0x10001e60]
00001138  80B8601E001000    cmp byte [eax+0x10001e60],0x0
0000113F  7515              jnz 0x1156
00001141  E9C1010000        jmp 0x1307
00001146  83EC0C            sub esp,byte +0xc
00001149  68DB0F0010        push dword 0x10000fdb
0000114E  E8A2F4FFFF        call 0x5f5
00001153  83C410            add esp,byte +0x10
00001156  8B1DB0300010      mov ebx,[0x100030b0]
0000115C  56                push esi
0000115D  E875F4FFFF        call 0x5d7
00001162  8D53FF            lea edx,[ebx-0x1]
00001165  8915B0300010      mov [0x100030b0],edx
0000116B  83C404            add esp,byte +0x4
0000116E  39C3              cmp ebx,eax
00001170  7FD4              jg 0x1146
00001172  83EC0C            sub esp,byte +0xc
00001175  6A0D              push byte +0xd
00001177  E8A3EEFFFF        call 0x1f
0000117C  E816FEFFFF        call 0xf97
00001181  893424            mov [esp],esi
00001184  E86CF4FFFF        call 0x5f5
00001189  56                push esi
0000118A  E848F4FFFF        call 0x5d7
0000118F  A3B0300010        mov [0x100030b0],eax
00001194  893D802F0010      mov [0x10002f80],edi
0000119A  83C414            add esp,byte +0x14
0000119D  E965010000        jmp 0x1307
000011A2  80FB0E            cmp bl,0xe
000011A5  0F858B000000      jnz near 0x1236
000011AB  8D4101            lea eax,[ecx+0x1]
000011AE  89C2              mov edx,eax
000011B0  C1FA1F            sar edx,0x1f
000011B3  C1EA1C            shr edx,0x1c
000011B6  01D0              add eax,edx
000011B8  83E00F            and eax,byte +0xf
000011BB  89C7              mov edi,eax
000011BD  29D7              sub edi,edx
000011BF  89F8              mov eax,edi
000011C1  C1E008            shl eax,0x8
000011C4  01F8              add eax,edi
000011C6  8DB0601E0010      lea esi,[eax+0x10001e60]
000011CC  80B8601E001000    cmp byte [eax+0x10001e60],0x0
000011D3  7515              jnz 0x11ea
000011D5  E92D010000        jmp 0x1307
000011DA  83EC0C            sub esp,byte +0xc
000011DD  68DB0F0010        push dword 0x10000fdb
000011E2  E80EF4FFFF        call 0x5f5
000011E7  83C410            add esp,byte +0x10
000011EA  8B1DB0300010      mov ebx,[0x100030b0]
000011F0  56                push esi
000011F1  E8E1F3FFFF        call 0x5d7
000011F6  8D53FF            lea edx,[ebx-0x1]
000011F9  8915B0300010      mov [0x100030b0],edx
000011FF  83C404            add esp,byte +0x4
00001202  39C3              cmp ebx,eax
00001204  7FD4              jg 0x11da
00001206  83EC0C            sub esp,byte +0xc
00001209  6A0D              push byte +0xd
0000120B  E80FEEFFFF        call 0x1f
00001210  E882FDFFFF        call 0xf97
00001215  893424            mov [esp],esi
00001218  E8D8F3FFFF        call 0x5f5
0000121D  56                push esi
0000121E  E8B4F3FFFF        call 0x5d7
00001223  A3B0300010        mov [0x100030b0],eax
00001228  893D802F0010      mov [0x10002f80],edi
0000122E  83C414            add esp,byte +0x14
00001231  E9D1000000        jmp 0x1307
00001236  80FB3F            cmp bl,0x3f
00001239  753D              jnz 0x1278
0000123B  A1C0300010        mov eax,[0x100030c0]
00001240  85C0              test eax,eax
00001242  7405              jz 0x1249
00001244  8B401C            mov eax,[eax+0x1c]
00001247  EB05              jmp short 0x124e
00001249  A1341E0010        mov eax,[0x10001e34]
0000124E  83EC08            sub esp,byte +0x8
00001251  56                push esi
00001252  50                push eax
00001253  E826F9FFFF        call 0xb7e
00001258  E83AFDFFFF        call 0xf97
0000125D  893424            mov [esp],esi
00001260  E890F3FFFF        call 0x5f5
00001265  56                push esi
00001266  E86CF3FFFF        call 0x5d7
0000126B  A3B0300010        mov [0x100030b0],eax
00001270  83C414            add esp,byte +0x14
00001273  E98F000000        jmp 0x1307
00001278  80FB09            cmp bl,0x9
0000127B  0F94C2            setz dl
0000127E  80FB21            cmp bl,0x21
00001281  0F94C0            setz al
00001284  08C2              or dl,al
00001286  7445              jz 0x12cd
00001288  A1C0300010        mov eax,[0x100030c0]
0000128D  85C0              test eax,eax
0000128F  7405              jz 0x1296
00001291  8B401C            mov eax,[eax+0x1c]
00001294  EB05              jmp short 0x129b
00001296  A1341E0010        mov eax,[0x10001e34]
0000129B  83EC08            sub esp,byte +0x8
0000129E  56                push esi
0000129F  50                push eax
000012A0  E835FAFFFF        call 0xcda
000012A5  83C410            add esp,byte +0x10
000012A8  85C0              test eax,eax
000012AA  7411              jz 0x12bd
000012AC  E8E6FCFFFF        call 0xf97
000012B1  83EC0C            sub esp,byte +0xc
000012B4  56                push esi
000012B5  E83BF3FFFF        call 0x5f5
000012BA  83C410            add esp,byte +0x10
000012BD  56                push esi
000012BE  E814F3FFFF        call 0x5d7
000012C3  A3B0300010        mov [0x100030b0],eax
000012C8  83C404            add esp,byte +0x4
000012CB  EB3A              jmp short 0x1307
000012CD  813DB0300010FF00  cmp dword [0x100030b0],0xff
         -0000
000012D7  7F2E              jg 0x1307
000012D9  833DD01D001000    cmp dword [0x10001dd0],byte +0x0
000012E0  7413              jz 0x12f5
000012E2  83EC0C            sub esp,byte +0xc
000012E5  B800000000        mov eax,0x0
000012EA  88D8              mov al,bl
000012EC  50                push eax
000012ED  E82DEDFFFF        call 0x1f
000012F2  83C410            add esp,byte +0x10
000012F5  A1B0300010        mov eax,[0x100030b0]
000012FA  881C06            mov [esi+eax],bl
000012FD  40                inc eax
000012FE  A3B0300010        mov [0x100030b0],eax
00001303  C6040600          mov byte [esi+eax],0x0
00001307  8D65F4            lea esp,[ebp-0xc]
0000130A  5B                pop ebx
0000130B  5E                pop esi
0000130C  5F                pop edi
0000130D  5D                pop ebp
0000130E  C3                ret
0000130F  55                push ebp
00001310  89E5              mov ebp,esp
00001312  83EC14            sub esp,byte +0x14
00001315  B800000000        mov eax,0x0
0000131A  8A4508            mov al,[ebp+0x8]
0000131D  50                push eax
0000131E  E8BCFCFFFF        call 0xfdf
00001323  83C410            add esp,byte +0x10
00001326  C9                leave
00001327  C3                ret
00001328  55                push ebp
00001329  89E5              mov ebp,esp
0000132B  8B4D08            mov ecx,[ebp+0x8]
0000132E  8B01              mov eax,[ecx]
00001330  85C0              test eax,eax
00001332  741A              jz 0x134e
00001334  8B501C            mov edx,[eax+0x1c]
00001337  85D2              test edx,edx
00001339  7507              jnz 0x1342
0000133B  89481C            mov [eax+0x1c],ecx
0000133E  EB2C              jmp short 0x136c
00001340  89C2              mov edx,eax
00001342  8B4218            mov eax,[edx+0x18]
00001345  85C0              test eax,eax
00001347  75F7              jnz 0x1340
00001349  894A18            mov [edx+0x18],ecx
0000134C  EB1E              jmp short 0x136c
0000134E  8B15341E0010      mov edx,[0x10001e34]
00001354  85D2              test edx,edx
00001356  750A              jnz 0x1362
00001358  890D341E0010      mov [0x10001e34],ecx
0000135E  EB0C              jmp short 0x136c
00001360  89C2              mov edx,eax
00001362  8B4218            mov eax,[edx+0x18]
00001365  85C0              test eax,eax
00001367  75F7              jnz 0x1360
00001369  894A18            mov [edx+0x18],ecx
0000136C  5D                pop ebp
0000136D  C3                ret
0000136E  55                push ebp
0000136F  89E5              mov ebp,esp
00001371  56                push esi
00001372  53                push ebx
00001373  8B7508            mov esi,[ebp+0x8]
00001376  8A0E              mov cl,[esi]
00001378  BB00000000        mov ebx,0x0
0000137D  84C9              test cl,cl
0000137F  741E              jz 0x139f
00001381  BB00000000        mov ebx,0x0
00001386  888BF01D0010      mov [ebx+0x10001df0],cl
0000138C  43                inc ebx
0000138D  8A0C1E            mov cl,[esi+ebx]
00001390  84C9              test cl,cl
00001392  0F95C2            setnz dl
00001395  83FB3F            cmp ebx,byte +0x3f
00001398  0F9EC0            setng al
0000139B  84D0              test al,dl
0000139D  75E7              jnz 0x1386
0000139F  C683F01D001000    mov byte [ebx+0x10001df0],0x0
000013A6  83EC0C            sub esp,byte +0xc
000013A9  6A0D              push byte +0xd
000013AB  E85FFFFFFF        call 0x130f
000013B0  83C410            add esp,byte +0x10
000013B3  8D65F8            lea esp,[ebp-0x8]
000013B6  5B                pop ebx
000013B7  5E                pop esi
000013B8  5D                pop ebp
000013B9  C3                ret
000013BA  55                push ebp
000013BB  89E5              mov ebp,esp
000013BD  A1D0300010        mov eax,[0x100030d0]
000013C2  5D                pop ebp
000013C3  C3                ret
000013C4  55                push ebp
000013C5  89E5              mov ebp,esp
000013C7  56                push esi
000013C8  53                push ebx
000013C9  8B5508            mov edx,[ebp+0x8]
000013CC  8A02              mov al,[edx]
000013CE  84C0              test al,al
000013D0  7475              jz 0x1447
000013D2  3C30              cmp al,0x30
000013D4  7578              jnz 0x144e
000013D6  BE00000000        mov esi,0x0
000013DB  807A0178          cmp byte [edx+0x1],0x78
000013DF  7508              jnz 0x13e9
000013E1  83C202            add edx,byte +0x2
000013E4  BE01000000        mov esi,0x1
000013E9  8A0A              mov cl,[edx]
000013EB  84C9              test cl,cl
000013ED  7458              jz 0x1447
000013EF  89D3              mov ebx,edx
000013F1  BA00000000        mov edx,0x0
000013F6  85F6              test esi,esi
000013F8  7405              jz 0x13ff
000013FA  C1E204            shl edx,0x4
000013FD  EB06              jmp short 0x1405
000013FF  8D0492            lea eax,[edx+edx*4]
00001402  8D1400            lea edx,[eax+eax]
00001405  8D41D0            lea eax,[ecx-0x30]
00001408  3C09              cmp al,0x9
0000140A  7709              ja 0x1415
0000140C  0FBEC1            movsx eax,cl
0000140F  8D5402D0          lea edx,[edx+eax-0x30]
00001413  EB28              jmp short 0x143d
00001415  85F6              test esi,esi
00001417  743E              jz 0x1457
00001419  80F960            cmp cl,0x60
0000141C  7E0E              jng 0x142c
0000141E  80F966            cmp cl,0x66
00001421  7F34              jg 0x1457
00001423  0FBEC1            movsx eax,cl
00001426  8D5402A9          lea edx,[edx+eax-0x57]
0000142A  EB11              jmp short 0x143d
0000142C  80F940            cmp cl,0x40
0000142F  7E26              jng 0x1457
00001431  80F946            cmp cl,0x46
00001434  7F21              jg 0x1457
00001436  0FBEC1            movsx eax,cl
00001439  8D5402C9          lea edx,[edx+eax-0x37]
0000143D  8A4B01            mov cl,[ebx+0x1]
00001440  43                inc ebx
00001441  84C9              test cl,cl
00001443  7412              jz 0x1457
00001445  EBAF              jmp short 0x13f6
00001447  BA00000000        mov edx,0x0
0000144C  EB09              jmp short 0x1457
0000144E  8A0A              mov cl,[edx]
00001450  BE00000000        mov esi,0x0
00001455  EB98              jmp short 0x13ef
00001457  89D0              mov eax,edx
00001459  5B                pop ebx
0000145A  5E                pop esi
0000145B  5D                pop ebp
0000145C  C3                ret
0000145D  90                nop
0000145E  90                nop
0000145F  90                nop
00001460  55                push ebp
00001461  89E5              mov ebp,esp
00001463  53                push ebx
00001464  8B5D08            mov ebx,[ebp+0x8]
00001467  8B4D0C            mov ecx,[ebp+0xc]
0000146A  B8FFFFFFFF        mov eax,0xffffffff
0000146F  85DB              test ebx,ebx
00001471  7407              jz 0x147a
00001473  B800000000        mov eax,0x0
00001478  CD30              int 0x30
0000147A  5B                pop ebx
0000147B  5D                pop ebp
0000147C  C3                ret
0000147D  55                push ebp
0000147E  89E5              mov ebp,esp
00001480  53                push ebx
00001481  8B5D08            mov ebx,[ebp+0x8]
00001484  B8FFFFFFFF        mov eax,0xffffffff
00001489  85DB              test ebx,ebx
0000148B  7807              js 0x1494
0000148D  B801000000        mov eax,0x1
00001492  CD30              int 0x30
00001494  5B                pop ebx
00001495  5D                pop ebp
00001496  C3                ret
00001497  55                push ebp
00001498  89E5              mov ebp,esp
0000149A  56                push esi
0000149B  53                push ebx
0000149C  8B5D08            mov ebx,[ebp+0x8]
0000149F  8B4D0C            mov ecx,[ebp+0xc]
000014A2  89DA              mov edx,ebx
000014A4  C1EA1F            shr edx,0x1f
000014A7  85C9              test ecx,ecx
000014A9  0F94C0            setz al
000014AC  BEFFFFFFFF        mov esi,0xffffffff
000014B1  08D0              or al,dl
000014B3  750E              jnz 0x14c3
000014B5  BE02000000        mov esi,0x2
000014BA  89F0              mov eax,esi
000014BC  8B5510            mov edx,[ebp+0x10]
000014BF  CD30              int 0x30
000014C1  89C6              mov esi,eax
000014C3  89F0              mov eax,esi
000014C5  5B                pop ebx
000014C6  5E                pop esi
000014C7  5D                pop ebp
000014C8  C3                ret
000014C9  55                push ebp
000014CA  89E5              mov ebp,esp
000014CC  56                push esi
000014CD  53                push ebx
000014CE  8B5D08            mov ebx,[ebp+0x8]
000014D1  8B4D0C            mov ecx,[ebp+0xc]
000014D4  89DA              mov edx,ebx
000014D6  C1EA1F            shr edx,0x1f
000014D9  85C9              test ecx,ecx
000014DB  0F94C0            setz al
000014DE  BEFFFFFFFF        mov esi,0xffffffff
000014E3  08D0              or al,dl
000014E5  750E              jnz 0x14f5
000014E7  BE03000000        mov esi,0x3
000014EC  89F0              mov eax,esi
000014EE  8B5510            mov edx,[ebp+0x10]
000014F1  CD30              int 0x30
000014F3  89C6              mov esi,eax
000014F5  89F0              mov eax,esi
000014F7  5B                pop ebx
000014F8  5E                pop esi
000014F9  5D                pop ebp
000014FA  C3                ret
000014FB  55                push ebp
000014FC  89E5              mov ebp,esp
000014FE  53                push ebx
000014FF  8B5D08            mov ebx,[ebp+0x8]
00001502  8B4D0C            mov ecx,[ebp+0xc]
00001505  8A5510            mov dl,[ebp+0x10]
00001508  B8FFFFFFFF        mov eax,0xffffffff
0000150D  85DB              test ebx,ebx
0000150F  7807              js 0x1518
00001511  B804000000        mov eax,0x4
00001516  CD30              int 0x30
00001518  5B                pop ebx
00001519  5D                pop ebp
0000151A  C3                ret
0000151B  55                push ebp
0000151C  89E5              mov ebp,esp
0000151E  53                push ebx
0000151F  8B5D08            mov ebx,[ebp+0x8]
00001522  8B4D0C            mov ecx,[ebp+0xc]
00001525  8B5510            mov edx,[ebp+0x10]
00001528  B8FFFFFFFF        mov eax,0xffffffff
0000152D  85DB              test ebx,ebx
0000152F  7807              js 0x1538
00001531  B805000000        mov eax,0x5
00001536  CD30              int 0x30
00001538  5B                pop ebx
00001539  5D                pop ebp
0000153A  C3                ret
0000153B  55                push ebp
0000153C  89E5              mov ebp,esp
0000153E  53                push ebx
0000153F  8B5D08            mov ebx,[ebp+0x8]
00001542  B8FFFFFFFF        mov eax,0xffffffff
00001547  85DB              test ebx,ebx
00001549  7407              jz 0x1552
0000154B  B808000000        mov eax,0x8
00001550  CD30              int 0x30
00001552  5B                pop ebx
00001553  5D                pop ebp
00001554  C3                ret
00001555  55                push ebp
00001556  89E5              mov ebp,esp
00001558  53                push ebx
00001559  8B5D08            mov ebx,[ebp+0x8]
0000155C  B8FFFFFFFF        mov eax,0xffffffff
00001561  85DB              test ebx,ebx
00001563  7407              jz 0x156c
00001565  B809000000        mov eax,0x9
0000156A  CD30              int 0x30
0000156C  5B                pop ebx
0000156D  5D                pop ebp
0000156E  C3                ret
0000156F  55                push ebp
00001570  89E5              mov ebp,esp
00001572  56                push esi
00001573  53                push ebx
00001574  8B5D08            mov ebx,[ebp+0x8]
00001577  8B4D0C            mov ecx,[ebp+0xc]
0000157A  85DB              test ebx,ebx
0000157C  0F94C2            setz dl
0000157F  85C9              test ecx,ecx
00001581  0F94C0            setz al
00001584  BEFFFFFFFF        mov esi,0xffffffff
00001589  08C2              or dl,al
0000158B  750B              jnz 0x1598
0000158D  BA0A000000        mov edx,0xa
00001592  89D0              mov eax,edx
00001594  CD30              int 0x30
00001596  89C6              mov esi,eax
00001598  89F0              mov eax,esi
0000159A  5B                pop ebx
0000159B  5E                pop esi
0000159C  5D                pop ebp
0000159D  C3                ret
0000159E  55                push ebp
0000159F  89E5              mov ebp,esp
000015A1  56                push esi
000015A2  53                push ebx
000015A3  8B5D08            mov ebx,[ebp+0x8]
000015A6  8B4D0C            mov ecx,[ebp+0xc]
000015A9  85DB              test ebx,ebx
000015AB  0F94C2            setz dl
000015AE  85C9              test ecx,ecx
000015B0  0F94C0            setz al
000015B3  BEFFFFFFFF        mov esi,0xffffffff
000015B8  08C2              or dl,al
000015BA  750B              jnz 0x15c7
000015BC  BA0B000000        mov edx,0xb
000015C1  89D0              mov eax,edx
000015C3  CD30              int 0x30
000015C5  89C6              mov esi,eax
000015C7  89F0              mov eax,esi
000015C9  5B                pop ebx
000015CA  5E                pop esi
000015CB  5D                pop ebp
000015CC  C3                ret
000015CD  55                push ebp
000015CE  89E5              mov ebp,esp
000015D0  53                push ebx
000015D1  8B5D08            mov ebx,[ebp+0x8]
000015D4  B800000000        mov eax,0x0
000015D9  85DB              test ebx,ebx
000015DB  7407              jz 0x15e4
000015DD  B80C000000        mov eax,0xc
000015E2  CD30              int 0x30
000015E4  5B                pop ebx
000015E5  5D                pop ebp
000015E6  C3                ret
000015E7  55                push ebp
000015E8  89E5              mov ebp,esp
000015EA  56                push esi
000015EB  53                push ebx
000015EC  8B5D08            mov ebx,[ebp+0x8]
000015EF  8B4D0C            mov ecx,[ebp+0xc]
000015F2  85DB              test ebx,ebx
000015F4  0F94C2            setz dl
000015F7  85C9              test ecx,ecx
000015F9  0F94C0            setz al
000015FC  BEFFFFFFFF        mov esi,0xffffffff
00001601  08C2              or dl,al
00001603  750E              jnz 0x1613
00001605  BE06000000        mov esi,0x6
0000160A  89F0              mov eax,esi
0000160C  8B5510            mov edx,[ebp+0x10]
0000160F  CD30              int 0x30
00001611  89C6              mov esi,eax
00001613  89F0              mov eax,esi
00001615  5B                pop ebx
00001616  5E                pop esi
00001617  5D                pop ebp
00001618  C3                ret
00001619  55                push ebp
0000161A  89E5              mov ebp,esp
0000161C  53                push ebx
0000161D  8B5D08            mov ebx,[ebp+0x8]
00001620  B8FFFFFFFF        mov eax,0xffffffff
00001625  85DB              test ebx,ebx
00001627  7407              jz 0x1630
00001629  B807000000        mov eax,0x7
0000162E  CD30              int 0x30
00001630  5B                pop ebx
00001631  5D                pop ebp
00001632  C3                ret
00001633  55                push ebp
00001634  89E5              mov ebp,esp
00001636  53                push ebx
00001637  8B5D08            mov ebx,[ebp+0x8]
0000163A  B800000000        mov eax,0x0
0000163F  85DB              test ebx,ebx
00001641  7407              jz 0x164a
00001643  B807000000        mov eax,0x7
00001648  CD30              int 0x30
0000164A  5B                pop ebx
0000164B  5D                pop ebp
0000164C  C3                ret
0000164D  55                push ebp
0000164E  89E5              mov ebp,esp
00001650  B813000000        mov eax,0x13
00001655  CD30              int 0x30
00001657  5D                pop ebp
00001658  C3                ret
00001659  90                nop
0000165A  90                nop
0000165B  90                nop
0000165C  90                nop
0000165D  90                nop
0000165E  90                nop
0000165F  90                nop
00001660  55                push ebp
00001661  89E5              mov ebp,esp
00001663  56                push esi
00001664  53                push ebx
00001665  81EC00010000      sub esp,0x100
0000166B  8B4D0C            mov ecx,[ebp+0xc]
0000166E  89CA              mov edx,ecx
00001670  C1EA09            shr edx,0x9
00001673  B8834B0400        mov eax,0x44b83
00001678  F7E2              mul edx
0000167A  C1EA07            shr edx,0x7
0000167D  85D2              test edx,edx
0000167F  740C              jz 0x168d
00001681  BB00CA9A3B        mov ebx,0x3b9aca00
00001686  BE00000000        mov esi,0x0
0000168B  EB3A              jmp short 0x16c7
0000168D  BB00CA9A3B        mov ebx,0x3b9aca00
00001692  BECDCCCCCC        mov esi,0xcccccccd
00001697  89D8              mov eax,ebx
00001699  F7E6              mul esi
0000169B  89D3              mov ebx,edx
0000169D  C1EB03            shr ebx,0x3
000016A0  89C8              mov eax,ecx
000016A2  BA00000000        mov edx,0x0
000016A7  F7F3              div ebx
000016A9  85C0              test eax,eax
000016AB  0F94C2            setz dl
000016AE  83FB09            cmp ebx,byte +0x9
000016B1  0F97C0            seta al
000016B4  84D0              test al,dl
000016B6  75DF              jnz 0x1697
000016B8  BE00000000        mov esi,0x0
000016BD  83FB09            cmp ebx,byte +0x9
000016C0  762E              jna 0x16f0
000016C2  BE00000000        mov esi,0x0
000016C7  89C8              mov eax,ecx
000016C9  BA00000000        mov edx,0x0
000016CE  F7F3              div ebx
000016D0  83C030            add eax,byte +0x30
000016D3  888435F9FEFFFF    mov [ebp+esi+0xfffffef9],al
000016DA  46                inc esi
000016DB  89D1              mov ecx,edx
000016DD  BACDCCCCCC        mov edx,0xcccccccd
000016E2  89D8              mov eax,ebx
000016E4  F7E2              mul edx
000016E6  89D3              mov ebx,edx
000016E8  C1EB03            shr ebx,0x3
000016EB  83FB09            cmp ebx,byte +0x9
000016EE  77D7              ja 0x16c7
000016F0  8D4130            lea eax,[ecx+0x30]
000016F3  888435F9FEFFFF    mov [ebp+esi+0xfffffef9],al
000016FA  C68435FAFEFFFF00  mov byte [ebp+esi+0xfffffefa],0x0
00001702  83EC0C            sub esp,byte +0xc
00001705  8D9DF9FEFFFF      lea ebx,[ebp+0xfffffef9]
0000170B  53                push ebx
0000170C  E83F030000        call 0x1a50
00001711  83C40C            add esp,byte +0xc
00001714  50                push eax
00001715  53                push ebx
00001716  FF7508            push dword [ebp+0x8]
00001719  E8ABFDFFFF        call 0x14c9
0000171E  83C410            add esp,byte +0x10
00001721  8D65F8            lea esp,[ebp-0x8]
00001724  5B                pop ebx
00001725  5E                pop esi
00001726  5D                pop ebp
00001727  C3                ret
00001728  2D005589E5        sub eax,0xe5895500
0000172D  56                push esi
0000172E  53                push ebx
0000172F  8B7508            mov esi,[ebp+0x8]
00001732  8B5D0C            mov ebx,[ebp+0xc]
00001735  85DB              test ebx,ebx
00001737  780F              js 0x1748
00001739  83EC08            sub esp,byte +0x8
0000173C  53                push ebx
0000173D  56                push esi
0000173E  E81DFFFFFF        call 0x1660
00001743  83C410            add esp,byte +0x10
00001746  EB21              jmp short 0x1769
00001748  83EC04            sub esp,byte +0x4
0000174B  6A01              push byte +0x1
0000174D  6828170010        push dword 0x10001728
00001752  56                push esi
00001753  E871FDFFFF        call 0x14c9
00001758  83C408            add esp,byte +0x8
0000175B  89D8              mov eax,ebx
0000175D  F7D8              neg eax
0000175F  50                push eax
00001760  56                push esi
00001761  E8FAFEFFFF        call 0x1660
00001766  83C410            add esp,byte +0x10
00001769  8D65F8            lea esp,[ebp-0x8]
0000176C  5B                pop ebx
0000176D  5E                pop esi
0000176E  5D                pop ebp
0000176F  C3                ret
00001770  3031              xor [ecx],dh
00001772  3233              xor dh,[ebx]
00001774  3435              xor al,0x35
00001776  3637              ss aaa
00001778  3839              cmp [ecx],bh
0000177A  41                inc ecx
0000177B  42                inc edx
0000177C  43                inc ebx
0000177D  44                inc esp
0000177E  45                inc ebp
0000177F  46                inc esi
00001780  3000              xor [eax],al
00001782  7800              js 0x1784
00001784  55                push ebp
00001785  89E5              mov ebp,esp
00001787  57                push edi
00001788  56                push esi
00001789  53                push ebx
0000178A  83EC10            sub esp,byte +0x10
0000178D  8B7D08            mov edi,[ebp+0x8]
00001790  8B5D0C            mov ebx,[ebp+0xc]
00001793  6A01              push byte +0x1
00001795  6880170010        push dword 0x10001780
0000179A  57                push edi
0000179B  E829FDFFFF        call 0x14c9
000017A0  83C40C            add esp,byte +0xc
000017A3  6A01              push byte +0x1
000017A5  6882170010        push dword 0x10001782
000017AA  57                push edi
000017AB  E819FDFFFF        call 0x14c9
000017B0  89D8              mov eax,ebx
000017B2  C1E81C            shr eax,0x1c
000017B5  83C410            add esp,byte +0x10
000017B8  BE00000010        mov esi,0x10000000
000017BD  85C0              test eax,eax
000017BF  7404              jz 0x17c5
000017C1  89D8              mov eax,ebx
000017C3  EB24              jmp short 0x17e9
000017C5  C1EE04            shr esi,0x4
000017C8  89D8              mov eax,ebx
000017CA  BA00000000        mov edx,0x0
000017CF  F7F6              div esi
000017D1  85C0              test eax,eax
000017D3  0F94C2            setz dl
000017D6  83FE0F            cmp esi,byte +0xf
000017D9  0F97C0            seta al
000017DC  84D0              test al,dl
000017DE  75E5              jnz 0x17c5
000017E0  89D8              mov eax,ebx
000017E2  83FE0E            cmp esi,byte +0xe
000017E5  7629              jna 0x1810
000017E7  89D8              mov eax,ebx
000017E9  83EC04            sub esp,byte +0x4
000017EC  6A01              push byte +0x1
000017EE  BA00000000        mov edx,0x0
000017F3  F7F6              div esi
000017F5  89D3              mov ebx,edx
000017F7  0570170010        add eax,0x10001770
000017FC  50                push eax
000017FD  57                push edi
000017FE  E8C6FCFFFF        call 0x14c9
00001803  89D8              mov eax,ebx
00001805  C1EE04            shr esi,0x4
00001808  83C410            add esp,byte +0x10
0000180B  83FE0E            cmp esi,byte +0xe
0000180E  77D9              ja 0x17e9
00001810  83EC04            sub esp,byte +0x4
00001813  6A01              push byte +0x1
00001815  0570170010        add eax,0x10001770
0000181A  50                push eax
0000181B  57                push edi
0000181C  E8A8FCFFFF        call 0x14c9
00001821  83C410            add esp,byte +0x10
00001824  8D65F4            lea esp,[ebp-0xc]
00001827  5B                pop ebx
00001828  5E                pop esi
00001829  5F                pop edi
0000182A  5D                pop ebp
0000182B  C3                ret
0000182C  55                push ebp
0000182D  89E5              mov ebp,esp
0000182F  57                push edi
00001830  56                push esi
00001831  53                push ebx
00001832  83EC1C            sub esp,byte +0x1c
00001835  8B5D0C            mov ebx,[ebp+0xc]
00001838  8B7510            mov esi,[ebp+0x10]
0000183B  837D0800          cmp dword [ebp+0x8],byte +0x0
0000183F  0F897A010000      jns near 0x19bf
00001845  E97F010000        jmp 0x19c9
0000184A  89DA              mov edx,ebx
0000184C  BF00000000        mov edi,0x0
00001851  3C25              cmp al,0x25
00001853  0F8546010000      jnz near 0x199f
00001859  47                inc edi
0000185A  8D143B            lea edx,[ebx+edi]
0000185D  0FBE02            movsx eax,byte [edx]
00001860  83E863            sub eax,byte +0x63
00001863  83F815            cmp eax,byte +0x15
00001866  0F8720010000      ja near 0x198c
0000186C  FF248574180010    jmp near [eax*4+0x10001874]
00001873  90                nop
00001874  FA                cli
00001875  1800              sbb [eax],al
00001877  1020              adc [eax],ah
00001879  1900              sbb [eax],eax
0000187B  108C1900108C19    adc [ecx+ebx+0x198c1000],cl
00001882  0010              add [eax],dl
00001884  8C19              mov [ecx],ds
00001886  0010              add [eax],dl
00001888  8C19              mov [ecx],ds
0000188A  0010              add [eax],dl
0000188C  3B19              cmp ebx,[ecx]
0000188E  0010              add [eax],dl
00001890  8C19              mov [ecx],ds
00001892  0010              add [eax],dl
00001894  8C19              mov [ecx],ds
00001896  0010              add [eax],dl
00001898  8C19              mov [ecx],ds
0000189A  0010              add [eax],dl
0000189C  8C19              mov [ecx],ds
0000189E  0010              add [eax],dl
000018A0  8C19              mov [ecx],ds
000018A2  0010              add [eax],dl
000018A4  8C19              mov [ecx],ds
000018A6  0010              add [eax],dl
000018A8  8C19              mov [ecx],ds
000018AA  0010              add [eax],dl
000018AC  8C19              mov [ecx],ds
000018AE  0010              add [eax],dl
000018B0  8C19              mov [ecx],ds
000018B2  0010              add [eax],dl
000018B4  CC                int3
000018B5  1800              sbb [eax],al
000018B7  108C1900105619    adc [ecx+ebx+0x19561000],cl
000018BE  0010              add [eax],dl
000018C0  8C19              mov [ecx],ds
000018C2  0010              add [eax],dl
000018C4  8C19              mov [ecx],ds
000018C6  0010              add [eax],dl
000018C8  7119              jno 0x18e3
000018CA  0010              add [eax],dl
000018CC  8D4604            lea eax,[esi+0x4]
000018CF  8945F0            mov [ebp-0x10],eax
000018D2  8B36              mov esi,[esi]
000018D4  8975D8            mov [ebp-0x28],esi
000018D7  83EC0C            sub esp,byte +0xc
000018DA  56                push esi
000018DB  E870010000        call 0x1a50
000018E0  83C40C            add esp,byte +0xc
000018E3  50                push eax
000018E4  FF75D8            push dword [ebp-0x28]
000018E7  FF7508            push dword [ebp+0x8]
000018EA  E8DAFBFFFF        call 0x14c9
000018EF  8B75F0            mov esi,[ebp-0x10]
000018F2  83C410            add esp,byte +0x10
000018F5  E9B6000000        jmp 0x19b0
000018FA  8D4604            lea eax,[esi+0x4]
000018FD  8945EC            mov [ebp-0x14],eax
00001900  83EC04            sub esp,byte +0x4
00001903  6A01              push byte +0x1
00001905  B800000000        mov eax,0x0
0000190A  8A06              mov al,[esi]
0000190C  50                push eax
0000190D  FF7508            push dword [ebp+0x8]
00001910  E8B4FBFFFF        call 0x14c9
00001915  8B75EC            mov esi,[ebp-0x14]
00001918  83C410            add esp,byte +0x10
0000191B  E990000000        jmp 0x19b0
00001920  8D4604            lea eax,[esi+0x4]
00001923  8945E8            mov [ebp-0x18],eax
00001926  83EC08            sub esp,byte +0x8
00001929  FF36              push dword [esi]
0000192B  FF7508            push dword [ebp+0x8]
0000192E  E8F7FDFFFF        call 0x172a
00001933  8B75E8            mov esi,[ebp-0x18]
00001936  83C410            add esp,byte +0x10
00001939  EB75              jmp short 0x19b0
0000193B  8D4604            lea eax,[esi+0x4]
0000193E  8945E4            mov [ebp-0x1c],eax
00001941  83EC08            sub esp,byte +0x8
00001944  FF36              push dword [esi]
00001946  FF7508            push dword [ebp+0x8]
00001949  E8DCFDFFFF        call 0x172a
0000194E  8B75E4            mov esi,[ebp-0x1c]
00001951  83C410            add esp,byte +0x10
00001954  EB5A              jmp short 0x19b0
00001956  8D4604            lea eax,[esi+0x4]
00001959  8945E0            mov [ebp-0x20],eax
0000195C  83EC08            sub esp,byte +0x8
0000195F  FF36              push dword [esi]
00001961  FF7508            push dword [ebp+0x8]
00001964  E8F7FCFFFF        call 0x1660
00001969  8B75E0            mov esi,[ebp-0x20]
0000196C  83C410            add esp,byte +0x10
0000196F  EB3F              jmp short 0x19b0
00001971  8D4604            lea eax,[esi+0x4]
00001974  8945DC            mov [ebp-0x24],eax
00001977  83EC08            sub esp,byte +0x8
0000197A  FF36              push dword [esi]
0000197C  FF7508            push dword [ebp+0x8]
0000197F  E800FEFFFF        call 0x1784
00001984  8B75DC            mov esi,[ebp-0x24]
00001987  83C410            add esp,byte +0x10
0000198A  EB24              jmp short 0x19b0
0000198C  83EC04            sub esp,byte +0x4
0000198F  6A01              push byte +0x1
00001991  52                push edx
00001992  FF7508            push dword [ebp+0x8]
00001995  E82FFBFFFF        call 0x14c9
0000199A  83C410            add esp,byte +0x10
0000199D  EB11              jmp short 0x19b0
0000199F  83EC04            sub esp,byte +0x4
000019A2  6A01              push byte +0x1
000019A4  52                push edx
000019A5  FF7508            push dword [ebp+0x8]
000019A8  E81CFBFFFF        call 0x14c9
000019AD  83C410            add esp,byte +0x10
000019B0  47                inc edi
000019B1  8D143B            lea edx,[ebx+edi]
000019B4  8A02              mov al,[edx]
000019B6  84C0              test al,al
000019B8  740F              jz 0x19c9
000019BA  E992FEFFFF        jmp 0x1851
000019BF  8A03              mov al,[ebx]
000019C1  84C0              test al,al
000019C3  0F8581FEFFFF      jnz near 0x184a
000019C9  8D65F4            lea esp,[ebp-0xc]
000019CC  5B                pop ebx
000019CD  5E                pop esi
000019CE  5F                pop edi
000019CF  5D                pop ebp
000019D0  C3                ret
000019D1  55                push ebp
000019D2  89E5              mov ebp,esp
000019D4  83EC0C            sub esp,byte +0xc
000019D7  8D450C            lea eax,[ebp+0xc]
000019DA  50                push eax
000019DB  FF7508            push dword [ebp+0x8]
000019DE  6A00              push byte +0x0
000019E0  E847FEFFFF        call 0x182c
000019E5  83C410            add esp,byte +0x10
000019E8  C9                leave
000019E9  C3                ret
000019EA  55                push ebp
000019EB  89E5              mov ebp,esp
000019ED  56                push esi
000019EE  53                push ebx
000019EF  8B7508            mov esi,[ebp+0x8]
000019F2  83EC04            sub esp,byte +0x4
000019F5  6A01              push byte +0x1
000019F7  6A04              push byte +0x4
000019F9  6A00              push byte +0x0
000019FB  E81BFBFFFF        call 0x151b
00001A00  83C40C            add esp,byte +0xc
00001A03  6A0A              push byte +0xa
00001A05  6A03              push byte +0x3
00001A07  6A00              push byte +0x0
00001A09  E80DFBFFFF        call 0x151b
00001A0E  83C40C            add esp,byte +0xc
00001A11  FF750C            push dword [ebp+0xc]
00001A14  56                push esi
00001A15  6A00              push byte +0x0
00001A17  E87BFAFFFF        call 0x1497
00001A1C  89C3              mov ebx,eax
00001A1E  83C40C            add esp,byte +0xc
00001A21  6A00              push byte +0x0
00001A23  6A04              push byte +0x4
00001A25  6A00              push byte +0x0
00001A27  E8EFFAFFFF        call 0x151b
00001A2C  83C410            add esp,byte +0x10
00001A2F  83FBFF            cmp ebx,byte -0x1
00001A32  7404              jz 0x1a38
00001A34  C6041E00          mov byte [esi+ebx],0x0
00001A38  89D8              mov eax,ebx
00001A3A  8D65F8            lea esp,[ebp-0x8]
00001A3D  5B                pop ebx
00001A3E  5E                pop esi
00001A3F  5D                pop ebp
00001A40  C3                ret
00001A41  90                nop
00001A42  90                nop
00001A43  90                nop
00001A44  90                nop
00001A45  90                nop
00001A46  90                nop
00001A47  90                nop
00001A48  90                nop
00001A49  90                nop
00001A4A  90                nop
00001A4B  90                nop
00001A4C  90                nop
00001A4D  90                nop
00001A4E  90                nop
00001A4F  90                nop
00001A50  55                push ebp
00001A51  89E5              mov ebp,esp
00001A53  8B5508            mov edx,[ebp+0x8]
00001A56  89D0              mov eax,edx
00001A58  803A00            cmp byte [edx],0x0
00001A5B  7408              jz 0x1a65
00001A5D  89D0              mov eax,edx
00001A5F  40                inc eax
00001A60  803800            cmp byte [eax],0x0
00001A63  75FA              jnz 0x1a5f
00001A65  29D0              sub eax,edx
00001A67  5D                pop ebp
00001A68  C3                ret
00001A69  55                push ebp
00001A6A  89E5              mov ebp,esp
00001A6C  53                push ebx
00001A6D  8B5D08            mov ebx,[ebp+0x8]
00001A70  53                push ebx
00001A71  E8DAFFFFFF        call 0x1a50
00001A76  8D0403            lea eax,[ebx+eax]
00001A79  83C404            add esp,byte +0x4
00001A7C  8A550C            mov dl,[ebp+0xc]
00001A7F  3810              cmp [eax],dl
00001A81  740A              jz 0x1a8d
00001A83  48                dec eax
00001A84  39C3              cmp ebx,eax
00001A86  76F4              jna 0x1a7c
00001A88  B800000000        mov eax,0x0
00001A8D  8B5DFC            mov ebx,[ebp-0x4]
00001A90  C9                leave
00001A91  C3                ret
00001A92  55                push ebp
00001A93  89E5              mov ebp,esp
00001A95  53                push ebx
00001A96  8B4D08            mov ecx,[ebp+0x8]
00001A99  8B550C            mov edx,[ebp+0xc]
00001A9C  8A01              mov al,[ecx]
00001A9E  88C3              mov bl,al
00001AA0  2A1A              sub bl,[edx]
00001AA2  42                inc edx
00001AA3  84DB              test bl,bl
00001AA5  7505              jnz 0x1aac
00001AA7  41                inc ecx
00001AA8  84C0              test al,al
00001AAA  75F0              jnz 0x1a9c
00001AAC  0FBEC3            movsx eax,bl
00001AAF  5B                pop ebx
00001AB0  5D                pop ebp
00001AB1  C3                ret
00001AB2  55                push ebp
00001AB3  89E5              mov ebp,esp
00001AB5  57                push edi
00001AB6  56                push esi
00001AB7  53                push ebx
00001AB8  8B5D08            mov ebx,[ebp+0x8]
00001ABB  8B550C            mov edx,[ebp+0xc]
00001ABE  8B7D10            mov edi,[ebp+0x10]
00001AC1  85FF              test edi,edi
00001AC3  751E              jnz 0x1ae3
00001AC5  EB18              jmp short 0x1adf
00001AC7  8A0C1A            mov cl,[edx+ebx]
00001ACA  88C8              mov al,cl
00001ACC  2A0432            sub al,[edx+esi]
00001ACF  84C0              test al,al
00001AD1  7529              jnz 0x1afc
00001AD3  42                inc edx
00001AD4  84C9              test cl,cl
00001AD6  7407              jz 0x1adf
00001AD8  8D47FF            lea eax,[edi-0x1]
00001ADB  39C2              cmp edx,eax
00001ADD  75E8              jnz 0x1ac7
00001ADF  B000              mov al,0x0
00001AE1  EB19              jmp short 0x1afc
00001AE3  8A0B              mov cl,[ebx]
00001AE5  88C8              mov al,cl
00001AE7  2A02              sub al,[edx]
00001AE9  8D7201            lea esi,[edx+0x1]
00001AEC  84C0              test al,al
00001AEE  750C              jnz 0x1afc
00001AF0  43                inc ebx
00001AF1  BA00000000        mov edx,0x0
00001AF6  84C9              test cl,cl
00001AF8  75DE              jnz 0x1ad8
00001AFA  EBE3              jmp short 0x1adf
00001AFC  0FBEC0            movsx eax,al
00001AFF  5B                pop ebx
00001B00  5E                pop esi
00001B01  5F                pop edi
00001B02  5D                pop ebp
00001B03  C3                ret
00001B04  55                push ebp
00001B05  89E5              mov ebp,esp
00001B07  8B4D0C            mov ecx,[ebp+0xc]
00001B0A  8B5508            mov edx,[ebp+0x8]
00001B0D  8A01              mov al,[ecx]
00001B0F  8802              mov [edx],al
00001B11  42                inc edx
00001B12  41                inc ecx
00001B13  84C0              test al,al
00001B15  75F6              jnz 0x1b0d
00001B17  8B4508            mov eax,[ebp+0x8]
00001B1A  5D                pop ebp
00001B1B  C3                ret
00001B1C  55                push ebp
00001B1D  89E5              mov ebp,esp
00001B1F  57                push edi
00001B20  56                push esi
00001B21  53                push ebx
00001B22  8B4D08            mov ecx,[ebp+0x8]
00001B25  8B550C            mov edx,[ebp+0xc]
00001B28  8B5D10            mov ebx,[ebp+0x10]
00001B2B  85DB              test ebx,ebx
00001B2D  7519              jnz 0x1b48
00001B2F  EB25              jmp short 0x1b56
00001B31  BA00000000        mov edx,0x0
00001B36  4B                dec ebx
00001B37  39DA              cmp edx,ebx
00001B39  741B              jz 0x1b56
00001B3B  8A0432            mov al,[edx+esi]
00001B3E  88043A            mov [edx+edi],al
00001B41  42                inc edx
00001B42  84C0              test al,al
00001B44  7410              jz 0x1b56
00001B46  EBEF              jmp short 0x1b37
00001B48  8A02              mov al,[edx]
00001B4A  8801              mov [ecx],al
00001B4C  8D7901            lea edi,[ecx+0x1]
00001B4F  8D7201            lea esi,[edx+0x1]
00001B52  84C0              test al,al
00001B54  75DB              jnz 0x1b31
00001B56  89C8              mov eax,ecx
00001B58  5B                pop ebx
00001B59  5E                pop esi
00001B5A  5F                pop edi
00001B5B  5D                pop ebp
00001B5C  C3                ret
00001B5D  55                push ebp
00001B5E  89E5              mov ebp,esp
00001B60  57                push edi
00001B61  56                push esi
00001B62  53                push ebx
00001B63  83EC0C            sub esp,byte +0xc
00001B66  8B750C            mov esi,[ebp+0xc]
00001B69  56                push esi
00001B6A  E8E1FEFFFF        call 0x1a50
00001B6F  89C3              mov ebx,eax
00001B71  83C404            add esp,byte +0x4
00001B74  85C0              test eax,eax
00001B76  7434              jz 0x1bac
00001B78  FF7508            push dword [ebp+0x8]
00001B7B  E8D0FEFFFF        call 0x1a50
00001B80  89C7              mov edi,eax
00001B82  83C404            add esp,byte +0x4
00001B85  39C3              cmp ebx,eax
00001B87  7F1C              jg 0x1ba5
00001B89  4F                dec edi
00001B8A  83EC04            sub esp,byte +0x4
00001B8D  53                push ebx
00001B8E  56                push esi
00001B8F  FF7508            push dword [ebp+0x8]
00001B92  E86D000000        call 0x1c04
00001B97  83C410            add esp,byte +0x10
00001B9A  85C0              test eax,eax
00001B9C  740E              jz 0x1bac
00001B9E  FF4508            inc dword [ebp+0x8]
00001BA1  39FB              cmp ebx,edi
00001BA3  7EE4              jng 0x1b89
00001BA5  C7450800000000    mov dword [ebp+0x8],0x0
00001BAC  8B4508            mov eax,[ebp+0x8]
00001BAF  8D65F4            lea esp,[ebp-0xc]
00001BB2  5B                pop ebx
00001BB3  5E                pop esi
00001BB4  5F                pop edi
00001BB5  5D                pop ebp
00001BB6  C3                ret
00001BB7  55                push ebp
00001BB8  89E5              mov ebp,esp
00001BBA  56                push esi
00001BBB  53                push ebx
00001BBC  8B5D08            mov ebx,[ebp+0x8]
00001BBF  8A450C            mov al,[ebp+0xc]
00001BC2  8B4D10            mov ecx,[ebp+0x10]
00001BC5  49                dec ecx
00001BC6  83F9FF            cmp ecx,byte -0x1
00001BC9  740D              jz 0x1bd8
00001BCB  89DA              mov edx,ebx
00001BCD  8D4C0B01          lea ecx,[ebx+ecx+0x1]
00001BD1  8802              mov [edx],al
00001BD3  42                inc edx
00001BD4  39D1              cmp ecx,edx
00001BD6  75F9              jnz 0x1bd1
00001BD8  89D8              mov eax,ebx
00001BDA  5B                pop ebx
00001BDB  5E                pop esi
00001BDC  5D                pop ebp
00001BDD  C3                ret
00001BDE  55                push ebp
00001BDF  89E5              mov ebp,esp
00001BE1  53                push ebx
00001BE2  8B5D08            mov ebx,[ebp+0x8]
00001BE5  8B4D0C            mov ecx,[ebp+0xc]
00001BE8  8B4510            mov eax,[ebp+0x10]
00001BEB  48                dec eax
00001BEC  83F8FF            cmp eax,byte -0x1
00001BEF  7410              jz 0x1c01
00001BF1  89DA              mov edx,ebx
00001BF3  8D5C0301          lea ebx,[ebx+eax+0x1]
00001BF7  8A01              mov al,[ecx]
00001BF9  8802              mov [edx],al
00001BFB  42                inc edx
00001BFC  41                inc ecx
00001BFD  39DA              cmp edx,ebx
00001BFF  75F6              jnz 0x1bf7
00001C01  5B                pop ebx
00001C02  5D                pop ebp
00001C03  C3                ret
00001C04  55                push ebp
00001C05  89E5              mov ebp,esp
00001C07  57                push edi
00001C08  56                push esi
00001C09  53                push ebx
00001C0A  8B7D10            mov edi,[ebp+0x10]
00001C0D  8B7508            mov esi,[ebp+0x8]
00001C10  8B5D0C            mov ebx,[ebp+0xc]
00001C13  B100              mov cl,0x0
00001C15  85FF              test edi,edi
00001C17  7E29              jng 0x1c42
00001C19  EB18              jmp short 0x1c33
00001C1B  8A441601          mov al,[esi+edx+0x1]
00001C1F  88C1              mov cl,al
00001C21  2A4C1301          sub cl,[ebx+edx+0x1]
00001C25  42                inc edx
00001C26  84C9              test cl,cl
00001C28  7518              jnz 0x1c42
00001C2A  8D47FF            lea eax,[edi-0x1]
00001C2D  39C2              cmp edx,eax
00001C2F  75EA              jnz 0x1c1b
00001C31  EB0F              jmp short 0x1c42
00001C33  8A06              mov al,[esi]
00001C35  88C1              mov cl,al
00001C37  2A0B              sub cl,[ebx]
00001C39  BA00000000        mov edx,0x0
00001C3E  84C9              test cl,cl
00001C40  74E8              jz 0x1c2a
00001C42  0FBEC1            movsx eax,cl
00001C45  5B                pop ebx
00001C46  5E                pop esi
00001C47  5F                pop edi
00001C48  5D                pop ebp
00001C49  C3                ret
00001C4A  90                nop
00001C4B  90                nop
00001C4C  90                nop
00001C4D  90                nop
00001C4E  90                nop
00001C4F  90                nop
00001C50  0000              add [eax],al
00001C52  0000              add [eax],al
00001C54  51                push ecx
00001C55  0200              add al,[eax]
00001C57  105602            adc [esi+0x2],dl
00001C5A  0010              add [eax],dl
00001C5C  0000              add [eax],al
00001C5E  0000              add [eax],al
00001C60  98                cwde
00001C61  0000              add [eax],al
00001C63  1000              adc [eax],al
00001C65  0000              add [eax],al
00001C67  0000              add [eax],al
00001C69  0000              add [eax],al
00001C6B  0000              add [eax],al
00001C6D  0000              add [eax],al
00001C6F  0000              add [eax],al
00001C71  0000              add [eax],al
00001C73  006502            add [ebp+0x2],ah
00001C76  0010              add [eax],dl
00001C78  6C                insb
00001C79  0200              add al,[eax]
00001C7B  107A02            adc [edx+0x2],bh
00001C7E  0010              add [eax],dl
00001C80  B700              mov bh,0x0
00001C82  0010              add [eax],dl
00001C84  0000              add [eax],al
00001C86  0000              add [eax],al
00001C88  0000              add [eax],al
00001C8A  0000              add [eax],al
00001C8C  0000              add [eax],al
00001C8E  0000              add [eax],al
00001C90  0000              add [eax],al
00001C92  0000              add [eax],al
00001C94  810200108802      add dword [edx],0x2881000
00001C9A  0010              add [eax],dl
00001C9C  7A02              jpe 0x1ca0
00001C9E  0010              add [eax],dl
00001CA0  CD00              int 0x0
00001CA2  0010              add [eax],dl
00001CA4  0000              add [eax],al
00001CA6  0000              add [eax],al
00001CA8  0000              add [eax],al
00001CAA  0000              add [eax],al
00001CAC  0000              add [eax],al
00001CAE  0000              add [eax],al
00001CB0  0000              add [eax],al
00001CB2  0000              add [eax],al
00001CB4  96                xchg eax,esi
00001CB5  0200              add al,[eax]
00001CB7  109D020010AC      adc [ebp+0xac100002],bl
00001CBD  0200              add al,[eax]
00001CBF  10E3              adc bl,ah
00001CC1  0000              add [eax],al
00001CC3  1000              adc [eax],al
00001CC5  0000              add [eax],al
00001CC7  0000              add [eax],al
00001CC9  0000              add [eax],al
00001CCB  0000              add [eax],al
00001CCD  0000              add [eax],al
00001CCF  0000              add [eax],al
00001CD1  0000              add [eax],al
00001CD3  00CD              add ch,cl
00001CD5  0200              add al,[eax]
00001CD7  10D2              adc dl,dl
00001CD9  0200              add al,[eax]
00001CDB  10AC020010F900    adc [edx+eax+0xf91000],ch
00001CE2  0010              add [eax],dl
00001CE4  0000              add [eax],al
00001CE6  0000              add [eax],al
00001CE8  0000              add [eax],al
00001CEA  0000              add [eax],al
00001CEC  0000              add [eax],al
00001CEE  0000              add [eax],al
00001CF0  0000              add [eax],al
00001CF2  0000              add [eax],al
00001CF4  DE02              fiadd word [edx]
00001CF6  0010              add [eax],dl
00001CF8  E302              jecxz 0x1cfc
00001CFA  0010              add [eax],dl
00001CFC  FB                sti
00001CFD  0200              add al,[eax]
00001CFF  100F              adc [edi],cl
00001D01  0100              add [eax],eax
00001D03  1000              adc [eax],al
00001D05  0000              add [eax],al
00001D07  0000              add [eax],al
00001D09  0000              add [eax],al
00001D0B  0000              add [eax],al
00001D0D  0000              add [eax],al
00001D0F  0000              add [eax],al
00001D11  0000              add [eax],al
00001D13  0007              add [edi],al
00001D15  0300              add eax,[eax]
00001D17  100A              adc [edx],cl
00001D19  0300              add eax,[eax]
00001D1B  1023              adc [ebx],ah
00001D1D  0300              add eax,[eax]
00001D1F  102501001000      adc [0x100001],ah
00001D25  0000              add [eax],al
00001D27  0000              add [eax],al
00001D29  0000              add [eax],al
00001D2B  0000              add [eax],al
00001D2D  0000              add [eax],al
00001D2F  0000              add [eax],al
00001D31  0000              add [eax],al
00001D33  002F              add [edi],ch
00001D35  0300              add eax,[eax]
00001D37  103503001044      adc [0x44100003],dh
00001D3D  0300              add eax,[eax]
00001D3F  103B              adc [ebx],bh
00001D41  0100              add [eax],eax
00001D43  1000              adc [eax],al
00001D45  0000              add [eax],al
00001D47  0000              add [eax],al
00001D49  0000              add [eax],al
00001D4B  0000              add [eax],al
00001D4D  0000              add [eax],al
00001D4F  0000              add [eax],al
00001D51  0000              add [eax],al
00001D53  006803            add [eax+0x3],ch
00001D56  0010              add [eax],dl
00001D58  7003              jo 0x1d5d
00001D5A  0010              add [eax],dl
00001D5C  810300105101      add dword [ebx],0x1511000
00001D62  0010              add [eax],dl
00001D64  0000              add [eax],al
00001D66  0000              add [eax],al
00001D68  0000              add [eax],al
00001D6A  0000              add [eax],al
00001D6C  0000              add [eax],al
00001D6E  0000              add [eax],al
00001D70  0000              add [eax],al
00001D72  0000              add [eax],al
00001D74  8E03              mov es,[ebx]
00001D76  0010              add [eax],dl
00001D78  94                xchg eax,esp
00001D79  0300              add eax,[eax]
00001D7B  10A4030010A201    adc [ebx+eax+0x1a21000],ah
00001D82  0010              add [eax],dl
00001D84  0000              add [eax],al
00001D86  0000              add [eax],al
00001D88  0000              add [eax],al
00001D8A  0000              add [eax],al
00001D8C  0000              add [eax],al
00001D8E  0000              add [eax],al
00001D90  0000              add [eax],al
00001D92  0000              add [eax],al
00001D94  B103              mov cl,0x3
00001D96  0010              add [eax],dl
00001D98  B603              mov dh,0x3
00001D9A  0010              add [eax],dl
00001D9C  C503              lds eax,[ebx]
00001D9E  0010              add [eax],dl
00001DA0  1F                pop ds
00001DA1  0200              add al,[eax]
00001DA3  1000              adc [eax],al
00001DA5  0000              add [eax],al
00001DA7  0000              add [eax],al
00001DA9  0000              add [eax],al
00001DAB  0000              add [eax],al
00001DAD  0000              add [eax],al
00001DAF  0000              add [eax],al
00001DB1  0000              add [eax],al
00001DB3  00C0              add al,al
00001DB5  050010C505        add eax,0x5c51000
00001DBA  0010              add [eax],dl
00001DBC  D20500101F07      rol byte [0x71f1000],cl
00001DC2  0010              add [eax],dl
00001DC4  0000              add [eax],al
00001DC6  0000              add [eax],al
00001DC8  0000              add [eax],al
00001DCA  0000              add [eax],al
00001DCC  0000              add [eax],al
00001DCE  0000              add [eax],al
00001DD0  0100              add [eax],eax
00001DD2  0000              add [eax],al
00001DD4  0000              add [eax],al
00001DD6  0000              add [eax],al
00001DD8  0000              add [eax],al
00001DDA  0000              add [eax],al
00001DDC  0000              add [eax],al
00001DDE  0000              add [eax],al
00001DE0  0000              add [eax],al
00001DE2  0000              add [eax],al
00001DE4  0000              add [eax],al
00001DE6  0000              add [eax],al
00001DE8  0000              add [eax],al
00001DEA  0000              add [eax],al
00001DEC  0000              add [eax],al
00001DEE  0000              add [eax],al
00001DF0  2420              and al,0x20
00001DF2  0000              add [eax],al
00001DF4  0000              add [eax],al
00001DF6  0000              add [eax],al
00001DF8  0000              add [eax],al
00001DFA  0000              add [eax],al
00001DFC  0000              add [eax],al
00001DFE  0000              add [eax],al
00001E00  0000              add [eax],al
00001E02  0000              add [eax],al
00001E04  0000              add [eax],al
00001E06  0000              add [eax],al
00001E08  0000              add [eax],al
00001E0A  0000              add [eax],al
00001E0C  0000              add [eax],al
00001E0E  0000              add [eax],al
00001E10  0000              add [eax],al
00001E12  0000              add [eax],al
00001E14  0000              add [eax],al
00001E16  0000              add [eax],al
00001E18  0000              add [eax],al
00001E1A  0000              add [eax],al
00001E1C  0000              add [eax],al
00001E1E  0000              add [eax],al
00001E20  0000              add [eax],al
00001E22  0000              add [eax],al
00001E24  0000              add [eax],al
00001E26  0000              add [eax],al
00001E28  0000              add [eax],al
00001E2A  0000              add [eax],al
00001E2C  0000              add [eax],al
00001E2E  0000              add [eax],al
00001E30  0000              add [eax],al
00001E32  0000              add [eax],al
00001E34  B01D              mov al,0x1d
00001E36  0010              add [eax],dl
00001E38  0000              add [eax],al
00001E3A  0000              add [eax],al
00001E3C  0000              add [eax],al
00001E3E  0000              add [eax],al
00001E40  0000              add [eax],al
00001E42  0000              add [eax],al
00001E44  0000              add [eax],al
00001E46  0000              add [eax],al
00001E48  0000              add [eax],al
00001E4A  0000              add [eax],al
00001E4C  0000              add [eax],al
00001E4E  0000              add [eax],al
00001E50  0000              add [eax],al
00001E52  0000              add [eax],al
00001E54  0000              add [eax],al
00001E56  0000              add [eax],al
00001E58  0000              add [eax],al
00001E5A  0000              add [eax],al
00001E5C  0000              add [eax],al
00001E5E  0000              add [eax],al
00001E60  0000              add [eax],al
00001E62  0000              add [eax],al
00001E64  0000              add [eax],al
00001E66  0000              add [eax],al
00001E68  0000              add [eax],al
00001E6A  0000              add [eax],al
00001E6C  0000              add [eax],al
00001E6E  0000              add [eax],al
00001E70  0000              add [eax],al
00001E72  0000              add [eax],al
00001E74  0000              add [eax],al
00001E76  0000              add [eax],al
00001E78  0000              add [eax],al
00001E7A  0000              add [eax],al
00001E7C  0000              add [eax],al
00001E7E  0000              add [eax],al
00001E80  0000              add [eax],al
00001E82  0000              add [eax],al
00001E84  0000              add [eax],al
00001E86  0000              add [eax],al
00001E88  0000              add [eax],al
00001E8A  0000              add [eax],al
00001E8C  0000              add [eax],al
00001E8E  0000              add [eax],al
00001E90  0000              add [eax],al
00001E92  0000              add [eax],al
00001E94  0000              add [eax],al
00001E96  0000              add [eax],al
00001E98  0000              add [eax],al
00001E9A  0000              add [eax],al
00001E9C  0000              add [eax],al
00001E9E  0000              add [eax],al
00001EA0  0000              add [eax],al
00001EA2  0000              add [eax],al
00001EA4  0000              add [eax],al
00001EA6  0000              add [eax],al
00001EA8  0000              add [eax],al
00001EAA  0000              add [eax],al
00001EAC  0000              add [eax],al
00001EAE  0000              add [eax],al
00001EB0  0000              add [eax],al
00001EB2  0000              add [eax],al
00001EB4  0000              add [eax],al
00001EB6  0000              add [eax],al
00001EB8  0000              add [eax],al
00001EBA  0000              add [eax],al
00001EBC  0000              add [eax],al
00001EBE  0000              add [eax],al
00001EC0  0000              add [eax],al
00001EC2  0000              add [eax],al
00001EC4  0000              add [eax],al
00001EC6  0000              add [eax],al
00001EC8  0000              add [eax],al
00001ECA  0000              add [eax],al
00001ECC  0000              add [eax],al
00001ECE  0000              add [eax],al
00001ED0  0000              add [eax],al
00001ED2  0000              add [eax],al
00001ED4  0000              add [eax],al
00001ED6  0000              add [eax],al
00001ED8  0000              add [eax],al
00001EDA  0000              add [eax],al
00001EDC  0000              add [eax],al
00001EDE  0000              add [eax],al
00001EE0  0000              add [eax],al
00001EE2  0000              add [eax],al
00001EE4  0000              add [eax],al
00001EE6  0000              add [eax],al
00001EE8  0000              add [eax],al
00001EEA  0000              add [eax],al
00001EEC  0000              add [eax],al
00001EEE  0000              add [eax],al
00001EF0  0000              add [eax],al
00001EF2  0000              add [eax],al
00001EF4  0000              add [eax],al
00001EF6  0000              add [eax],al
00001EF8  0000              add [eax],al
00001EFA  0000              add [eax],al
00001EFC  0000              add [eax],al
00001EFE  0000              add [eax],al
00001F00  0000              add [eax],al
00001F02  0000              add [eax],al
00001F04  0000              add [eax],al
00001F06  0000              add [eax],al
00001F08  0000              add [eax],al
00001F0A  0000              add [eax],al
00001F0C  0000              add [eax],al
00001F0E  0000              add [eax],al
00001F10  0000              add [eax],al
00001F12  0000              add [eax],al
00001F14  0000              add [eax],al
00001F16  0000              add [eax],al
00001F18  0000              add [eax],al
00001F1A  0000              add [eax],al
00001F1C  0000              add [eax],al
00001F1E  0000              add [eax],al
00001F20  0000              add [eax],al
00001F22  0000              add [eax],al
00001F24  0000              add [eax],al
00001F26  0000              add [eax],al
00001F28  0000              add [eax],al
00001F2A  0000              add [eax],al
00001F2C  0000              add [eax],al
00001F2E  0000              add [eax],al
00001F30  0000              add [eax],al
00001F32  0000              add [eax],al
00001F34  0000              add [eax],al
00001F36  0000              add [eax],al
00001F38  0000              add [eax],al
00001F3A  0000              add [eax],al
00001F3C  0000              add [eax],al
00001F3E  0000              add [eax],al
00001F40  0000              add [eax],al
00001F42  0000              add [eax],al
00001F44  0000              add [eax],al
00001F46  0000              add [eax],al
00001F48  0000              add [eax],al
00001F4A  0000              add [eax],al
00001F4C  0000              add [eax],al
00001F4E  0000              add [eax],al
00001F50  0000              add [eax],al
00001F52  0000              add [eax],al
00001F54  0000              add [eax],al
00001F56  0000              add [eax],al
00001F58  0000              add [eax],al
00001F5A  0000              add [eax],al
00001F5C  0000              add [eax],al
00001F5E  0000              add [eax],al
00001F60  0000              add [eax],al
00001F62  0000              add [eax],al
00001F64  0000              add [eax],al
00001F66  0000              add [eax],al
00001F68  0000              add [eax],al
00001F6A  0000              add [eax],al
00001F6C  0000              add [eax],al
00001F6E  0000              add [eax],al
00001F70  0000              add [eax],al
00001F72  0000              add [eax],al
00001F74  0000              add [eax],al
00001F76  0000              add [eax],al
00001F78  0000              add [eax],al
00001F7A  0000              add [eax],al
00001F7C  0000              add [eax],al
00001F7E  0000              add [eax],al
00001F80  0000              add [eax],al
00001F82  0000              add [eax],al
00001F84  0000              add [eax],al
00001F86  0000              add [eax],al
00001F88  0000              add [eax],al
00001F8A  0000              add [eax],al
00001F8C  0000              add [eax],al
00001F8E  0000              add [eax],al
00001F90  0000              add [eax],al
00001F92  0000              add [eax],al
00001F94  0000              add [eax],al
00001F96  0000              add [eax],al
00001F98  0000              add [eax],al
00001F9A  0000              add [eax],al
00001F9C  0000              add [eax],al
00001F9E  0000              add [eax],al
00001FA0  0000              add [eax],al
00001FA2  0000              add [eax],al
00001FA4  0000              add [eax],al
00001FA6  0000              add [eax],al
00001FA8  0000              add [eax],al
00001FAA  0000              add [eax],al
00001FAC  0000              add [eax],al
00001FAE  0000              add [eax],al
00001FB0  0000              add [eax],al
00001FB2  0000              add [eax],al
00001FB4  0000              add [eax],al
00001FB6  0000              add [eax],al
00001FB8  0000              add [eax],al
00001FBA  0000              add [eax],al
00001FBC  0000              add [eax],al
00001FBE  0000              add [eax],al
00001FC0  0000              add [eax],al
00001FC2  0000              add [eax],al
00001FC4  0000              add [eax],al
00001FC6  0000              add [eax],al
00001FC8  0000              add [eax],al
00001FCA  0000              add [eax],al
00001FCC  0000              add [eax],al
00001FCE  0000              add [eax],al
00001FD0  0000              add [eax],al
00001FD2  0000              add [eax],al
00001FD4  0000              add [eax],al
00001FD6  0000              add [eax],al
00001FD8  0000              add [eax],al
00001FDA  0000              add [eax],al
00001FDC  0000              add [eax],al
00001FDE  0000              add [eax],al
00001FE0  0000              add [eax],al
00001FE2  0000              add [eax],al
00001FE4  0000              add [eax],al
00001FE6  0000              add [eax],al
00001FE8  0000              add [eax],al
00001FEA  0000              add [eax],al
00001FEC  0000              add [eax],al
00001FEE  0000              add [eax],al
00001FF0  0000              add [eax],al
00001FF2  0000              add [eax],al
00001FF4  0000              add [eax],al
00001FF6  0000              add [eax],al
00001FF8  0000              add [eax],al
00001FFA  0000              add [eax],al
00001FFC  0000              add [eax],al
00001FFE  0000              add [eax],al
00002000  0000              add [eax],al
00002002  0000              add [eax],al
00002004  0000              add [eax],al
00002006  0000              add [eax],al
00002008  0000              add [eax],al
0000200A  0000              add [eax],al
0000200C  0000              add [eax],al
0000200E  0000              add [eax],al
00002010  0000              add [eax],al
00002012  0000              add [eax],al
00002014  0000              add [eax],al
00002016  0000              add [eax],al
00002018  0000              add [eax],al
0000201A  0000              add [eax],al
0000201C  0000              add [eax],al
0000201E  0000              add [eax],al
00002020  0000              add [eax],al
00002022  0000              add [eax],al
00002024  0000              add [eax],al
00002026  0000              add [eax],al
00002028  0000              add [eax],al
0000202A  0000              add [eax],al
0000202C  0000              add [eax],al
0000202E  0000              add [eax],al
00002030  0000              add [eax],al
00002032  0000              add [eax],al
00002034  0000              add [eax],al
00002036  0000              add [eax],al
00002038  0000              add [eax],al
0000203A  0000              add [eax],al
0000203C  0000              add [eax],al
0000203E  0000              add [eax],al
00002040  0000              add [eax],al
00002042  0000              add [eax],al
00002044  0000              add [eax],al
00002046  0000              add [eax],al
00002048  0000              add [eax],al
0000204A  0000              add [eax],al
0000204C  0000              add [eax],al
0000204E  0000              add [eax],al
00002050  0000              add [eax],al
00002052  0000              add [eax],al
00002054  0000              add [eax],al
00002056  0000              add [eax],al
00002058  0000              add [eax],al
0000205A  0000              add [eax],al
0000205C  0000              add [eax],al
0000205E  0000              add [eax],al
00002060  0000              add [eax],al
00002062  0000              add [eax],al
00002064  0000              add [eax],al
00002066  0000              add [eax],al
00002068  0000              add [eax],al
0000206A  0000              add [eax],al
0000206C  0000              add [eax],al
0000206E  0000              add [eax],al
00002070  0000              add [eax],al
00002072  0000              add [eax],al
00002074  0000              add [eax],al
00002076  0000              add [eax],al
00002078  0000              add [eax],al
0000207A  0000              add [eax],al
0000207C  0000              add [eax],al
0000207E  0000              add [eax],al
00002080  0000              add [eax],al
00002082  0000              add [eax],al
00002084  0000              add [eax],al
00002086  0000              add [eax],al
00002088  0000              add [eax],al
0000208A  0000              add [eax],al
0000208C  0000              add [eax],al
0000208E  0000              add [eax],al
00002090  0000              add [eax],al
00002092  0000              add [eax],al
00002094  0000              add [eax],al
00002096  0000              add [eax],al
00002098  0000              add [eax],al
0000209A  0000              add [eax],al
0000209C  0000              add [eax],al
0000209E  0000              add [eax],al
000020A0  0000              add [eax],al
000020A2  0000              add [eax],al
000020A4  0000              add [eax],al
000020A6  0000              add [eax],al
000020A8  0000              add [eax],al
000020AA  0000              add [eax],al
000020AC  0000              add [eax],al
000020AE  0000              add [eax],al
000020B0  0000              add [eax],al
000020B2  0000              add [eax],al
000020B4  0000              add [eax],al
000020B6  0000              add [eax],al
000020B8  0000              add [eax],al
000020BA  0000              add [eax],al
000020BC  0000              add [eax],al
000020BE  0000              add [eax],al
000020C0  0000              add [eax],al
000020C2  0000              add [eax],al
000020C4  0000              add [eax],al
000020C6  0000              add [eax],al
000020C8  0000              add [eax],al
000020CA  0000              add [eax],al
000020CC  0000              add [eax],al
000020CE  0000              add [eax],al
000020D0  0000              add [eax],al
000020D2  0000              add [eax],al
000020D4  0000              add [eax],al
000020D6  0000              add [eax],al
000020D8  0000              add [eax],al
000020DA  0000              add [eax],al
000020DC  0000              add [eax],al
000020DE  0000              add [eax],al
000020E0  0000              add [eax],al
000020E2  0000              add [eax],al
000020E4  0000              add [eax],al
000020E6  0000              add [eax],al
000020E8  0000              add [eax],al
000020EA  0000              add [eax],al
000020EC  0000              add [eax],al
000020EE  0000              add [eax],al
000020F0  0000              add [eax],al
000020F2  0000              add [eax],al
000020F4  0000              add [eax],al
000020F6  0000              add [eax],al
000020F8  0000              add [eax],al
000020FA  0000              add [eax],al
000020FC  0000              add [eax],al
000020FE  0000              add [eax],al
00002100  0000              add [eax],al
00002102  0000              add [eax],al
00002104  0000              add [eax],al
00002106  0000              add [eax],al
00002108  0000              add [eax],al
0000210A  0000              add [eax],al
0000210C  0000              add [eax],al
0000210E  0000              add [eax],al
00002110  0000              add [eax],al
00002112  0000              add [eax],al
00002114  0000              add [eax],al
00002116  0000              add [eax],al
00002118  0000              add [eax],al
0000211A  0000              add [eax],al
0000211C  0000              add [eax],al
0000211E  0000              add [eax],al
00002120  0000              add [eax],al
00002122  0000              add [eax],al
00002124  0000              add [eax],al
00002126  0000              add [eax],al
00002128  0000              add [eax],al
0000212A  0000              add [eax],al
0000212C  0000              add [eax],al
0000212E  0000              add [eax],al
00002130  0000              add [eax],al
00002132  0000              add [eax],al
00002134  0000              add [eax],al
00002136  0000              add [eax],al
00002138  0000              add [eax],al
0000213A  0000              add [eax],al
0000213C  0000              add [eax],al
0000213E  0000              add [eax],al
00002140  0000              add [eax],al
00002142  0000              add [eax],al
00002144  0000              add [eax],al
00002146  0000              add [eax],al
00002148  0000              add [eax],al
0000214A  0000              add [eax],al
0000214C  0000              add [eax],al
0000214E  0000              add [eax],al
00002150  0000              add [eax],al
00002152  0000              add [eax],al
00002154  0000              add [eax],al
00002156  0000              add [eax],al
00002158  0000              add [eax],al
0000215A  0000              add [eax],al
0000215C  0000              add [eax],al
0000215E  0000              add [eax],al
00002160  0000              add [eax],al
00002162  0000              add [eax],al
00002164  0000              add [eax],al
00002166  0000              add [eax],al
00002168  0000              add [eax],al
0000216A  0000              add [eax],al
0000216C  0000              add [eax],al
0000216E  0000              add [eax],al
00002170  0000              add [eax],al
00002172  0000              add [eax],al
00002174  0000              add [eax],al
00002176  0000              add [eax],al
00002178  0000              add [eax],al
0000217A  0000              add [eax],al
0000217C  0000              add [eax],al
0000217E  0000              add [eax],al
00002180  0000              add [eax],al
00002182  0000              add [eax],al
00002184  0000              add [eax],al
00002186  0000              add [eax],al
00002188  0000              add [eax],al
0000218A  0000              add [eax],al
0000218C  0000              add [eax],al
0000218E  0000              add [eax],al
00002190  0000              add [eax],al
00002192  0000              add [eax],al
00002194  0000              add [eax],al
00002196  0000              add [eax],al
00002198  0000              add [eax],al
0000219A  0000              add [eax],al
0000219C  0000              add [eax],al
0000219E  0000              add [eax],al
000021A0  0000              add [eax],al
000021A2  0000              add [eax],al
000021A4  0000              add [eax],al
000021A6  0000              add [eax],al
000021A8  0000              add [eax],al
000021AA  0000              add [eax],al
000021AC  0000              add [eax],al
000021AE  0000              add [eax],al
000021B0  0000              add [eax],al
000021B2  0000              add [eax],al
000021B4  0000              add [eax],al
000021B6  0000              add [eax],al
000021B8  0000              add [eax],al
000021BA  0000              add [eax],al
000021BC  0000              add [eax],al
000021BE  0000              add [eax],al
000021C0  0000              add [eax],al
000021C2  0000              add [eax],al
000021C4  0000              add [eax],al
000021C6  0000              add [eax],al
000021C8  0000              add [eax],al
000021CA  0000              add [eax],al
000021CC  0000              add [eax],al
000021CE  0000              add [eax],al
000021D0  0000              add [eax],al
000021D2  0000              add [eax],al
000021D4  0000              add [eax],al
000021D6  0000              add [eax],al
000021D8  0000              add [eax],al
000021DA  0000              add [eax],al
000021DC  0000              add [eax],al
000021DE  0000              add [eax],al
000021E0  0000              add [eax],al
000021E2  0000              add [eax],al
000021E4  0000              add [eax],al
000021E6  0000              add [eax],al
000021E8  0000              add [eax],al
000021EA  0000              add [eax],al
000021EC  0000              add [eax],al
000021EE  0000              add [eax],al
000021F0  0000              add [eax],al
000021F2  0000              add [eax],al
000021F4  0000              add [eax],al
000021F6  0000              add [eax],al
000021F8  0000              add [eax],al
000021FA  0000              add [eax],al
000021FC  0000              add [eax],al
000021FE  0000              add [eax],al
00002200  0000              add [eax],al
00002202  0000              add [eax],al
00002204  0000              add [eax],al
00002206  0000              add [eax],al
00002208  0000              add [eax],al
0000220A  0000              add [eax],al
0000220C  0000              add [eax],al
0000220E  0000              add [eax],al
00002210  0000              add [eax],al
00002212  0000              add [eax],al
00002214  0000              add [eax],al
00002216  0000              add [eax],al
00002218  0000              add [eax],al
0000221A  0000              add [eax],al
0000221C  0000              add [eax],al
0000221E  0000              add [eax],al
00002220  0000              add [eax],al
00002222  0000              add [eax],al
00002224  0000              add [eax],al
00002226  0000              add [eax],al
00002228  0000              add [eax],al
0000222A  0000              add [eax],al
0000222C  0000              add [eax],al
0000222E  0000              add [eax],al
00002230  0000              add [eax],al
00002232  0000              add [eax],al
00002234  0000              add [eax],al
00002236  0000              add [eax],al
00002238  0000              add [eax],al
0000223A  0000              add [eax],al
0000223C  0000              add [eax],al
0000223E  0000              add [eax],al
00002240  0000              add [eax],al
00002242  0000              add [eax],al
00002244  0000              add [eax],al
00002246  0000              add [eax],al
00002248  0000              add [eax],al
0000224A  0000              add [eax],al
0000224C  0000              add [eax],al
0000224E  0000              add [eax],al
00002250  0000              add [eax],al
00002252  0000              add [eax],al
00002254  0000              add [eax],al
00002256  0000              add [eax],al
00002258  0000              add [eax],al
0000225A  0000              add [eax],al
0000225C  0000              add [eax],al
0000225E  0000              add [eax],al
00002260  0000              add [eax],al
00002262  0000              add [eax],al
00002264  0000              add [eax],al
00002266  0000              add [eax],al
00002268  0000              add [eax],al
0000226A  0000              add [eax],al
0000226C  0000              add [eax],al
0000226E  0000              add [eax],al
00002270  0000              add [eax],al
00002272  0000              add [eax],al
00002274  0000              add [eax],al
00002276  0000              add [eax],al
00002278  0000              add [eax],al
0000227A  0000              add [eax],al
0000227C  0000              add [eax],al
0000227E  0000              add [eax],al
00002280  0000              add [eax],al
00002282  0000              add [eax],al
00002284  0000              add [eax],al
00002286  0000              add [eax],al
00002288  0000              add [eax],al
0000228A  0000              add [eax],al
0000228C  0000              add [eax],al
0000228E  0000              add [eax],al
00002290  0000              add [eax],al
00002292  0000              add [eax],al
00002294  0000              add [eax],al
00002296  0000              add [eax],al
00002298  0000              add [eax],al
0000229A  0000              add [eax],al
0000229C  0000              add [eax],al
0000229E  0000              add [eax],al
000022A0  0000              add [eax],al
000022A2  0000              add [eax],al
000022A4  0000              add [eax],al
000022A6  0000              add [eax],al
000022A8  0000              add [eax],al
000022AA  0000              add [eax],al
000022AC  0000              add [eax],al
000022AE  0000              add [eax],al
000022B0  0000              add [eax],al
000022B2  0000              add [eax],al
000022B4  0000              add [eax],al
000022B6  0000              add [eax],al
000022B8  0000              add [eax],al
000022BA  0000              add [eax],al
000022BC  0000              add [eax],al
000022BE  0000              add [eax],al
000022C0  0000              add [eax],al
000022C2  0000              add [eax],al
000022C4  0000              add [eax],al
000022C6  0000              add [eax],al
000022C8  0000              add [eax],al
000022CA  0000              add [eax],al
000022CC  0000              add [eax],al
000022CE  0000              add [eax],al
000022D0  0000              add [eax],al
000022D2  0000              add [eax],al
000022D4  0000              add [eax],al
000022D6  0000              add [eax],al
000022D8  0000              add [eax],al
000022DA  0000              add [eax],al
000022DC  0000              add [eax],al
000022DE  0000              add [eax],al
000022E0  0000              add [eax],al
000022E2  0000              add [eax],al
000022E4  0000              add [eax],al
000022E6  0000              add [eax],al
000022E8  0000              add [eax],al
000022EA  0000              add [eax],al
000022EC  0000              add [eax],al
000022EE  0000              add [eax],al
000022F0  0000              add [eax],al
000022F2  0000              add [eax],al
000022F4  0000              add [eax],al
000022F6  0000              add [eax],al
000022F8  0000              add [eax],al
000022FA  0000              add [eax],al
000022FC  0000              add [eax],al
000022FE  0000              add [eax],al
00002300  0000              add [eax],al
00002302  0000              add [eax],al
00002304  0000              add [eax],al
00002306  0000              add [eax],al
00002308  0000              add [eax],al
0000230A  0000              add [eax],al
0000230C  0000              add [eax],al
0000230E  0000              add [eax],al
00002310  0000              add [eax],al
00002312  0000              add [eax],al
00002314  0000              add [eax],al
00002316  0000              add [eax],al
00002318  0000              add [eax],al
0000231A  0000              add [eax],al
0000231C  0000              add [eax],al
0000231E  0000              add [eax],al
00002320  0000              add [eax],al
00002322  0000              add [eax],al
00002324  0000              add [eax],al
00002326  0000              add [eax],al
00002328  0000              add [eax],al
0000232A  0000              add [eax],al
0000232C  0000              add [eax],al
0000232E  0000              add [eax],al
00002330  0000              add [eax],al
00002332  0000              add [eax],al
00002334  0000              add [eax],al
00002336  0000              add [eax],al
00002338  0000              add [eax],al
0000233A  0000              add [eax],al
0000233C  0000              add [eax],al
0000233E  0000              add [eax],al
00002340  0000              add [eax],al
00002342  0000              add [eax],al
00002344  0000              add [eax],al
00002346  0000              add [eax],al
00002348  0000              add [eax],al
0000234A  0000              add [eax],al
0000234C  0000              add [eax],al
0000234E  0000              add [eax],al
00002350  0000              add [eax],al
00002352  0000              add [eax],al
00002354  0000              add [eax],al
00002356  0000              add [eax],al
00002358  0000              add [eax],al
0000235A  0000              add [eax],al
0000235C  0000              add [eax],al
0000235E  0000              add [eax],al
00002360  0000              add [eax],al
00002362  0000              add [eax],al
00002364  0000              add [eax],al
00002366  0000              add [eax],al
00002368  0000              add [eax],al
0000236A  0000              add [eax],al
0000236C  0000              add [eax],al
0000236E  0000              add [eax],al
00002370  0000              add [eax],al
00002372  0000              add [eax],al
00002374  0000              add [eax],al
00002376  0000              add [eax],al
00002378  0000              add [eax],al
0000237A  0000              add [eax],al
0000237C  0000              add [eax],al
0000237E  0000              add [eax],al
00002380  0000              add [eax],al
00002382  0000              add [eax],al
00002384  0000              add [eax],al
00002386  0000              add [eax],al
00002388  0000              add [eax],al
0000238A  0000              add [eax],al
0000238C  0000              add [eax],al
0000238E  0000              add [eax],al
00002390  0000              add [eax],al
00002392  0000              add [eax],al
00002394  0000              add [eax],al
00002396  0000              add [eax],al
00002398  0000              add [eax],al
0000239A  0000              add [eax],al
0000239C  0000              add [eax],al
0000239E  0000              add [eax],al
000023A0  0000              add [eax],al
000023A2  0000              add [eax],al
000023A4  0000              add [eax],al
000023A6  0000              add [eax],al
000023A8  0000              add [eax],al
000023AA  0000              add [eax],al
000023AC  0000              add [eax],al
000023AE  0000              add [eax],al
000023B0  0000              add [eax],al
000023B2  0000              add [eax],al
000023B4  0000              add [eax],al
000023B6  0000              add [eax],al
000023B8  0000              add [eax],al
000023BA  0000              add [eax],al
000023BC  0000              add [eax],al
000023BE  0000              add [eax],al
000023C0  0000              add [eax],al
000023C2  0000              add [eax],al
000023C4  0000              add [eax],al
000023C6  0000              add [eax],al
000023C8  0000              add [eax],al
000023CA  0000              add [eax],al
000023CC  0000              add [eax],al
000023CE  0000              add [eax],al
000023D0  0000              add [eax],al
000023D2  0000              add [eax],al
000023D4  0000              add [eax],al
000023D6  0000              add [eax],al
000023D8  0000              add [eax],al
000023DA  0000              add [eax],al
000023DC  0000              add [eax],al
000023DE  0000              add [eax],al
000023E0  0000              add [eax],al
000023E2  0000              add [eax],al
000023E4  0000              add [eax],al
000023E6  0000              add [eax],al
000023E8  0000              add [eax],al
000023EA  0000              add [eax],al
000023EC  0000              add [eax],al
000023EE  0000              add [eax],al
000023F0  0000              add [eax],al
000023F2  0000              add [eax],al
000023F4  0000              add [eax],al
000023F6  0000              add [eax],al
000023F8  0000              add [eax],al
000023FA  0000              add [eax],al
000023FC  0000              add [eax],al
000023FE  0000              add [eax],al
00002400  0000              add [eax],al
00002402  0000              add [eax],al
00002404  0000              add [eax],al
00002406  0000              add [eax],al
00002408  0000              add [eax],al
0000240A  0000              add [eax],al
0000240C  0000              add [eax],al
0000240E  0000              add [eax],al
00002410  0000              add [eax],al
00002412  0000              add [eax],al
00002414  0000              add [eax],al
00002416  0000              add [eax],al
00002418  0000              add [eax],al
0000241A  0000              add [eax],al
0000241C  0000              add [eax],al
0000241E  0000              add [eax],al
00002420  0000              add [eax],al
00002422  0000              add [eax],al
00002424  0000              add [eax],al
00002426  0000              add [eax],al
00002428  0000              add [eax],al
0000242A  0000              add [eax],al
0000242C  0000              add [eax],al
0000242E  0000              add [eax],al
00002430  0000              add [eax],al
00002432  0000              add [eax],al
00002434  0000              add [eax],al
00002436  0000              add [eax],al
00002438  0000              add [eax],al
0000243A  0000              add [eax],al
0000243C  0000              add [eax],al
0000243E  0000              add [eax],al
00002440  0000              add [eax],al
00002442  0000              add [eax],al
00002444  0000              add [eax],al
00002446  0000              add [eax],al
00002448  0000              add [eax],al
0000244A  0000              add [eax],al
0000244C  0000              add [eax],al
0000244E  0000              add [eax],al
00002450  0000              add [eax],al
00002452  0000              add [eax],al
00002454  0000              add [eax],al
00002456  0000              add [eax],al
00002458  0000              add [eax],al
0000245A  0000              add [eax],al
0000245C  0000              add [eax],al
0000245E  0000              add [eax],al
00002460  0000              add [eax],al
00002462  0000              add [eax],al
00002464  0000              add [eax],al
00002466  0000              add [eax],al
00002468  0000              add [eax],al
0000246A  0000              add [eax],al
0000246C  0000              add [eax],al
0000246E  0000              add [eax],al
00002470  0000              add [eax],al
00002472  0000              add [eax],al
00002474  0000              add [eax],al
00002476  0000              add [eax],al
00002478  0000              add [eax],al
0000247A  0000              add [eax],al
0000247C  0000              add [eax],al
0000247E  0000              add [eax],al
00002480  0000              add [eax],al
00002482  0000              add [eax],al
00002484  0000              add [eax],al
00002486  0000              add [eax],al
00002488  0000              add [eax],al
0000248A  0000              add [eax],al
0000248C  0000              add [eax],al
0000248E  0000              add [eax],al
00002490  0000              add [eax],al
00002492  0000              add [eax],al
00002494  0000              add [eax],al
00002496  0000              add [eax],al
00002498  0000              add [eax],al
0000249A  0000              add [eax],al
0000249C  0000              add [eax],al
0000249E  0000              add [eax],al
000024A0  0000              add [eax],al
000024A2  0000              add [eax],al
000024A4  0000              add [eax],al
000024A6  0000              add [eax],al
000024A8  0000              add [eax],al
000024AA  0000              add [eax],al
000024AC  0000              add [eax],al
000024AE  0000              add [eax],al
000024B0  0000              add [eax],al
000024B2  0000              add [eax],al
000024B4  0000              add [eax],al
000024B6  0000              add [eax],al
000024B8  0000              add [eax],al
000024BA  0000              add [eax],al
000024BC  0000              add [eax],al
000024BE  0000              add [eax],al
000024C0  0000              add [eax],al
000024C2  0000              add [eax],al
000024C4  0000              add [eax],al
000024C6  0000              add [eax],al
000024C8  0000              add [eax],al
000024CA  0000              add [eax],al
000024CC  0000              add [eax],al
000024CE  0000              add [eax],al
000024D0  0000              add [eax],al
000024D2  0000              add [eax],al
000024D4  0000              add [eax],al
000024D6  0000              add [eax],al
000024D8  0000              add [eax],al
000024DA  0000              add [eax],al
000024DC  0000              add [eax],al
000024DE  0000              add [eax],al
000024E0  0000              add [eax],al
000024E2  0000              add [eax],al
000024E4  0000              add [eax],al
000024E6  0000              add [eax],al
000024E8  0000              add [eax],al
000024EA  0000              add [eax],al
000024EC  0000              add [eax],al
000024EE  0000              add [eax],al
000024F0  0000              add [eax],al
000024F2  0000              add [eax],al
000024F4  0000              add [eax],al
000024F6  0000              add [eax],al
000024F8  0000              add [eax],al
000024FA  0000              add [eax],al
000024FC  0000              add [eax],al
000024FE  0000              add [eax],al
00002500  0000              add [eax],al
00002502  0000              add [eax],al
00002504  0000              add [eax],al
00002506  0000              add [eax],al
00002508  0000              add [eax],al
0000250A  0000              add [eax],al
0000250C  0000              add [eax],al
0000250E  0000              add [eax],al
00002510  0000              add [eax],al
00002512  0000              add [eax],al
00002514  0000              add [eax],al
00002516  0000              add [eax],al
00002518  0000              add [eax],al
0000251A  0000              add [eax],al
0000251C  0000              add [eax],al
0000251E  0000              add [eax],al
00002520  0000              add [eax],al
00002522  0000              add [eax],al
00002524  0000              add [eax],al
00002526  0000              add [eax],al
00002528  0000              add [eax],al
0000252A  0000              add [eax],al
0000252C  0000              add [eax],al
0000252E  0000              add [eax],al
00002530  0000              add [eax],al
00002532  0000              add [eax],al
00002534  0000              add [eax],al
00002536  0000              add [eax],al
00002538  0000              add [eax],al
0000253A  0000              add [eax],al
0000253C  0000              add [eax],al
0000253E  0000              add [eax],al
00002540  0000              add [eax],al
00002542  0000              add [eax],al
00002544  0000              add [eax],al
00002546  0000              add [eax],al
00002548  0000              add [eax],al
0000254A  0000              add [eax],al
0000254C  0000              add [eax],al
0000254E  0000              add [eax],al
00002550  0000              add [eax],al
00002552  0000              add [eax],al
00002554  0000              add [eax],al
00002556  0000              add [eax],al
00002558  0000              add [eax],al
0000255A  0000              add [eax],al
0000255C  0000              add [eax],al
0000255E  0000              add [eax],al
00002560  0000              add [eax],al
00002562  0000              add [eax],al
00002564  0000              add [eax],al
00002566  0000              add [eax],al
00002568  0000              add [eax],al
0000256A  0000              add [eax],al
0000256C  0000              add [eax],al
0000256E  0000              add [eax],al
00002570  0000              add [eax],al
00002572  0000              add [eax],al
00002574  0000              add [eax],al
00002576  0000              add [eax],al
00002578  0000              add [eax],al
0000257A  0000              add [eax],al
0000257C  0000              add [eax],al
0000257E  0000              add [eax],al
00002580  0000              add [eax],al
00002582  0000              add [eax],al
00002584  0000              add [eax],al
00002586  0000              add [eax],al
00002588  0000              add [eax],al
0000258A  0000              add [eax],al
0000258C  0000              add [eax],al
0000258E  0000              add [eax],al
00002590  0000              add [eax],al
00002592  0000              add [eax],al
00002594  0000              add [eax],al
00002596  0000              add [eax],al
00002598  0000              add [eax],al
0000259A  0000              add [eax],al
0000259C  0000              add [eax],al
0000259E  0000              add [eax],al
000025A0  0000              add [eax],al
000025A2  0000              add [eax],al
000025A4  0000              add [eax],al
000025A6  0000              add [eax],al
000025A8  0000              add [eax],al
000025AA  0000              add [eax],al
000025AC  0000              add [eax],al
000025AE  0000              add [eax],al
000025B0  0000              add [eax],al
000025B2  0000              add [eax],al
000025B4  0000              add [eax],al
000025B6  0000              add [eax],al
000025B8  0000              add [eax],al
000025BA  0000              add [eax],al
000025BC  0000              add [eax],al
000025BE  0000              add [eax],al
000025C0  0000              add [eax],al
000025C2  0000              add [eax],al
000025C4  0000              add [eax],al
000025C6  0000              add [eax],al
000025C8  0000              add [eax],al
000025CA  0000              add [eax],al
000025CC  0000              add [eax],al
000025CE  0000              add [eax],al
000025D0  0000              add [eax],al
000025D2  0000              add [eax],al
000025D4  0000              add [eax],al
000025D6  0000              add [eax],al
000025D8  0000              add [eax],al
000025DA  0000              add [eax],al
000025DC  0000              add [eax],al
000025DE  0000              add [eax],al
000025E0  0000              add [eax],al
000025E2  0000              add [eax],al
000025E4  0000              add [eax],al
000025E6  0000              add [eax],al
000025E8  0000              add [eax],al
000025EA  0000              add [eax],al
000025EC  0000              add [eax],al
000025EE  0000              add [eax],al
000025F0  0000              add [eax],al
000025F2  0000              add [eax],al
000025F4  0000              add [eax],al
000025F6  0000              add [eax],al
000025F8  0000              add [eax],al
000025FA  0000              add [eax],al
000025FC  0000              add [eax],al
000025FE  0000              add [eax],al
00002600  0000              add [eax],al
00002602  0000              add [eax],al
00002604  0000              add [eax],al
00002606  0000              add [eax],al
00002608  0000              add [eax],al
0000260A  0000              add [eax],al
0000260C  0000              add [eax],al
0000260E  0000              add [eax],al
00002610  0000              add [eax],al
00002612  0000              add [eax],al
00002614  0000              add [eax],al
00002616  0000              add [eax],al
00002618  0000              add [eax],al
0000261A  0000              add [eax],al
0000261C  0000              add [eax],al
0000261E  0000              add [eax],al
00002620  0000              add [eax],al
00002622  0000              add [eax],al
00002624  0000              add [eax],al
00002626  0000              add [eax],al
00002628  0000              add [eax],al
0000262A  0000              add [eax],al
0000262C  0000              add [eax],al
0000262E  0000              add [eax],al
00002630  0000              add [eax],al
00002632  0000              add [eax],al
00002634  0000              add [eax],al
00002636  0000              add [eax],al
00002638  0000              add [eax],al
0000263A  0000              add [eax],al
0000263C  0000              add [eax],al
0000263E  0000              add [eax],al
00002640  0000              add [eax],al
00002642  0000              add [eax],al
00002644  0000              add [eax],al
00002646  0000              add [eax],al
00002648  0000              add [eax],al
0000264A  0000              add [eax],al
0000264C  0000              add [eax],al
0000264E  0000              add [eax],al
00002650  0000              add [eax],al
00002652  0000              add [eax],al
00002654  0000              add [eax],al
00002656  0000              add [eax],al
00002658  0000              add [eax],al
0000265A  0000              add [eax],al
0000265C  0000              add [eax],al
0000265E  0000              add [eax],al
00002660  0000              add [eax],al
00002662  0000              add [eax],al
00002664  0000              add [eax],al
00002666  0000              add [eax],al
00002668  0000              add [eax],al
0000266A  0000              add [eax],al
0000266C  0000              add [eax],al
0000266E  0000              add [eax],al
00002670  0000              add [eax],al
00002672  0000              add [eax],al
00002674  0000              add [eax],al
00002676  0000              add [eax],al
00002678  0000              add [eax],al
0000267A  0000              add [eax],al
0000267C  0000              add [eax],al
0000267E  0000              add [eax],al
00002680  0000              add [eax],al
00002682  0000              add [eax],al
00002684  0000              add [eax],al
00002686  0000              add [eax],al
00002688  0000              add [eax],al
0000268A  0000              add [eax],al
0000268C  0000              add [eax],al
0000268E  0000              add [eax],al
00002690  0000              add [eax],al
00002692  0000              add [eax],al
00002694  0000              add [eax],al
00002696  0000              add [eax],al
00002698  0000              add [eax],al
0000269A  0000              add [eax],al
0000269C  0000              add [eax],al
0000269E  0000              add [eax],al
000026A0  0000              add [eax],al
000026A2  0000              add [eax],al
000026A4  0000              add [eax],al
000026A6  0000              add [eax],al
000026A8  0000              add [eax],al
000026AA  0000              add [eax],al
000026AC  0000              add [eax],al
000026AE  0000              add [eax],al
000026B0  0000              add [eax],al
000026B2  0000              add [eax],al
000026B4  0000              add [eax],al
000026B6  0000              add [eax],al
000026B8  0000              add [eax],al
000026BA  0000              add [eax],al
000026BC  0000              add [eax],al
000026BE  0000              add [eax],al
000026C0  0000              add [eax],al
000026C2  0000              add [eax],al
000026C4  0000              add [eax],al
000026C6  0000              add [eax],al
000026C8  0000              add [eax],al
000026CA  0000              add [eax],al
000026CC  0000              add [eax],al
000026CE  0000              add [eax],al
000026D0  0000              add [eax],al
000026D2  0000              add [eax],al
000026D4  0000              add [eax],al
000026D6  0000              add [eax],al
000026D8  0000              add [eax],al
000026DA  0000              add [eax],al
000026DC  0000              add [eax],al
000026DE  0000              add [eax],al
000026E0  0000              add [eax],al
000026E2  0000              add [eax],al
000026E4  0000              add [eax],al
000026E6  0000              add [eax],al
000026E8  0000              add [eax],al
000026EA  0000              add [eax],al
000026EC  0000              add [eax],al
000026EE  0000              add [eax],al
000026F0  0000              add [eax],al
000026F2  0000              add [eax],al
000026F4  0000              add [eax],al
000026F6  0000              add [eax],al
000026F8  0000              add [eax],al
000026FA  0000              add [eax],al
000026FC  0000              add [eax],al
000026FE  0000              add [eax],al
00002700  0000              add [eax],al
00002702  0000              add [eax],al
00002704  0000              add [eax],al
00002706  0000              add [eax],al
00002708  0000              add [eax],al
0000270A  0000              add [eax],al
0000270C  0000              add [eax],al
0000270E  0000              add [eax],al
00002710  0000              add [eax],al
00002712  0000              add [eax],al
00002714  0000              add [eax],al
00002716  0000              add [eax],al
00002718  0000              add [eax],al
0000271A  0000              add [eax],al
0000271C  0000              add [eax],al
0000271E  0000              add [eax],al
00002720  0000              add [eax],al
00002722  0000              add [eax],al
00002724  0000              add [eax],al
00002726  0000              add [eax],al
00002728  0000              add [eax],al
0000272A  0000              add [eax],al
0000272C  0000              add [eax],al
0000272E  0000              add [eax],al
00002730  0000              add [eax],al
00002732  0000              add [eax],al
00002734  0000              add [eax],al
00002736  0000              add [eax],al
00002738  0000              add [eax],al
0000273A  0000              add [eax],al
0000273C  0000              add [eax],al
0000273E  0000              add [eax],al
00002740  0000              add [eax],al
00002742  0000              add [eax],al
00002744  0000              add [eax],al
00002746  0000              add [eax],al
00002748  0000              add [eax],al
0000274A  0000              add [eax],al
0000274C  0000              add [eax],al
0000274E  0000              add [eax],al
00002750  0000              add [eax],al
00002752  0000              add [eax],al
00002754  0000              add [eax],al
00002756  0000              add [eax],al
00002758  0000              add [eax],al
0000275A  0000              add [eax],al
0000275C  0000              add [eax],al
0000275E  0000              add [eax],al
00002760  0000              add [eax],al
00002762  0000              add [eax],al
00002764  0000              add [eax],al
00002766  0000              add [eax],al
00002768  0000              add [eax],al
0000276A  0000              add [eax],al
0000276C  0000              add [eax],al
0000276E  0000              add [eax],al
00002770  0000              add [eax],al
00002772  0000              add [eax],al
00002774  0000              add [eax],al
00002776  0000              add [eax],al
00002778  0000              add [eax],al
0000277A  0000              add [eax],al
0000277C  0000              add [eax],al
0000277E  0000              add [eax],al
00002780  0000              add [eax],al
00002782  0000              add [eax],al
00002784  0000              add [eax],al
00002786  0000              add [eax],al
00002788  0000              add [eax],al
0000278A  0000              add [eax],al
0000278C  0000              add [eax],al
0000278E  0000              add [eax],al
00002790  0000              add [eax],al
00002792  0000              add [eax],al
00002794  0000              add [eax],al
00002796  0000              add [eax],al
00002798  0000              add [eax],al
0000279A  0000              add [eax],al
0000279C  0000              add [eax],al
0000279E  0000              add [eax],al
000027A0  0000              add [eax],al
000027A2  0000              add [eax],al
000027A4  0000              add [eax],al
000027A6  0000              add [eax],al
000027A8  0000              add [eax],al
000027AA  0000              add [eax],al
000027AC  0000              add [eax],al
000027AE  0000              add [eax],al
000027B0  0000              add [eax],al
000027B2  0000              add [eax],al
000027B4  0000              add [eax],al
000027B6  0000              add [eax],al
000027B8  0000              add [eax],al
000027BA  0000              add [eax],al
000027BC  0000              add [eax],al
000027BE  0000              add [eax],al
000027C0  0000              add [eax],al
000027C2  0000              add [eax],al
000027C4  0000              add [eax],al
000027C6  0000              add [eax],al
000027C8  0000              add [eax],al
000027CA  0000              add [eax],al
000027CC  0000              add [eax],al
000027CE  0000              add [eax],al
000027D0  0000              add [eax],al
000027D2  0000              add [eax],al
000027D4  0000              add [eax],al
000027D6  0000              add [eax],al
000027D8  0000              add [eax],al
000027DA  0000              add [eax],al
000027DC  0000              add [eax],al
000027DE  0000              add [eax],al
000027E0  0000              add [eax],al
000027E2  0000              add [eax],al
000027E4  0000              add [eax],al
000027E6  0000              add [eax],al
000027E8  0000              add [eax],al
000027EA  0000              add [eax],al
000027EC  0000              add [eax],al
000027EE  0000              add [eax],al
000027F0  0000              add [eax],al
000027F2  0000              add [eax],al
000027F4  0000              add [eax],al
000027F6  0000              add [eax],al
000027F8  0000              add [eax],al
000027FA  0000              add [eax],al
000027FC  0000              add [eax],al
000027FE  0000              add [eax],al
00002800  0000              add [eax],al
00002802  0000              add [eax],al
00002804  0000              add [eax],al
00002806  0000              add [eax],al
00002808  0000              add [eax],al
0000280A  0000              add [eax],al
0000280C  0000              add [eax],al
0000280E  0000              add [eax],al
00002810  0000              add [eax],al
00002812  0000              add [eax],al
00002814  0000              add [eax],al
00002816  0000              add [eax],al
00002818  0000              add [eax],al
0000281A  0000              add [eax],al
0000281C  0000              add [eax],al
0000281E  0000              add [eax],al
00002820  0000              add [eax],al
00002822  0000              add [eax],al
00002824  0000              add [eax],al
00002826  0000              add [eax],al
00002828  0000              add [eax],al
0000282A  0000              add [eax],al
0000282C  0000              add [eax],al
0000282E  0000              add [eax],al
00002830  0000              add [eax],al
00002832  0000              add [eax],al
00002834  0000              add [eax],al
00002836  0000              add [eax],al
00002838  0000              add [eax],al
0000283A  0000              add [eax],al
0000283C  0000              add [eax],al
0000283E  0000              add [eax],al
00002840  0000              add [eax],al
00002842  0000              add [eax],al
00002844  0000              add [eax],al
00002846  0000              add [eax],al
00002848  0000              add [eax],al
0000284A  0000              add [eax],al
0000284C  0000              add [eax],al
0000284E  0000              add [eax],al
00002850  0000              add [eax],al
00002852  0000              add [eax],al
00002854  0000              add [eax],al
00002856  0000              add [eax],al
00002858  0000              add [eax],al
0000285A  0000              add [eax],al
0000285C  0000              add [eax],al
0000285E  0000              add [eax],al
00002860  0000              add [eax],al
00002862  0000              add [eax],al
00002864  0000              add [eax],al
00002866  0000              add [eax],al
00002868  0000              add [eax],al
0000286A  0000              add [eax],al
0000286C  0000              add [eax],al
0000286E  0000              add [eax],al
00002870  0000              add [eax],al
00002872  0000              add [eax],al
00002874  0000              add [eax],al
00002876  0000              add [eax],al
00002878  0000              add [eax],al
0000287A  0000              add [eax],al
0000287C  0000              add [eax],al
0000287E  0000              add [eax],al
00002880  0000              add [eax],al
00002882  0000              add [eax],al
00002884  0000              add [eax],al
00002886  0000              add [eax],al
00002888  0000              add [eax],al
0000288A  0000              add [eax],al
0000288C  0000              add [eax],al
0000288E  0000              add [eax],al
00002890  0000              add [eax],al
00002892  0000              add [eax],al
00002894  0000              add [eax],al
00002896  0000              add [eax],al
00002898  0000              add [eax],al
0000289A  0000              add [eax],al
0000289C  0000              add [eax],al
0000289E  0000              add [eax],al
000028A0  0000              add [eax],al
000028A2  0000              add [eax],al
000028A4  0000              add [eax],al
000028A6  0000              add [eax],al
000028A8  0000              add [eax],al
000028AA  0000              add [eax],al
000028AC  0000              add [eax],al
000028AE  0000              add [eax],al
000028B0  0000              add [eax],al
000028B2  0000              add [eax],al
000028B4  0000              add [eax],al
000028B6  0000              add [eax],al
000028B8  0000              add [eax],al
000028BA  0000              add [eax],al
000028BC  0000              add [eax],al
000028BE  0000              add [eax],al
000028C0  0000              add [eax],al
000028C2  0000              add [eax],al
000028C4  0000              add [eax],al
000028C6  0000              add [eax],al
000028C8  0000              add [eax],al
000028CA  0000              add [eax],al
000028CC  0000              add [eax],al
000028CE  0000              add [eax],al
000028D0  0000              add [eax],al
000028D2  0000              add [eax],al
000028D4  0000              add [eax],al
000028D6  0000              add [eax],al
000028D8  0000              add [eax],al
000028DA  0000              add [eax],al
000028DC  0000              add [eax],al
000028DE  0000              add [eax],al
000028E0  0000              add [eax],al
000028E2  0000              add [eax],al
000028E4  0000              add [eax],al
000028E6  0000              add [eax],al
000028E8  0000              add [eax],al
000028EA  0000              add [eax],al
000028EC  0000              add [eax],al
000028EE  0000              add [eax],al
000028F0  0000              add [eax],al
000028F2  0000              add [eax],al
000028F4  0000              add [eax],al
000028F6  0000              add [eax],al
000028F8  0000              add [eax],al
000028FA  0000              add [eax],al
000028FC  0000              add [eax],al
000028FE  0000              add [eax],al
00002900  0000              add [eax],al
00002902  0000              add [eax],al
00002904  0000              add [eax],al
00002906  0000              add [eax],al
00002908  0000              add [eax],al
0000290A  0000              add [eax],al
0000290C  0000              add [eax],al
0000290E  0000              add [eax],al
00002910  0000              add [eax],al
00002912  0000              add [eax],al
00002914  0000              add [eax],al
00002916  0000              add [eax],al
00002918  0000              add [eax],al
0000291A  0000              add [eax],al
0000291C  0000              add [eax],al
0000291E  0000              add [eax],al
00002920  0000              add [eax],al
00002922  0000              add [eax],al
00002924  0000              add [eax],al
00002926  0000              add [eax],al
00002928  0000              add [eax],al
0000292A  0000              add [eax],al
0000292C  0000              add [eax],al
0000292E  0000              add [eax],al
00002930  0000              add [eax],al
00002932  0000              add [eax],al
00002934  0000              add [eax],al
00002936  0000              add [eax],al
00002938  0000              add [eax],al
0000293A  0000              add [eax],al
0000293C  0000              add [eax],al
0000293E  0000              add [eax],al
00002940  0000              add [eax],al
00002942  0000              add [eax],al
00002944  0000              add [eax],al
00002946  0000              add [eax],al
00002948  0000              add [eax],al
0000294A  0000              add [eax],al
0000294C  0000              add [eax],al
0000294E  0000              add [eax],al
00002950  0000              add [eax],al
00002952  0000              add [eax],al
00002954  0000              add [eax],al
00002956  0000              add [eax],al
00002958  0000              add [eax],al
0000295A  0000              add [eax],al
0000295C  0000              add [eax],al
0000295E  0000              add [eax],al
00002960  0000              add [eax],al
00002962  0000              add [eax],al
00002964  0000              add [eax],al
00002966  0000              add [eax],al
00002968  0000              add [eax],al
0000296A  0000              add [eax],al
0000296C  0000              add [eax],al
0000296E  0000              add [eax],al
00002970  0000              add [eax],al
00002972  0000              add [eax],al
00002974  0000              add [eax],al
00002976  0000              add [eax],al
00002978  0000              add [eax],al
0000297A  0000              add [eax],al
0000297C  0000              add [eax],al
0000297E  0000              add [eax],al
00002980  0000              add [eax],al
00002982  0000              add [eax],al
00002984  0000              add [eax],al
00002986  0000              add [eax],al
00002988  0000              add [eax],al
0000298A  0000              add [eax],al
0000298C  0000              add [eax],al
0000298E  0000              add [eax],al
00002990  0000              add [eax],al
00002992  0000              add [eax],al
00002994  0000              add [eax],al
00002996  0000              add [eax],al
00002998  0000              add [eax],al
0000299A  0000              add [eax],al
0000299C  0000              add [eax],al
0000299E  0000              add [eax],al
000029A0  0000              add [eax],al
000029A2  0000              add [eax],al
000029A4  0000              add [eax],al
000029A6  0000              add [eax],al
000029A8  0000              add [eax],al
000029AA  0000              add [eax],al
000029AC  0000              add [eax],al
000029AE  0000              add [eax],al
000029B0  0000              add [eax],al
000029B2  0000              add [eax],al
000029B4  0000              add [eax],al
000029B6  0000              add [eax],al
000029B8  0000              add [eax],al
000029BA  0000              add [eax],al
000029BC  0000              add [eax],al
000029BE  0000              add [eax],al
000029C0  0000              add [eax],al
000029C2  0000              add [eax],al
000029C4  0000              add [eax],al
000029C6  0000              add [eax],al
000029C8  0000              add [eax],al
000029CA  0000              add [eax],al
000029CC  0000              add [eax],al
000029CE  0000              add [eax],al
000029D0  0000              add [eax],al
000029D2  0000              add [eax],al
000029D4  0000              add [eax],al
000029D6  0000              add [eax],al
000029D8  0000              add [eax],al
000029DA  0000              add [eax],al
000029DC  0000              add [eax],al
000029DE  0000              add [eax],al
000029E0  0000              add [eax],al
000029E2  0000              add [eax],al
000029E4  0000              add [eax],al
000029E6  0000              add [eax],al
000029E8  0000              add [eax],al
000029EA  0000              add [eax],al
000029EC  0000              add [eax],al
000029EE  0000              add [eax],al
000029F0  0000              add [eax],al
000029F2  0000              add [eax],al
000029F4  0000              add [eax],al
000029F6  0000              add [eax],al
000029F8  0000              add [eax],al
000029FA  0000              add [eax],al
000029FC  0000              add [eax],al
000029FE  0000              add [eax],al
00002A00  0000              add [eax],al
00002A02  0000              add [eax],al
00002A04  0000              add [eax],al
00002A06  0000              add [eax],al
00002A08  0000              add [eax],al
00002A0A  0000              add [eax],al
00002A0C  0000              add [eax],al
00002A0E  0000              add [eax],al
00002A10  0000              add [eax],al
00002A12  0000              add [eax],al
00002A14  0000              add [eax],al
00002A16  0000              add [eax],al
00002A18  0000              add [eax],al
00002A1A  0000              add [eax],al
00002A1C  0000              add [eax],al
00002A1E  0000              add [eax],al
00002A20  0000              add [eax],al
00002A22  0000              add [eax],al
00002A24  0000              add [eax],al
00002A26  0000              add [eax],al
00002A28  0000              add [eax],al
00002A2A  0000              add [eax],al
00002A2C  0000              add [eax],al
00002A2E  0000              add [eax],al
00002A30  0000              add [eax],al
00002A32  0000              add [eax],al
00002A34  0000              add [eax],al
00002A36  0000              add [eax],al
00002A38  0000              add [eax],al
00002A3A  0000              add [eax],al
00002A3C  0000              add [eax],al
00002A3E  0000              add [eax],al
00002A40  0000              add [eax],al
00002A42  0000              add [eax],al
00002A44  0000              add [eax],al
00002A46  0000              add [eax],al
00002A48  0000              add [eax],al
00002A4A  0000              add [eax],al
00002A4C  0000              add [eax],al
00002A4E  0000              add [eax],al
00002A50  0000              add [eax],al
00002A52  0000              add [eax],al
00002A54  0000              add [eax],al
00002A56  0000              add [eax],al
00002A58  0000              add [eax],al
00002A5A  0000              add [eax],al
00002A5C  0000              add [eax],al
00002A5E  0000              add [eax],al
00002A60  0000              add [eax],al
00002A62  0000              add [eax],al
00002A64  0000              add [eax],al
00002A66  0000              add [eax],al
00002A68  0000              add [eax],al
00002A6A  0000              add [eax],al
00002A6C  0000              add [eax],al
00002A6E  0000              add [eax],al
00002A70  0000              add [eax],al
00002A72  0000              add [eax],al
00002A74  0000              add [eax],al
00002A76  0000              add [eax],al
00002A78  0000              add [eax],al
00002A7A  0000              add [eax],al
00002A7C  0000              add [eax],al
00002A7E  0000              add [eax],al
00002A80  0000              add [eax],al
00002A82  0000              add [eax],al
00002A84  0000              add [eax],al
00002A86  0000              add [eax],al
00002A88  0000              add [eax],al
00002A8A  0000              add [eax],al
00002A8C  0000              add [eax],al
00002A8E  0000              add [eax],al
00002A90  0000              add [eax],al
00002A92  0000              add [eax],al
00002A94  0000              add [eax],al
00002A96  0000              add [eax],al
00002A98  0000              add [eax],al
00002A9A  0000              add [eax],al
00002A9C  0000              add [eax],al
00002A9E  0000              add [eax],al
00002AA0  0000              add [eax],al
00002AA2  0000              add [eax],al
00002AA4  0000              add [eax],al
00002AA6  0000              add [eax],al
00002AA8  0000              add [eax],al
00002AAA  0000              add [eax],al
00002AAC  0000              add [eax],al
00002AAE  0000              add [eax],al
00002AB0  0000              add [eax],al
00002AB2  0000              add [eax],al
00002AB4  0000              add [eax],al
00002AB6  0000              add [eax],al
00002AB8  0000              add [eax],al
00002ABA  0000              add [eax],al
00002ABC  0000              add [eax],al
00002ABE  0000              add [eax],al
00002AC0  0000              add [eax],al
00002AC2  0000              add [eax],al
00002AC4  0000              add [eax],al
00002AC6  0000              add [eax],al
00002AC8  0000              add [eax],al
00002ACA  0000              add [eax],al
00002ACC  0000              add [eax],al
00002ACE  0000              add [eax],al
00002AD0  0000              add [eax],al
00002AD2  0000              add [eax],al
00002AD4  0000              add [eax],al
00002AD6  0000              add [eax],al
00002AD8  0000              add [eax],al
00002ADA  0000              add [eax],al
00002ADC  0000              add [eax],al
00002ADE  0000              add [eax],al
00002AE0  0000              add [eax],al
00002AE2  0000              add [eax],al
00002AE4  0000              add [eax],al
00002AE6  0000              add [eax],al
00002AE8  0000              add [eax],al
00002AEA  0000              add [eax],al
00002AEC  0000              add [eax],al
00002AEE  0000              add [eax],al
00002AF0  0000              add [eax],al
00002AF2  0000              add [eax],al
00002AF4  0000              add [eax],al
00002AF6  0000              add [eax],al
00002AF8  0000              add [eax],al
00002AFA  0000              add [eax],al
00002AFC  0000              add [eax],al
00002AFE  0000              add [eax],al
00002B00  0000              add [eax],al
00002B02  0000              add [eax],al
00002B04  0000              add [eax],al
00002B06  0000              add [eax],al
00002B08  0000              add [eax],al
00002B0A  0000              add [eax],al
00002B0C  0000              add [eax],al
00002B0E  0000              add [eax],al
00002B10  0000              add [eax],al
00002B12  0000              add [eax],al
00002B14  0000              add [eax],al
00002B16  0000              add [eax],al
00002B18  0000              add [eax],al
00002B1A  0000              add [eax],al
00002B1C  0000              add [eax],al
00002B1E  0000              add [eax],al
00002B20  0000              add [eax],al
00002B22  0000              add [eax],al
00002B24  0000              add [eax],al
00002B26  0000              add [eax],al
00002B28  0000              add [eax],al
00002B2A  0000              add [eax],al
00002B2C  0000              add [eax],al
00002B2E  0000              add [eax],al
00002B30  0000              add [eax],al
00002B32  0000              add [eax],al
00002B34  0000              add [eax],al
00002B36  0000              add [eax],al
00002B38  0000              add [eax],al
00002B3A  0000              add [eax],al
00002B3C  0000              add [eax],al
00002B3E  0000              add [eax],al
00002B40  0000              add [eax],al
00002B42  0000              add [eax],al
00002B44  0000              add [eax],al
00002B46  0000              add [eax],al
00002B48  0000              add [eax],al
00002B4A  0000              add [eax],al
00002B4C  0000              add [eax],al
00002B4E  0000              add [eax],al
00002B50  0000              add [eax],al
00002B52  0000              add [eax],al
00002B54  0000              add [eax],al
00002B56  0000              add [eax],al
00002B58  0000              add [eax],al
00002B5A  0000              add [eax],al
00002B5C  0000              add [eax],al
00002B5E  0000              add [eax],al
00002B60  0000              add [eax],al
00002B62  0000              add [eax],al
00002B64  0000              add [eax],al
00002B66  0000              add [eax],al
00002B68  0000              add [eax],al
00002B6A  0000              add [eax],al
00002B6C  0000              add [eax],al
00002B6E  0000              add [eax],al
00002B70  0000              add [eax],al
00002B72  0000              add [eax],al
00002B74  0000              add [eax],al
00002B76  0000              add [eax],al
00002B78  0000              add [eax],al
00002B7A  0000              add [eax],al
00002B7C  0000              add [eax],al
00002B7E  0000              add [eax],al
00002B80  0000              add [eax],al
00002B82  0000              add [eax],al
00002B84  0000              add [eax],al
00002B86  0000              add [eax],al
00002B88  0000              add [eax],al
00002B8A  0000              add [eax],al
00002B8C  0000              add [eax],al
00002B8E  0000              add [eax],al
00002B90  0000              add [eax],al
00002B92  0000              add [eax],al
00002B94  0000              add [eax],al
00002B96  0000              add [eax],al
00002B98  0000              add [eax],al
00002B9A  0000              add [eax],al
00002B9C  0000              add [eax],al
00002B9E  0000              add [eax],al
00002BA0  0000              add [eax],al
00002BA2  0000              add [eax],al
00002BA4  0000              add [eax],al
00002BA6  0000              add [eax],al
00002BA8  0000              add [eax],al
00002BAA  0000              add [eax],al
00002BAC  0000              add [eax],al
00002BAE  0000              add [eax],al
00002BB0  0000              add [eax],al
00002BB2  0000              add [eax],al
00002BB4  0000              add [eax],al
00002BB6  0000              add [eax],al
00002BB8  0000              add [eax],al
00002BBA  0000              add [eax],al
00002BBC  0000              add [eax],al
00002BBE  0000              add [eax],al
00002BC0  0000              add [eax],al
00002BC2  0000              add [eax],al
00002BC4  0000              add [eax],al
00002BC6  0000              add [eax],al
00002BC8  0000              add [eax],al
00002BCA  0000              add [eax],al
00002BCC  0000              add [eax],al
00002BCE  0000              add [eax],al
00002BD0  0000              add [eax],al
00002BD2  0000              add [eax],al
00002BD4  0000              add [eax],al
00002BD6  0000              add [eax],al
00002BD8  0000              add [eax],al
00002BDA  0000              add [eax],al
00002BDC  0000              add [eax],al
00002BDE  0000              add [eax],al
00002BE0  0000              add [eax],al
00002BE2  0000              add [eax],al
00002BE4  0000              add [eax],al
00002BE6  0000              add [eax],al
00002BE8  0000              add [eax],al
00002BEA  0000              add [eax],al
00002BEC  0000              add [eax],al
00002BEE  0000              add [eax],al
00002BF0  0000              add [eax],al
00002BF2  0000              add [eax],al
00002BF4  0000              add [eax],al
00002BF6  0000              add [eax],al
00002BF8  0000              add [eax],al
00002BFA  0000              add [eax],al
00002BFC  0000              add [eax],al
00002BFE  0000              add [eax],al
00002C00  0000              add [eax],al
00002C02  0000              add [eax],al
00002C04  0000              add [eax],al
00002C06  0000              add [eax],al
00002C08  0000              add [eax],al
00002C0A  0000              add [eax],al
00002C0C  0000              add [eax],al
00002C0E  0000              add [eax],al
00002C10  0000              add [eax],al
00002C12  0000              add [eax],al
00002C14  0000              add [eax],al
00002C16  0000              add [eax],al
00002C18  0000              add [eax],al
00002C1A  0000              add [eax],al
00002C1C  0000              add [eax],al
00002C1E  0000              add [eax],al
00002C20  0000              add [eax],al
00002C22  0000              add [eax],al
00002C24  0000              add [eax],al
00002C26  0000              add [eax],al
00002C28  0000              add [eax],al
00002C2A  0000              add [eax],al
00002C2C  0000              add [eax],al
00002C2E  0000              add [eax],al
00002C30  0000              add [eax],al
00002C32  0000              add [eax],al
00002C34  0000              add [eax],al
00002C36  0000              add [eax],al
00002C38  0000              add [eax],al
00002C3A  0000              add [eax],al
00002C3C  0000              add [eax],al
00002C3E  0000              add [eax],al
00002C40  0000              add [eax],al
00002C42  0000              add [eax],al
00002C44  0000              add [eax],al
00002C46  0000              add [eax],al
00002C48  0000              add [eax],al
00002C4A  0000              add [eax],al
00002C4C  0000              add [eax],al
00002C4E  0000              add [eax],al
00002C50  0000              add [eax],al
00002C52  0000              add [eax],al
00002C54  0000              add [eax],al
00002C56  0000              add [eax],al
00002C58  0000              add [eax],al
00002C5A  0000              add [eax],al
00002C5C  0000              add [eax],al
00002C5E  0000              add [eax],al
00002C60  0000              add [eax],al
00002C62  0000              add [eax],al
00002C64  0000              add [eax],al
00002C66  0000              add [eax],al
00002C68  0000              add [eax],al
00002C6A  0000              add [eax],al
00002C6C  0000              add [eax],al
00002C6E  0000              add [eax],al
00002C70  0000              add [eax],al
00002C72  0000              add [eax],al
00002C74  0000              add [eax],al
00002C76  0000              add [eax],al
00002C78  0000              add [eax],al
00002C7A  0000              add [eax],al
00002C7C  0000              add [eax],al
00002C7E  0000              add [eax],al
00002C80  0000              add [eax],al
00002C82  0000              add [eax],al
00002C84  0000              add [eax],al
00002C86  0000              add [eax],al
00002C88  0000              add [eax],al
00002C8A  0000              add [eax],al
00002C8C  0000              add [eax],al
00002C8E  0000              add [eax],al
00002C90  0000              add [eax],al
00002C92  0000              add [eax],al
00002C94  0000              add [eax],al
00002C96  0000              add [eax],al
00002C98  0000              add [eax],al
00002C9A  0000              add [eax],al
00002C9C  0000              add [eax],al
00002C9E  0000              add [eax],al
00002CA0  0000              add [eax],al
00002CA2  0000              add [eax],al
00002CA4  0000              add [eax],al
00002CA6  0000              add [eax],al
00002CA8  0000              add [eax],al
00002CAA  0000              add [eax],al
00002CAC  0000              add [eax],al
00002CAE  0000              add [eax],al
00002CB0  0000              add [eax],al
00002CB2  0000              add [eax],al
00002CB4  0000              add [eax],al
00002CB6  0000              add [eax],al
00002CB8  0000              add [eax],al
00002CBA  0000              add [eax],al
00002CBC  0000              add [eax],al
00002CBE  0000              add [eax],al
00002CC0  0000              add [eax],al
00002CC2  0000              add [eax],al
00002CC4  0000              add [eax],al
00002CC6  0000              add [eax],al
00002CC8  0000              add [eax],al
00002CCA  0000              add [eax],al
00002CCC  0000              add [eax],al
00002CCE  0000              add [eax],al
00002CD0  0000              add [eax],al
00002CD2  0000              add [eax],al
00002CD4  0000              add [eax],al
00002CD6  0000              add [eax],al
00002CD8  0000              add [eax],al
00002CDA  0000              add [eax],al
00002CDC  0000              add [eax],al
00002CDE  0000              add [eax],al
00002CE0  0000              add [eax],al
00002CE2  0000              add [eax],al
00002CE4  0000              add [eax],al
00002CE6  0000              add [eax],al
00002CE8  0000              add [eax],al
00002CEA  0000              add [eax],al
00002CEC  0000              add [eax],al
00002CEE  0000              add [eax],al
00002CF0  0000              add [eax],al
00002CF2  0000              add [eax],al
00002CF4  0000              add [eax],al
00002CF6  0000              add [eax],al
00002CF8  0000              add [eax],al
00002CFA  0000              add [eax],al
00002CFC  0000              add [eax],al
00002CFE  0000              add [eax],al
00002D00  0000              add [eax],al
00002D02  0000              add [eax],al
00002D04  0000              add [eax],al
00002D06  0000              add [eax],al
00002D08  0000              add [eax],al
00002D0A  0000              add [eax],al
00002D0C  0000              add [eax],al
00002D0E  0000              add [eax],al
00002D10  0000              add [eax],al
00002D12  0000              add [eax],al
00002D14  0000              add [eax],al
00002D16  0000              add [eax],al
00002D18  0000              add [eax],al
00002D1A  0000              add [eax],al
00002D1C  0000              add [eax],al
00002D1E  0000              add [eax],al
00002D20  0000              add [eax],al
00002D22  0000              add [eax],al
00002D24  0000              add [eax],al
00002D26  0000              add [eax],al
00002D28  0000              add [eax],al
00002D2A  0000              add [eax],al
00002D2C  0000              add [eax],al
00002D2E  0000              add [eax],al
00002D30  0000              add [eax],al
00002D32  0000              add [eax],al
00002D34  0000              add [eax],al
00002D36  0000              add [eax],al
00002D38  0000              add [eax],al
00002D3A  0000              add [eax],al
00002D3C  0000              add [eax],al
00002D3E  0000              add [eax],al
00002D40  0000              add [eax],al
00002D42  0000              add [eax],al
00002D44  0000              add [eax],al
00002D46  0000              add [eax],al
00002D48  0000              add [eax],al
00002D4A  0000              add [eax],al
00002D4C  0000              add [eax],al
00002D4E  0000              add [eax],al
00002D50  0000              add [eax],al
00002D52  0000              add [eax],al
00002D54  0000              add [eax],al
00002D56  0000              add [eax],al
00002D58  0000              add [eax],al
00002D5A  0000              add [eax],al
00002D5C  0000              add [eax],al
00002D5E  0000              add [eax],al
00002D60  0000              add [eax],al
00002D62  0000              add [eax],al
00002D64  0000              add [eax],al
00002D66  0000              add [eax],al
00002D68  0000              add [eax],al
00002D6A  0000              add [eax],al
00002D6C  0000              add [eax],al
00002D6E  0000              add [eax],al
00002D70  0000              add [eax],al
00002D72  0000              add [eax],al
00002D74  0000              add [eax],al
00002D76  0000              add [eax],al
00002D78  0000              add [eax],al
00002D7A  0000              add [eax],al
00002D7C  0000              add [eax],al
00002D7E  0000              add [eax],al
00002D80  0000              add [eax],al
00002D82  0000              add [eax],al
00002D84  0000              add [eax],al
00002D86  0000              add [eax],al
00002D88  0000              add [eax],al
00002D8A  0000              add [eax],al
00002D8C  0000              add [eax],al
00002D8E  0000              add [eax],al
00002D90  0000              add [eax],al
00002D92  0000              add [eax],al
00002D94  0000              add [eax],al
00002D96  0000              add [eax],al
00002D98  0000              add [eax],al
00002D9A  0000              add [eax],al
00002D9C  0000              add [eax],al
00002D9E  0000              add [eax],al
00002DA0  0000              add [eax],al
00002DA2  0000              add [eax],al
00002DA4  0000              add [eax],al
00002DA6  0000              add [eax],al
00002DA8  0000              add [eax],al
00002DAA  0000              add [eax],al
00002DAC  0000              add [eax],al
00002DAE  0000              add [eax],al
00002DB0  0000              add [eax],al
00002DB2  0000              add [eax],al
00002DB4  0000              add [eax],al
00002DB6  0000              add [eax],al
00002DB8  0000              add [eax],al
00002DBA  0000              add [eax],al
00002DBC  0000              add [eax],al
00002DBE  0000              add [eax],al
00002DC0  0000              add [eax],al
00002DC2  0000              add [eax],al
00002DC4  0000              add [eax],al
00002DC6  0000              add [eax],al
00002DC8  0000              add [eax],al
00002DCA  0000              add [eax],al
00002DCC  0000              add [eax],al
00002DCE  0000              add [eax],al
00002DD0  0000              add [eax],al
00002DD2  0000              add [eax],al
00002DD4  0000              add [eax],al
00002DD6  0000              add [eax],al
00002DD8  0000              add [eax],al
00002DDA  0000              add [eax],al
00002DDC  0000              add [eax],al
00002DDE  0000              add [eax],al
00002DE0  0000              add [eax],al
00002DE2  0000              add [eax],al
00002DE4  0000              add [eax],al
00002DE6  0000              add [eax],al
00002DE8  0000              add [eax],al
00002DEA  0000              add [eax],al
00002DEC  0000              add [eax],al
00002DEE  0000              add [eax],al
00002DF0  0000              add [eax],al
00002DF2  0000              add [eax],al
00002DF4  0000              add [eax],al
00002DF6  0000              add [eax],al
00002DF8  0000              add [eax],al
00002DFA  0000              add [eax],al
00002DFC  0000              add [eax],al
00002DFE  0000              add [eax],al
00002E00  0000              add [eax],al
00002E02  0000              add [eax],al
00002E04  0000              add [eax],al
00002E06  0000              add [eax],al
00002E08  0000              add [eax],al
00002E0A  0000              add [eax],al
00002E0C  0000              add [eax],al
00002E0E  0000              add [eax],al
00002E10  0000              add [eax],al
00002E12  0000              add [eax],al
00002E14  0000              add [eax],al
00002E16  0000              add [eax],al
00002E18  0000              add [eax],al
00002E1A  0000              add [eax],al
00002E1C  0000              add [eax],al
00002E1E  0000              add [eax],al
00002E20  0000              add [eax],al
00002E22  0000              add [eax],al
00002E24  0000              add [eax],al
00002E26  0000              add [eax],al
00002E28  0000              add [eax],al
00002E2A  0000              add [eax],al
00002E2C  0000              add [eax],al
00002E2E  0000              add [eax],al
00002E30  0000              add [eax],al
00002E32  0000              add [eax],al
00002E34  0000              add [eax],al
00002E36  0000              add [eax],al
00002E38  0000              add [eax],al
00002E3A  0000              add [eax],al
00002E3C  0000              add [eax],al
00002E3E  0000              add [eax],al
00002E40  0000              add [eax],al
00002E42  0000              add [eax],al
00002E44  0000              add [eax],al
00002E46  0000              add [eax],al
00002E48  0000              add [eax],al
00002E4A  0000              add [eax],al
00002E4C  0000              add [eax],al
00002E4E  0000              add [eax],al
00002E50  0000              add [eax],al
00002E52  0000              add [eax],al
00002E54  0000              add [eax],al
00002E56  0000              add [eax],al
00002E58  0000              add [eax],al
00002E5A  0000              add [eax],al
00002E5C  0000              add [eax],al
00002E5E  0000              add [eax],al
00002E60  0000              add [eax],al
00002E62  0000              add [eax],al
00002E64  0000              add [eax],al
00002E66  0000              add [eax],al
00002E68  0000              add [eax],al
00002E6A  0000              add [eax],al
00002E6C  0000              add [eax],al
00002E6E  0000              add [eax],al
00002E70  0000              add [eax],al
00002E72  0000              add [eax],al
00002E74  0000              add [eax],al
00002E76  0000              add [eax],al
00002E78  0000              add [eax],al
00002E7A  0000              add [eax],al
00002E7C  0000              add [eax],al
00002E7E  0000              add [eax],al
00002E80  0000              add [eax],al
00002E82  0000              add [eax],al
00002E84  0000              add [eax],al
00002E86  0000              add [eax],al
00002E88  0000              add [eax],al
00002E8A  0000              add [eax],al
00002E8C  0000              add [eax],al
00002E8E  0000              add [eax],al
00002E90  0000              add [eax],al
00002E92  0000              add [eax],al
00002E94  0000              add [eax],al
00002E96  0000              add [eax],al
00002E98  0000              add [eax],al
00002E9A  0000              add [eax],al
00002E9C  0000              add [eax],al
00002E9E  0000              add [eax],al
00002EA0  0000              add [eax],al
00002EA2  0000              add [eax],al
00002EA4  0000              add [eax],al
00002EA6  0000              add [eax],al
00002EA8  0000              add [eax],al
00002EAA  0000              add [eax],al
00002EAC  0000              add [eax],al
00002EAE  0000              add [eax],al
00002EB0  0000              add [eax],al
00002EB2  0000              add [eax],al
00002EB4  0000              add [eax],al
00002EB6  0000              add [eax],al
00002EB8  0000              add [eax],al
00002EBA  0000              add [eax],al
00002EBC  0000              add [eax],al
00002EBE  0000              add [eax],al
00002EC0  0000              add [eax],al
00002EC2  0000              add [eax],al
00002EC4  0000              add [eax],al
00002EC6  0000              add [eax],al
00002EC8  0000              add [eax],al
00002ECA  0000              add [eax],al
00002ECC  0000              add [eax],al
00002ECE  0000              add [eax],al
00002ED0  0000              add [eax],al
00002ED2  0000              add [eax],al
00002ED4  0000              add [eax],al
00002ED6  0000              add [eax],al
00002ED8  0000              add [eax],al
00002EDA  0000              add [eax],al
00002EDC  0000              add [eax],al
00002EDE  0000              add [eax],al
00002EE0  0000              add [eax],al
00002EE2  0000              add [eax],al
00002EE4  0000              add [eax],al
00002EE6  0000              add [eax],al
00002EE8  0000              add [eax],al
00002EEA  0000              add [eax],al
00002EEC  0000              add [eax],al
00002EEE  0000              add [eax],al
00002EF0  0000              add [eax],al
00002EF2  0000              add [eax],al
00002EF4  0000              add [eax],al
00002EF6  0000              add [eax],al
00002EF8  0000              add [eax],al
00002EFA  0000              add [eax],al
00002EFC  0000              add [eax],al
00002EFE  0000              add [eax],al
00002F00  0000              add [eax],al
00002F02  0000              add [eax],al
00002F04  0000              add [eax],al
00002F06  0000              add [eax],al
00002F08  0000              add [eax],al
00002F0A  0000              add [eax],al
00002F0C  0000              add [eax],al
00002F0E  0000              add [eax],al
00002F10  0000              add [eax],al
00002F12  0000              add [eax],al
00002F14  0000              add [eax],al
00002F16  0000              add [eax],al
00002F18  0000              add [eax],al
00002F1A  0000              add [eax],al
00002F1C  0000              add [eax],al
00002F1E  0000              add [eax],al
00002F20  0000              add [eax],al
00002F22  0000              add [eax],al
00002F24  0000              add [eax],al
00002F26  0000              add [eax],al
00002F28  0000              add [eax],al
00002F2A  0000              add [eax],al
00002F2C  0000              add [eax],al
00002F2E  0000              add [eax],al
00002F30  0000              add [eax],al
00002F32  0000              add [eax],al
00002F34  0000              add [eax],al
00002F36  0000              add [eax],al
00002F38  0000              add [eax],al
00002F3A  0000              add [eax],al
00002F3C  0000              add [eax],al
00002F3E  0000              add [eax],al
00002F40  0000              add [eax],al
00002F42  0000              add [eax],al
00002F44  0000              add [eax],al
00002F46  0000              add [eax],al
00002F48  0000              add [eax],al
00002F4A  0000              add [eax],al
00002F4C  0000              add [eax],al
00002F4E  0000              add [eax],al
00002F50  0000              add [eax],al
00002F52  0000              add [eax],al
00002F54  0000              add [eax],al
00002F56  0000              add [eax],al
00002F58  0000              add [eax],al
00002F5A  0000              add [eax],al
00002F5C  0000              add [eax],al
00002F5E  0000              add [eax],al
00002F60  0000              add [eax],al
00002F62  0000              add [eax],al
00002F64  0000              add [eax],al
00002F66  0000              add [eax],al
00002F68  0000              add [eax],al
00002F6A  0000              add [eax],al
00002F6C  0000              add [eax],al
00002F6E  0000              add [eax],al
00002F70  0000              add [eax],al
00002F72  0000              add [eax],al
00002F74  0000              add [eax],al
00002F76  0000              add [eax],al
00002F78  0000              add [eax],al
00002F7A  0000              add [eax],al
00002F7C  0000              add [eax],al
00002F7E  0000              add [eax],al
00002F80  0000              add [eax],al
00002F82  0000              add [eax],al
00002F84  0000              add [eax],al
00002F86  0000              add [eax],al
00002F88  0000              add [eax],al
00002F8A  0000              add [eax],al
00002F8C  0000              add [eax],al
00002F8E  0000              add [eax],al
00002F90  0000              add [eax],al
00002F92  0000              add [eax],al
00002F94  0000              add [eax],al
00002F96  0000              add [eax],al
00002F98  0000              add [eax],al
00002F9A  0000              add [eax],al
00002F9C  0000              add [eax],al
00002F9E  0000              add [eax],al
00002FA0  0000              add [eax],al
00002FA2  0000              add [eax],al
00002FA4  0000              add [eax],al
00002FA6  0000              add [eax],al
00002FA8  0000              add [eax],al
00002FAA  0000              add [eax],al
00002FAC  0000              add [eax],al
00002FAE  0000              add [eax],al
00002FB0  0000              add [eax],al
00002FB2  0000              add [eax],al
00002FB4  0000              add [eax],al
00002FB6  0000              add [eax],al
00002FB8  0000              add [eax],al
00002FBA  0000              add [eax],al
00002FBC  0000              add [eax],al
00002FBE  0000              add [eax],al
00002FC0  0000              add [eax],al
00002FC2  0000              add [eax],al
00002FC4  0000              add [eax],al
00002FC6  0000              add [eax],al
00002FC8  0000              add [eax],al
00002FCA  0000              add [eax],al
00002FCC  0000              add [eax],al
00002FCE  0000              add [eax],al
00002FD0  0000              add [eax],al
00002FD2  0000              add [eax],al
00002FD4  0000              add [eax],al
00002FD6  0000              add [eax],al
00002FD8  0000              add [eax],al
00002FDA  0000              add [eax],al
00002FDC  0000              add [eax],al
00002FDE  0000              add [eax],al
00002FE0  0000              add [eax],al
00002FE2  0000              add [eax],al
00002FE4  0000              add [eax],al
00002FE6  0000              add [eax],al
00002FE8  0000              add [eax],al
00002FEA  0000              add [eax],al
00002FEC  0000              add [eax],al
00002FEE  0000              add [eax],al
00002FF0  0000              add [eax],al
00002FF2  0000              add [eax],al
00002FF4  0000              add [eax],al
00002FF6  0000              add [eax],al
00002FF8  0000              add [eax],al
00002FFA  0000              add [eax],al
00002FFC  0000              add [eax],al
00002FFE  0000              add [eax],al
00003000  0000              add [eax],al
00003002  0000              add [eax],al
00003004  0000              add [eax],al
00003006  0000              add [eax],al
00003008  0000              add [eax],al
0000300A  0000              add [eax],al
0000300C  0000              add [eax],al
0000300E  0000              add [eax],al
00003010  0000              add [eax],al
00003012  0000              add [eax],al
00003014  0000              add [eax],al
00003016  0000              add [eax],al
00003018  0000              add [eax],al
0000301A  0000              add [eax],al
0000301C  0000              add [eax],al
0000301E  0000              add [eax],al
00003020  0000              add [eax],al
00003022  0000              add [eax],al
00003024  0000              add [eax],al
00003026  0000              add [eax],al
00003028  0000              add [eax],al
0000302A  0000              add [eax],al
0000302C  0000              add [eax],al
0000302E  0000              add [eax],al
00003030  0000              add [eax],al
00003032  0000              add [eax],al
00003034  0000              add [eax],al
00003036  0000              add [eax],al
00003038  0000              add [eax],al
0000303A  0000              add [eax],al
0000303C  0000              add [eax],al
0000303E  0000              add [eax],al
00003040  0000              add [eax],al
00003042  0000              add [eax],al
00003044  0000              add [eax],al
00003046  0000              add [eax],al
00003048  0000              add [eax],al
0000304A  0000              add [eax],al
0000304C  0000              add [eax],al
0000304E  0000              add [eax],al
00003050  0000              add [eax],al
00003052  0000              add [eax],al
00003054  0000              add [eax],al
00003056  0000              add [eax],al
00003058  0000              add [eax],al
0000305A  0000              add [eax],al
0000305C  0000              add [eax],al
0000305E  0000              add [eax],al
00003060  0000              add [eax],al
00003062  0000              add [eax],al
00003064  0000              add [eax],al
00003066  0000              add [eax],al
00003068  0000              add [eax],al
0000306A  0000              add [eax],al
0000306C  0000              add [eax],al
0000306E  0000              add [eax],al
00003070  0000              add [eax],al
00003072  0000              add [eax],al
00003074  0000              add [eax],al
00003076  0000              add [eax],al
00003078  0000              add [eax],al
0000307A  0000              add [eax],al
0000307C  0000              add [eax],al
0000307E  0000              add [eax],al
00003080  0000              add [eax],al
00003082  0000              add [eax],al
00003084  0000              add [eax],al
00003086  0000              add [eax],al
00003088  0000              add [eax],al
0000308A  0000              add [eax],al
0000308C  0000              add [eax],al
0000308E  0000              add [eax],al
00003090  0000              add [eax],al
00003092  0000              add [eax],al
00003094  0000              add [eax],al
00003096  0000              add [eax],al
00003098  0000              add [eax],al
0000309A  0000              add [eax],al
0000309C  0000              add [eax],al
0000309E  0000              add [eax],al
000030A0  0000              add [eax],al
000030A2  0000              add [eax],al
000030A4  0000              add [eax],al
000030A6  0000              add [eax],al
000030A8  0000              add [eax],al
000030AA  0000              add [eax],al
000030AC  0000              add [eax],al
000030AE  0000              add [eax],al
000030B0  0000              add [eax],al
000030B2  0000              add [eax],al
000030B4  0000              add [eax],al
000030B6  0000              add [eax],al
000030B8  0000              add [eax],al
000030BA  0000              add [eax],al
000030BC  0000              add [eax],al
000030BE  0000              add [eax],al
000030C0  0000              add [eax],al
000030C2  0000              add [eax],al
000030C4  0000              add [eax],al
000030C6  0000              add [eax],al
000030C8  0000              add [eax],al
000030CA  0000              add [eax],al
000030CC  0000              add [eax],al
000030CE  0000              add [eax],al
000030D0  0000              add [eax],al
000030D2  0000              add [eax],al
000030D4  0000              add [eax],al
000030D6  0000              add [eax],al
000030D8  0000              add [eax],al
000030DA  0000              add [eax],al
000030DC  0000              add [eax],al
000030DE  0000              add [eax],al
