Archive member included because of file (symbol)

../../../bin/lib/libc.a(amos.o)
                              main.o (_open)
../../../bin/lib/libc.a(stdio.o)
                              main.o (_printf)
../../../bin/lib/libc.a(stdlib.o)
                              main.o (_malloc)
../../../bin/lib/libc.a(string.o)
                              tinysh.o (_strlen)

Memory Configuration

Name             Origin             Length             Attributes
*default*        0x00000000         0xffffffff

Linker script and memory map

                0x00000000                phys = 0x0
                0x10000000                virt = 0x10000000

.text           0x10000000     0x3b10 load address 0x00000000
 *(.text)
 .text          0x10000000      0xd30 main.o
                0x10000c68                _realmain
                0x10000000                _main
                0x10000c3e                _shell_exit
 .text          0x10000d30      0xe50 tinysh.o
                0x10001ad8                _tinysh_atoxi
                0x10000e90                _strstart
                0x10001a82                _tinysh_set_prompt
                0x10001a3c                _tinysh_add_command
                0x10001705                _tinysh_char_in
                0x10001ace                _tinysh_get_arg
 .text          0x10001b80      0x2b0 ../../../bin/lib/libc.a(amos.o)
                0x10001d85                _morecore
                0x10001de2                _sleep
                0x10001d39                _mount
                0x10001dab                _spawn
                0x10001b80                _open
                0x10001bb7                _clone
                0x10001d07                _list
                0x10001cd8                _copy
                0x10001c8f                _delete
                0x10001c35                _seek
                0x10001e08                _wait
                0x10001dee                _wake
                0x10001ca9                _rename
                0x10001c75                _create
                0x10001d6b                _unmount
                0x10001c55                _control
                0x10001c03                _write
                0x10001dc8                _kill
                0x10001bd1                _read
                0x10001d9f                _exit
                0x10001b9d                _close
 .text          0x10001e30      0x470 ../../../bin/lib/libc.a(stdio.o)
                0x10002254                _putchar
                0x100021d7                _get
                0x10001e30                _printf_putuint
                0x10002272                _puts
                0x10001f54                _printf_puthex
                0x10001efa                _printf_putint
                0x100021ba                _getch
                0x10001ffc                _print
                0x100021a1                _printf
 .text          0x100022a0      0x1e0 ../../../bin/lib/libc.a(stdlib.o)
                0x1000237c                _free
                0x100023e7                _atoi
                0x100022a0                _malloc
 .text          0x10002480      0x200 ../../../bin/lib/libc.a(string.o)
                0x100024c2                _strcmp
                0x1000254c                _strncpy
                0x1000260e                _memcpy
                0x100025e7                _memset
                0x10002534                _strcpy
                0x10002634                _memcmp
                0x100024e2                _strncmp
                0x10002499                _strrchr
                0x10002480                _strlen
                0x1000258d                _strstr
                0x10002680                . = ALIGN (0x4)
 *(.data)
 .data          0x10002680      0x160 main.o
 .data          0x100027e0       0xa0 tinysh.o
 .data          0x10002880       0x10 ../../../bin/lib/libc.a(stdlib.o)
                0x10002890                . = ALIGN (0x4)
 *(COMMON)
                0x10002890                . = ALIGN (0x4)
 *(.bss)
 .bss           0x10002890     0x1280 tinysh.o
                0x10003b10                . = ALIGN (0x4)
LOAD main.o
LOAD tinysh.o
LOAD ../../../bin/lib/libc.a
OUTPUT(../../../bin/apps/shell.bin binary)

.comment
