
Memory Configuration

Name             Origin             Length             Attributes
*default*        0x00000000         0xffffffff

Linker script and memory map

                0x00000000                phys = 0x0
                0x10000000                virt = 0x10000000

.text           0x10000000      0xc20 load address 0x00000000
 *(.text)
 .text          0x10000000      0x310 test.o
                0x10000021                _atoi
                0x100001dc                _realmain
                0x10000000                _main
 .text          0x10000310      0x2b0 ../../lib/amos.o
                0x10000515                _morecore
                0x10000572                _sleep
                0x100004c9                _mount
                0x1000053b                _spawn
                0x10000310                _open
                0x10000347                _clone
                0x10000497                _list
                0x10000468                _copy
                0x1000041f                _delete
                0x100003c5                _seek
                0x10000598                _wait
                0x1000057e                _wake
                0x10000439                _rename
                0x10000405                _create
                0x100004fb                _unmount
                0x100003e5                _control
                0x10000393                _write
                0x10000558                _kill
                0x10000361                _read
                0x1000052f                _exit
                0x1000032d                _close
 .text          0x100005c0      0x430 ../../lib/printf.o
                0x10000967                _get
                0x100005c0                _printf_putuint
                0x100006e4                _printf_puthex
                0x1000068a                _printf_putint
                0x1000094a                _getch
                0x1000078c                _print
                0x10000931                _printf
 .text          0x100009f0      0x230 ../../lib/string.o
                0x10000a32                _strcmp
                0x10000b57                _toupper
                0x10000abc                _strncpy
                0x10000ba8                _memcpy
                0x10000b81                _memset
                0x10000b6c                _tolower
                0x10000aa4                _strcpy
                0x10000bce                _memcmp
                0x10000a52                _strncmp
                0x10000a09                _strrchr
                0x100009f0                _strlen
                0x10000afd                _strstr
                0x10000c20                . = ALIGN (0x10)
 *(.data)
                0x10000c20                . = ALIGN (0x10)
                0x10000c20                bss = .
 *(.bss)
                0x10000c20                . = ALIGN (0x10)
 *(COMMON)
                0x10000c20                . = ALIGN (0x10)
LOAD test.o
LOAD ../../lib/amos.o
LOAD ../../lib/printf.o
LOAD ../../lib/string.o
OUTPUT(../../../bin/apps/test.bin binary)

.comment
