
kernel.elf:     file format elf32-i386

Disassembly of section .setup:

00100000 <_setup>:
  100000:	53             	pushl  %ebx
  100001:	b8 00 d0 09 00 	movl   $0x9d000,%eax
  100006:	bb 03 00 00 00 	movl   $0x3,%ebx
  10000b:	e8 3e 00 00 00 	call   10004e <map>
  100010:	b8 00 e0 09 00 	movl   $0x9e000,%eax
  100015:	bb 03 00 10 00 	movl   $0x100003,%ebx
  10001a:	e8 2f 00 00 00 	call   10004e <map>
  10001f:	c7 05 00 c0 09 	movl   $0x9d003,0x9c000
  100024:	00 03 d0 09 00 
  100029:	c7 05 00 cc 09 	movl   $0x9e003,0x9cc00
  10002e:	00 03 e0 09 00 
  100033:	b8 00 c0 09 00 	movl   $0x9c000,%eax
  100038:	0f 22 d8       	movl   %eax,%cr3
  10003b:	0f 20 c0       	movl   %cr0,%eax
  10003e:	0d 00 00 00 80 	orl    $0x80000000,%eax
  100043:	0f 22 c0       	movl   %eax,%cr0
  100046:	5b             	popl   %ebx
  100047:	ea 00 10 00 c0 	ljmp   0x8,0xc0001000
  10004c:	08 00 

0010004e <map>:
  10004e:	b9 00 04 00 00 	movl   $0x400,%ecx

00100053 <lmap>:
  100053:	89 18          	movl   %ebx,(%eax)
  100055:	05 04 00 00 00 	addl   $0x4,%eax
  10005a:	81 c3 00 10 00 	addl   $0x1000,%ebx
  10005f:	00 
  100060:	e2 f1          	loop   100053 <lmap>
  100062:	c3             	ret    
  100063:	90             	nop    

00100064 <boot>:
  100064:	02 b0 ad 1b 03 	addb   0x31bad(%eax),%dh
  100069:	00 
  10006a:	00 00          	addb   %al,(%eax)
  10006c:	fb             	sti    
  10006d:	4f             	decl   %edi
  10006e:	52             	pushl  %edx
  10006f:	e4 00          	inb    $0x0,%al
	...
Disassembly of section .kernel:

c0001000 <_start>:
c0001000:	bc 00 50 00 c0 	movl   $0xc0005000,%esp
c0001005:	68 00 00 00 00 	pushl  $0x0
c000100a:	9d             	popf   
c000100b:	31 c0          	xorl   %eax,%eax
c000100d:	bf 00 40 00 c0 	movl   $0xc0004000,%edi
c0001012:	b9 00 80 00 c0 	movl   $0xc0008000,%ecx
c0001017:	29 f9          	subl   %edi,%ecx
c0001019:	c1 e9 02       	shrl   $0x2,%ecx
c000101c:	f3 ab          	repz stosl %eax,%es:(%edi)
c000101e:	53             	pushl  %ebx
c000101f:	e8 38 02 00 00 	call   c000125c <_kernel_init>
c0001024:	f4             	hlt    

c0001025 <isr_common_stub>:
c0001025:	60             	pusha  
c0001026:	1e             	pushl  %ds
c0001027:	06             	pushl  %es
c0001028:	0f a0          	pushl  %fs
c000102a:	0f a8          	pushl  %gs
c000102c:	89 25 0c 50 00 	movl   %esp,0xc000500c
c0001031:	c0 
c0001032:	54             	pushl  %esp
c0001033:	b8 b1 1e 00 c0 	movl   $0xc0001eb1,%eax
c0001038:	ff d0          	call   *%eax
c000103a:	85 c0          	testl  %eax,%eax
c000103c:	74 05          	je     c0001043 <movealong>
c000103e:	a3 0c 50 00 c0 	movl   %eax,0xc000500c

c0001043 <movealong>:
c0001043:	8b 25 0c 50 00 	movl   0xc000500c,%esp
c0001048:	c0 
c0001049:	0f a9          	popl   %gs
c000104b:	0f a1          	popl   %fs
c000104d:	07             	popl   %es
c000104e:	1f             	popl   %ds
c000104f:	61             	popa   
c0001050:	81 c4 08 00 00 	addl   $0x8,%esp
c0001055:	00 
c0001056:	cf             	iret   

c0001057 <_isr00>:
c0001057:	fa             	cli    
c0001058:	6a 00          	pushl  $0x0
c000105a:	6a 00          	pushl  $0x0
c000105c:	eb c7          	jmp    c0001025 <isr_common_stub>

c000105e <_isr01>:
c000105e:	fa             	cli    
c000105f:	6a 00          	pushl  $0x0
c0001061:	6a 01          	pushl  $0x1
c0001063:	eb c0          	jmp    c0001025 <isr_common_stub>

c0001065 <_isr02>:
c0001065:	fa             	cli    
c0001066:	6a 00          	pushl  $0x0
c0001068:	6a 02          	pushl  $0x2
c000106a:	eb b9          	jmp    c0001025 <isr_common_stub>

c000106c <_isr03>:
c000106c:	fa             	cli    
c000106d:	6a 00          	pushl  $0x0
c000106f:	6a 03          	pushl  $0x3
c0001071:	eb b2          	jmp    c0001025 <isr_common_stub>

c0001073 <_isr04>:
c0001073:	fa             	cli    
c0001074:	6a 00          	pushl  $0x0
c0001076:	6a 04          	pushl  $0x4
c0001078:	eb ab          	jmp    c0001025 <isr_common_stub>

c000107a <_isr05>:
c000107a:	fa             	cli    
c000107b:	6a 00          	pushl  $0x0
c000107d:	6a 05          	pushl  $0x5
c000107f:	eb a4          	jmp    c0001025 <isr_common_stub>

c0001081 <_isr06>:
c0001081:	fa             	cli    
c0001082:	6a 00          	pushl  $0x0
c0001084:	6a 06          	pushl  $0x6
c0001086:	eb 9d          	jmp    c0001025 <isr_common_stub>

c0001088 <_isr07>:
c0001088:	fa             	cli    
c0001089:	6a 00          	pushl  $0x0
c000108b:	6a 07          	pushl  $0x7
c000108d:	eb 96          	jmp    c0001025 <isr_common_stub>

c000108f <_isr08>:
c000108f:	fa             	cli    
c0001090:	6a 08          	pushl  $0x8
c0001092:	eb 91          	jmp    c0001025 <isr_common_stub>

c0001094 <_isr09>:
c0001094:	fa             	cli    
c0001095:	6a 00          	pushl  $0x0
c0001097:	6a 09          	pushl  $0x9
c0001099:	eb 8a          	jmp    c0001025 <isr_common_stub>

c000109b <_isr10>:
c000109b:	fa             	cli    
c000109c:	6a 0a          	pushl  $0xa
c000109e:	eb 85          	jmp    c0001025 <isr_common_stub>

c00010a0 <_isr11>:
c00010a0:	fa             	cli    
c00010a1:	6a 0b          	pushl  $0xb
c00010a3:	eb 80          	jmp    c0001025 <isr_common_stub>

c00010a5 <_isr12>:
c00010a5:	fa             	cli    
c00010a6:	6a 0c          	pushl  $0xc
c00010a8:	e9 78 ff ff ff 	jmp    c0001025 <isr_common_stub>

c00010ad <_isr13>:
c00010ad:	fa             	cli    
c00010ae:	6a 0d          	pushl  $0xd
c00010b0:	e9 70 ff ff ff 	jmp    c0001025 <isr_common_stub>

c00010b5 <_isr14>:
c00010b5:	fa             	cli    
c00010b6:	6a 0e          	pushl  $0xe
c00010b8:	e9 68 ff ff ff 	jmp    c0001025 <isr_common_stub>

c00010bd <_isr15>:
c00010bd:	fa             	cli    
c00010be:	6a 00          	pushl  $0x0
c00010c0:	6a 0f          	pushl  $0xf
c00010c2:	e9 5e ff ff ff 	jmp    c0001025 <isr_common_stub>

c00010c7 <_isr16>:
c00010c7:	fa             	cli    
c00010c8:	6a 00          	pushl  $0x0
c00010ca:	6a 10          	pushl  $0x10
c00010cc:	e9 54 ff ff ff 	jmp    c0001025 <isr_common_stub>

c00010d1 <_isr17>:
c00010d1:	fa             	cli    
c00010d2:	6a 00          	pushl  $0x0
c00010d4:	6a 11          	pushl  $0x11
c00010d6:	e9 4a ff ff ff 	jmp    c0001025 <isr_common_stub>

c00010db <_isr18>:
c00010db:	fa             	cli    
c00010dc:	6a 00          	pushl  $0x0
c00010de:	6a 12          	pushl  $0x12
c00010e0:	e9 40 ff ff ff 	jmp    c0001025 <isr_common_stub>

c00010e5 <_isr19>:
c00010e5:	fa             	cli    
c00010e6:	6a 00          	pushl  $0x0
c00010e8:	6a 13          	pushl  $0x13
c00010ea:	e9 36 ff ff ff 	jmp    c0001025 <isr_common_stub>

c00010ef <_isr20>:
c00010ef:	fa             	cli    
c00010f0:	6a 00          	pushl  $0x0
c00010f2:	6a 14          	pushl  $0x14
c00010f4:	e9 2c ff ff ff 	jmp    c0001025 <isr_common_stub>

c00010f9 <_isr21>:
c00010f9:	fa             	cli    
c00010fa:	6a 00          	pushl  $0x0
c00010fc:	6a 15          	pushl  $0x15
c00010fe:	e9 22 ff ff ff 	jmp    c0001025 <isr_common_stub>

c0001103 <_isr22>:
c0001103:	fa             	cli    
c0001104:	6a 00          	pushl  $0x0
c0001106:	6a 16          	pushl  $0x16
c0001108:	e9 18 ff ff ff 	jmp    c0001025 <isr_common_stub>

c000110d <_isr23>:
c000110d:	fa             	cli    
c000110e:	6a 00          	pushl  $0x0
c0001110:	6a 17          	pushl  $0x17
c0001112:	e9 0e ff ff ff 	jmp    c0001025 <isr_common_stub>

c0001117 <_isr24>:
c0001117:	fa             	cli    
c0001118:	6a 00          	pushl  $0x0
c000111a:	6a 18          	pushl  $0x18
c000111c:	e9 04 ff ff ff 	jmp    c0001025 <isr_common_stub>

c0001121 <_isr25>:
c0001121:	fa             	cli    
c0001122:	6a 00          	pushl  $0x0
c0001124:	6a 19          	pushl  $0x19
c0001126:	e9 fa fe ff ff 	jmp    c0001025 <isr_common_stub>

c000112b <_isr26>:
c000112b:	fa             	cli    
c000112c:	6a 00          	pushl  $0x0
c000112e:	6a 1a          	pushl  $0x1a
c0001130:	e9 f0 fe ff ff 	jmp    c0001025 <isr_common_stub>

c0001135 <_isr27>:
c0001135:	fa             	cli    
c0001136:	6a 00          	pushl  $0x0
c0001138:	6a 1b          	pushl  $0x1b
c000113a:	e9 e6 fe ff ff 	jmp    c0001025 <isr_common_stub>

c000113f <_isr28>:
c000113f:	fa             	cli    
c0001140:	6a 00          	pushl  $0x0
c0001142:	6a 1c          	pushl  $0x1c
c0001144:	e9 dc fe ff ff 	jmp    c0001025 <isr_common_stub>

c0001149 <_isr29>:
c0001149:	fa             	cli    
c000114a:	6a 00          	pushl  $0x0
c000114c:	6a 1d          	pushl  $0x1d
c000114e:	e9 d2 fe ff ff 	jmp    c0001025 <isr_common_stub>

c0001153 <_isr30>:
c0001153:	fa             	cli    
c0001154:	6a 00          	pushl  $0x0
c0001156:	6a 1e          	pushl  $0x1e
c0001158:	e9 c8 fe ff ff 	jmp    c0001025 <isr_common_stub>

c000115d <_isr31>:
c000115d:	fa             	cli    
c000115e:	6a 00          	pushl  $0x0
c0001160:	6a 1f          	pushl  $0x1f
c0001162:	e9 be fe ff ff 	jmp    c0001025 <isr_common_stub>

c0001167 <_irq00>:
c0001167:	fa             	cli    
c0001168:	6a 00          	pushl  $0x0
c000116a:	6a 20          	pushl  $0x20
c000116c:	e9 b4 fe ff ff 	jmp    c0001025 <isr_common_stub>

c0001171 <_irq01>:
c0001171:	fa             	cli    
c0001172:	6a 00          	pushl  $0x0
c0001174:	6a 21          	pushl  $0x21
c0001176:	e9 aa fe ff ff 	jmp    c0001025 <isr_common_stub>

c000117b <_irq02>:
c000117b:	fa             	cli    
c000117c:	6a 00          	pushl  $0x0
c000117e:	6a 22          	pushl  $0x22
c0001180:	e9 a0 fe ff ff 	jmp    c0001025 <isr_common_stub>

c0001185 <_irq03>:
c0001185:	fa             	cli    
c0001186:	6a 00          	pushl  $0x0
c0001188:	6a 23          	pushl  $0x23
c000118a:	e9 96 fe ff ff 	jmp    c0001025 <isr_common_stub>

c000118f <_irq04>:
c000118f:	fa             	cli    
c0001190:	6a 00          	pushl  $0x0
c0001192:	6a 24          	pushl  $0x24
c0001194:	e9 8c fe ff ff 	jmp    c0001025 <isr_common_stub>

c0001199 <_irq05>:
c0001199:	fa             	cli    
c000119a:	6a 00          	pushl  $0x0
c000119c:	6a 25          	pushl  $0x25
c000119e:	e9 82 fe ff ff 	jmp    c0001025 <isr_common_stub>

c00011a3 <_irq06>:
c00011a3:	fa             	cli    
c00011a4:	6a 00          	pushl  $0x0
c00011a6:	6a 26          	pushl  $0x26
c00011a8:	e9 78 fe ff ff 	jmp    c0001025 <isr_common_stub>

c00011ad <_irq07>:
c00011ad:	fa             	cli    
c00011ae:	6a 00          	pushl  $0x0
c00011b0:	6a 27          	pushl  $0x27
c00011b2:	e9 6e fe ff ff 	jmp    c0001025 <isr_common_stub>

c00011b7 <_irq08>:
c00011b7:	fa             	cli    
c00011b8:	6a 00          	pushl  $0x0
c00011ba:	6a 28          	pushl  $0x28
c00011bc:	e9 64 fe ff ff 	jmp    c0001025 <isr_common_stub>

c00011c1 <_irq09>:
c00011c1:	fa             	cli    
c00011c2:	6a 00          	pushl  $0x0
c00011c4:	6a 29          	pushl  $0x29
c00011c6:	e9 5a fe ff ff 	jmp    c0001025 <isr_common_stub>

c00011cb <_irq10>:
c00011cb:	fa             	cli    
c00011cc:	6a 00          	pushl  $0x0
c00011ce:	6a 2a          	pushl  $0x2a
c00011d0:	e9 50 fe ff ff 	jmp    c0001025 <isr_common_stub>

c00011d5 <_irq11>:
c00011d5:	fa             	cli    
c00011d6:	6a 00          	pushl  $0x0
c00011d8:	6a 2b          	pushl  $0x2b
c00011da:	e9 46 fe ff ff 	jmp    c0001025 <isr_common_stub>

c00011df <_irq12>:
c00011df:	fa             	cli    
c00011e0:	6a 00          	pushl  $0x0
c00011e2:	6a 2c          	pushl  $0x2c
c00011e4:	e9 3c fe ff ff 	jmp    c0001025 <isr_common_stub>

c00011e9 <_irq13>:
c00011e9:	fa             	cli    
c00011ea:	6a 00          	pushl  $0x0
c00011ec:	6a 2d          	pushl  $0x2d
c00011ee:	e9 32 fe ff ff 	jmp    c0001025 <isr_common_stub>

c00011f3 <_irq14>:
c00011f3:	fa             	cli    
c00011f4:	6a 00          	pushl  $0x0
c00011f6:	6a 2e          	pushl  $0x2e
c00011f8:	e9 28 fe ff ff 	jmp    c0001025 <isr_common_stub>

c00011fd <_irq15>:
c00011fd:	fa             	cli    
c00011fe:	6a 00          	pushl  $0x0
c0001200:	6a 2f          	pushl  $0x2f
c0001202:	e9 1e fe ff ff 	jmp    c0001025 <isr_common_stub>
	...

c0001210 <_memset>:
c0001210:	8b 4c 24 0c    	movl   0xc(%esp,1),%ecx
c0001214:	8a 44 24 08    	movb   0x8(%esp,1),%al
c0001218:	85 c9          	testl  %ecx,%ecx
c000121a:	74 0d          	je     c0001229 <_memset+0x19>
c000121c:	8b 54 24 04    	movl   0x4(%esp,1),%edx
c0001220:	01 d1          	addl   %edx,%ecx
c0001222:	88 02          	movb   %al,(%edx)
c0001224:	42             	incl   %edx
c0001225:	39 d1          	cmpl   %edx,%ecx
c0001227:	75 f9          	jne    c0001222 <_memset+0x12>
c0001229:	8b 44 24 04    	movl   0x4(%esp,1),%eax
c000122d:	c3             	ret    

c000122e <_inportb>:
c000122e:	8b 54 24 04    	movl   0x4(%esp,1),%edx
c0001232:	ec             	inb    (%dx),%al
c0001233:	25 ff 00 00 00 	andl   $0xff,%eax
c0001238:	c3             	ret    

c0001239 <_outportb>:
c0001239:	8b 54 24 04    	movl   0x4(%esp,1),%edx
c000123d:	8a 44 24 08    	movb   0x8(%esp,1),%al
c0001241:	ee             	outb   %al,(%dx)
c0001242:	c3             	ret    

c0001243 <_kernel_lock>:
c0001243:	fa             	cli    
c0001244:	ff 05 00 50 00 	incl   0xc0005000
c0001249:	c0 
c000124a:	c3             	ret    

c000124b <_kernel_unlock>:
c000124b:	a1 00 50 00 c0 	movl   0xc0005000,%eax
c0001250:	48             	decl   %eax
c0001251:	a3 00 50 00 c0 	movl   %eax,0xc0005000
c0001256:	85 c0          	testl  %eax,%eax
c0001258:	75 01          	jne    c000125b <_kernel_unlock+0x10>
c000125a:	fb             	sti    
c000125b:	c3             	ret    

c000125c <_kernel_init>:
c000125c:	83 ec 0c       	subl   $0xc,%esp
c000125f:	fa             	cli    
c0001260:	ff 05 00 50 00 	incl   0xc0005000
c0001265:	c0 
c0001266:	e8 97 06 00 00 	call   c0001902 <_console_init>
c000126b:	e8 53 08 00 00 	call   c0001ac3 <_gdt_init>
c0001270:	e8 8a 09 00 00 	call   c0001bff <_idt_init>
c0001275:	e8 a1 0a 00 00 	call   c0001d1b <_irq_init>
c000127a:	83 ec 0c       	subl   $0xc,%esp
c000127d:	8b 44 24 1c    	movl   0x1c(%esp,1),%eax
c0001281:	ff 70 08       	pushl  0x8(%eax)
c0001284:	e8 47 11 00 00 	call   c00023d0 <_mm_init>
c0001289:	e8 b5 1a 00 00 	call   c0002d43 <_scheduler_init>
c000128e:	a1 00 50 00 c0 	movl   0xc0005000,%eax
c0001293:	48             	decl   %eax
c0001294:	a3 00 50 00 c0 	movl   %eax,0xc0005000
c0001299:	83 c4 10       	addl   $0x10,%esp
c000129c:	85 c0          	testl  %eax,%eax
c000129e:	75 01          	jne    c00012a1 <_kernel_init+0x45>
c00012a0:	fb             	sti    
c00012a1:	eb fe          	jmp    c00012a1 <_kernel_init+0x45>
c00012a3:	90             	nop    
c00012a4:	90             	nop    
c00012a5:	90             	nop    
c00012a6:	90             	nop    
c00012a7:	90             	nop    
c00012a8:	90             	nop    
c00012a9:	90             	nop    
c00012aa:	90             	nop    
c00012ab:	90             	nop    
c00012ac:	90             	nop    
c00012ad:	90             	nop    
c00012ae:	90             	nop    
c00012af:	90             	nop    

c00012b0 <_kprintf>:
c00012b0:	57             	pushl  %edi
c00012b1:	56             	pushl  %esi
c00012b2:	53             	pushl  %ebx
c00012b3:	8d 74 24 14    	leal   0x14(%esp,1),%esi
c00012b7:	bf 00 00 00 00 	movl   $0x0,%edi
c00012bc:	e9 35 01 00 00 	jmp    c00013f6 <_kprintf+0x146>
c00012c1:	3c 25          	cmpb   $0x25,%al
c00012c3:	0f 85 1b 01 00 	jne    c00013e4 <_kprintf+0x134>
c00012c8:	00 
c00012c9:	8a 54 17 01    	movb   0x1(%edi,%edx,1),%dl
c00012cd:	0f be c2       	movsbl %dl,%eax
c00012d0:	83 e8 63       	subl   $0x63,%eax
c00012d3:	83 f8 15       	cmpl   $0x15,%eax
c00012d6:	0f 87 ec 00 00 	ja     c00013c8 <_kprintf+0x118>
c00012db:	00 
c00012dc:	ff 24 85 e4 12 	jmp    *0xc00012e4(,%eax,4)
c00012e1:	00 c0 
c00012e3:	90             	nop    
c00012e4:	68 13 00 c0 80 	pushl  $0x80c00013
c00012e9:	13 00          	adcl   (%eax),%eax
c00012eb:	c0 c8 13       	rorb   $0x13,%al
c00012ee:	00 c0          	addb   %al,%al
c00012f0:	c8 13 00 c0    	enter  $0x13,$0xc0
c00012f4:	c8 13 00 c0    	enter  $0x13,$0xc0
c00012f8:	c8 13 00 c0    	enter  $0x13,$0xc0
c00012fc:	92             	xchgl  %eax,%edx
c00012fd:	13 00          	adcl   (%eax),%eax
c00012ff:	c0 c8 13       	rorb   $0x13,%al
c0001302:	00 c0          	addb   %al,%al
c0001304:	c8 13 00 c0    	enter  $0x13,$0xc0
c0001308:	c8 13 00 c0    	enter  $0x13,$0xc0
c000130c:	c8 13 00 c0    	enter  $0x13,$0xc0
c0001310:	c8 13 00 c0    	enter  $0x13,$0xc0
c0001314:	c8 13 00 c0    	enter  $0x13,$0xc0
c0001318:	c8 13 00 c0    	enter  $0x13,$0xc0
c000131c:	c8 13 00 c0    	enter  $0x13,$0xc0
c0001320:	c8 13 00 c0    	enter  $0x13,$0xc0
c0001324:	3c 13          	cmpb   $0x13,%al
c0001326:	00 c0          	addb   %al,%al
c0001328:	c8 13 00 c0    	enter  $0x13,$0xc0
c000132c:	a4             	movsb  %ds:(%esi),%es:(%edi)
c000132d:	13 00          	adcl   (%eax),%eax
c000132f:	c0 c8 13       	rorb   $0x13,%al
c0001332:	00 c0          	addb   %al,%al
c0001334:	c8 13 00 c0    	enter  $0x13,$0xc0
c0001338:	b6 13          	movb   $0x13,%dh
c000133a:	00 c0          	addb   %al,%al
c000133c:	8d 5e 04       	leal   0x4(%esi),%ebx
c000133f:	8b 16          	movl   (%esi),%edx
c0001341:	8a 02          	movb   (%edx),%al
c0001343:	84 c0          	testb  %al,%al
c0001345:	0f 84 92 00 00 	je     c00013dd <_kprintf+0x12d>
c000134a:	00 
c000134b:	89 d6          	movl   %edx,%esi
c000134d:	83 ec 0c       	subl   $0xc,%esp
c0001350:	25 ff 00 00 00 	andl   $0xff,%eax
c0001355:	50             	pushl  %eax
c0001356:	e8 45 02 00 00 	call   c00015a0 <_console_putch>
c000135b:	8a 46 01       	movb   0x1(%esi),%al
c000135e:	46             	incl   %esi
c000135f:	83 c4 10       	addl   $0x10,%esp
c0001362:	84 c0          	testb  %al,%al
c0001364:	74 77          	je     c00013dd <_kprintf+0x12d>
c0001366:	eb e5          	jmp    c000134d <_kprintf+0x9d>
c0001368:	8d 5e 04       	leal   0x4(%esi),%ebx
c000136b:	83 ec 0c       	subl   $0xc,%esp
c000136e:	b8 00 00 00 00 	movl   $0x0,%eax
c0001373:	8a 06          	movb   (%esi),%al
c0001375:	50             	pushl  %eax
c0001376:	e8 25 02 00 00 	call   c00015a0 <_console_putch>
c000137b:	83 c4 10       	addl   $0x10,%esp
c000137e:	eb 5d          	jmp    c00013dd <_kprintf+0x12d>
c0001380:	8d 5e 04       	leal   0x4(%esi),%ebx
c0001383:	83 ec 0c       	subl   $0xc,%esp
c0001386:	ff 36          	pushl  (%esi)
c0001388:	e8 7c 00 00 00 	call   c0001409 <_console_putint>
c000138d:	83 c4 10       	addl   $0x10,%esp
c0001390:	eb 4b          	jmp    c00013dd <_kprintf+0x12d>
c0001392:	8d 5e 04       	leal   0x4(%esi),%ebx
c0001395:	83 ec 0c       	subl   $0xc,%esp
c0001398:	ff 36          	pushl  (%esi)
c000139a:	e8 6a 00 00 00 	call   c0001409 <_console_putint>
c000139f:	83 c4 10       	addl   $0x10,%esp
c00013a2:	eb 39          	jmp    c00013dd <_kprintf+0x12d>
c00013a4:	8d 5e 04       	leal   0x4(%esi),%ebx
c00013a7:	83 ec 0c       	subl   $0xc,%esp
c00013aa:	ff 36          	pushl  (%esi)
c00013ac:	e8 27 01 00 00 	call   c00014d8 <_console_putuint>
c00013b1:	83 c4 10       	addl   $0x10,%esp
c00013b4:	eb 27          	jmp    c00013dd <_kprintf+0x12d>
c00013b6:	8d 5e 04       	leal   0x4(%esi),%ebx
c00013b9:	83 ec 0c       	subl   $0xc,%esp
c00013bc:	ff 36          	pushl  (%esi)
c00013be:	e8 8e 00 00 00 	call   c0001451 <_console_puthex>
c00013c3:	83 c4 10       	addl   $0x10,%esp
c00013c6:	eb 15          	jmp    c00013dd <_kprintf+0x12d>
c00013c8:	83 ec 0c       	subl   $0xc,%esp
c00013cb:	b8 00 00 00 00 	movl   $0x0,%eax
c00013d0:	88 d0          	movb   %dl,%al
c00013d2:	50             	pushl  %eax
c00013d3:	e8 c8 01 00 00 	call   c00015a0 <_console_putch>
c00013d8:	89 f3          	movl   %esi,%ebx
c00013da:	83 c4 10       	addl   $0x10,%esp
c00013dd:	83 c7 02       	addl   $0x2,%edi
c00013e0:	89 de          	movl   %ebx,%esi
c00013e2:	eb 12          	jmp    c00013f6 <_kprintf+0x146>
c00013e4:	83 ec 0c       	subl   $0xc,%esp
c00013e7:	25 ff 00 00 00 	andl   $0xff,%eax
c00013ec:	50             	pushl  %eax
c00013ed:	e8 ae 01 00 00 	call   c00015a0 <_console_putch>
c00013f2:	47             	incl   %edi
c00013f3:	83 c4 10       	addl   $0x10,%esp
c00013f6:	8b 54 24 10    	movl   0x10(%esp,1),%edx
c00013fa:	8a 04 3a       	movb   (%edx,%edi,1),%al
c00013fd:	84 c0          	testb  %al,%al
c00013ff:	0f 85 bc fe ff 	jne    c00012c1 <_kprintf+0x11>
c0001404:	ff 
c0001405:	5b             	popl   %ebx
c0001406:	5e             	popl   %esi
c0001407:	5f             	popl   %edi
c0001408:	c3             	ret    

c0001409 <_console_putint>:
c0001409:	53             	pushl  %ebx
c000140a:	83 ec 08       	subl   $0x8,%esp
c000140d:	8b 5c 24 10    	movl   0x10(%esp,1),%ebx
c0001411:	85 db          	testl  %ebx,%ebx
c0001413:	78 0e          	js     c0001423 <_console_putint+0x1a>
c0001415:	83 ec 0c       	subl   $0xc,%esp
c0001418:	53             	pushl  %ebx
c0001419:	e8 ba 00 00 00 	call   c00014d8 <_console_putuint>
c000141e:	83 c4 10       	addl   $0x10,%esp
c0001421:	eb 19          	jmp    c000143c <_console_putint+0x33>
c0001423:	83 ec 0c       	subl   $0xc,%esp
c0001426:	6a 2d          	pushl  $0x2d
c0001428:	e8 73 01 00 00 	call   c00015a0 <_console_putch>
c000142d:	89 d8          	movl   %ebx,%eax
c000142f:	f7 d8          	negl   %eax
c0001431:	89 04 24       	movl   %eax,(%esp,1)
c0001434:	e8 9f 00 00 00 	call   c00014d8 <_console_putuint>
c0001439:	83 c4 10       	addl   $0x10,%esp
c000143c:	83 c4 08       	addl   $0x8,%esp
c000143f:	5b             	popl   %ebx
c0001440:	c3             	ret    

c0001441 <_hex.977>:
c0001441:	30 31          	xorb   %dh,(%ecx)
c0001443:	32 33          	xorb   (%ebx),%dh
c0001445:	34 35          	xorb   $0x35,%al
c0001447:	36 37          	aaa    
c0001449:	38 39          	cmpb   %bh,(%ecx)
c000144b:	41             	incl   %ecx
c000144c:	42             	incl   %edx
c000144d:	43             	incl   %ebx
c000144e:	44             	incl   %esp
c000144f:	45             	incl   %ebp
c0001450:	46             	incl   %esi

c0001451 <_console_puthex>:
c0001451:	56             	pushl  %esi
c0001452:	53             	pushl  %ebx
c0001453:	83 ec 10       	subl   $0x10,%esp
c0001456:	6a 30          	pushl  $0x30
c0001458:	e8 43 01 00 00 	call   c00015a0 <_console_putch>
c000145d:	c7 04 24 78 00 	movl   $0x78,(%esp,1)
c0001462:	00 00 
c0001464:	e8 37 01 00 00 	call   c00015a0 <_console_putch>
c0001469:	8b 44 24 20    	movl   0x20(%esp,1),%eax
c000146d:	c1 e8 1c       	shrl   $0x1c,%eax
c0001470:	83 c4 10       	addl   $0x10,%esp
c0001473:	be 00 00 00 10 	movl   $0x10000000,%esi
c0001478:	85 c0          	testl  %eax,%eax
c000147a:	74 06          	je     c0001482 <_console_puthex+0x31>
c000147c:	8b 44 24 10    	movl   0x10(%esp,1),%eax
c0001480:	eb 26          	jmp    c00014a8 <_console_puthex+0x57>
c0001482:	c1 ee 04       	shrl   $0x4,%esi
c0001485:	8b 44 24 10    	movl   0x10(%esp,1),%eax
c0001489:	ba 00 00 00 00 	movl   $0x0,%edx
c000148e:	f7 f6          	divl   %esi,%eax
c0001490:	85 c0          	testl  %eax,%eax
c0001492:	0f 94 c2       	sete   %dl
c0001495:	83 fe 0f       	cmpl   $0xf,%esi
c0001498:	0f 97 c0       	seta   %al
c000149b:	84 d0          	testb  %dl,%al
c000149d:	75 e3          	jne    c0001482 <_console_puthex+0x31>
c000149f:	83 fe 0e       	cmpl   $0xe,%esi
c00014a2:	76 2e          	jbe    c00014d2 <_console_puthex+0x81>
c00014a4:	8b 44 24 10    	movl   0x10(%esp,1),%eax
c00014a8:	83 ec 0c       	subl   $0xc,%esp
c00014ab:	ba 00 00 00 00 	movl   $0x0,%edx
c00014b0:	f7 f6          	divl   %esi,%eax
c00014b2:	89 d3          	movl   %edx,%ebx
c00014b4:	8a 80 41 14 00 	movb   0xc0001441(%eax),%al
c00014b9:	c0 
c00014ba:	25 ff 00 00 00 	andl   $0xff,%eax
c00014bf:	50             	pushl  %eax
c00014c0:	e8 db 00 00 00 	call   c00015a0 <_console_putch>
c00014c5:	89 d8          	movl   %ebx,%eax
c00014c7:	c1 ee 04       	shrl   $0x4,%esi
c00014ca:	83 c4 10       	addl   $0x10,%esp
c00014cd:	83 fe 0e       	cmpl   $0xe,%esi
c00014d0:	77 d6          	ja     c00014a8 <_console_puthex+0x57>
c00014d2:	83 c4 04       	addl   $0x4,%esp
c00014d5:	5b             	popl   %ebx
c00014d6:	5e             	popl   %esi
c00014d7:	c3             	ret    

c00014d8 <_console_putuint>:
c00014d8:	56             	pushl  %esi
c00014d9:	53             	pushl  %ebx
c00014da:	81 ec 04 01 00 	subl   $0x104,%esp
c00014df:	00 
c00014e0:	8b 8c 24 10 01 	movl   0x110(%esp,1),%ecx
c00014e5:	00 00 
c00014e7:	89 ca          	movl   %ecx,%edx
c00014e9:	c1 ea 09       	shrl   $0x9,%edx
c00014ec:	b8 83 4b 04 00 	movl   $0x44b83,%eax
c00014f1:	f7 e2          	mull   %edx,%eax
c00014f3:	c1 ea 07       	shrl   $0x7,%edx
c00014f6:	85 d2          	testl  %edx,%edx
c00014f8:	74 0c          	je     c0001506 <_console_putuint+0x2e>
c00014fa:	bb 00 ca 9a 3b 	movl   $0x3b9aca00,%ebx
c00014ff:	be 00 00 00 00 	movl   $0x0,%esi
c0001504:	eb 3a          	jmp    c0001540 <_console_putuint+0x68>
c0001506:	bb 00 ca 9a 3b 	movl   $0x3b9aca00,%ebx
c000150b:	be cd cc cc cc 	movl   $0xcccccccd,%esi
c0001510:	89 d8          	movl   %ebx,%eax
c0001512:	f7 e6          	mull   %esi,%eax
c0001514:	89 d3          	movl   %edx,%ebx
c0001516:	c1 eb 03       	shrl   $0x3,%ebx
c0001519:	89 c8          	movl   %ecx,%eax
c000151b:	ba 00 00 00 00 	movl   $0x0,%edx
c0001520:	f7 f3          	divl   %ebx,%eax
c0001522:	85 c0          	testl  %eax,%eax
c0001524:	0f 94 c2       	sete   %dl
c0001527:	83 fb 09       	cmpl   $0x9,%ebx
c000152a:	0f 97 c0       	seta   %al
c000152d:	84 d0          	testb  %dl,%al
c000152f:	75 df          	jne    c0001510 <_console_putuint+0x38>
c0001531:	be 00 00 00 00 	movl   $0x0,%esi
c0001536:	83 fb 09       	cmpl   $0x9,%ebx
c0001539:	76 2b          	jbe    c0001566 <_console_putuint+0x8e>
c000153b:	be 00 00 00 00 	movl   $0x0,%esi
c0001540:	89 c8          	movl   %ecx,%eax
c0001542:	ba 00 00 00 00 	movl   $0x0,%edx
c0001547:	f7 f3          	divl   %ebx,%eax
c0001549:	83 c0 30       	addl   $0x30,%eax
c000154c:	88 44 34 05    	movb   %al,0x5(%esp,%esi,1)
c0001550:	46             	incl   %esi
c0001551:	89 d1          	movl   %edx,%ecx
c0001553:	ba cd cc cc cc 	movl   $0xcccccccd,%edx
c0001558:	89 d8          	movl   %ebx,%eax
c000155a:	f7 e2          	mull   %edx,%eax
c000155c:	89 d3          	movl   %edx,%ebx
c000155e:	c1 eb 03       	shrl   $0x3,%ebx
c0001561:	83 fb 09       	cmpl   $0x9,%ebx
c0001564:	77 da          	ja     c0001540 <_console_putuint+0x68>
c0001566:	8d 41 30       	leal   0x30(%ecx),%eax
c0001569:	88 44 34 05    	movb   %al,0x5(%esp,%esi,1)
c000156d:	c6 44 34 06 00 	movb   $0x0,0x6(%esp,%esi,1)
c0001572:	8a 44 24 05    	movb   0x5(%esp,1),%al
c0001576:	84 c0          	testb  %al,%al
c0001578:	74 1d          	je     c0001597 <_console_putuint+0xbf>
c000157a:	8d 5c 24 05    	leal   0x5(%esp,1),%ebx
c000157e:	83 ec 0c       	subl   $0xc,%esp
c0001581:	25 ff 00 00 00 	andl   $0xff,%eax
c0001586:	50             	pushl  %eax
c0001587:	e8 14 00 00 00 	call   c00015a0 <_console_putch>
c000158c:	8a 43 01       	movb   0x1(%ebx),%al
c000158f:	43             	incl   %ebx
c0001590:	83 c4 10       	addl   $0x10,%esp
c0001593:	84 c0          	testb  %al,%al
c0001595:	75 e7          	jne    c000157e <_console_putuint+0xa6>
c0001597:	81 c4 04 01 00 	addl   $0x104,%esp
c000159c:	00 
c000159d:	5b             	popl   %ebx
c000159e:	5e             	popl   %esi
c000159f:	c3             	ret    

c00015a0 <_console_putch>:
c00015a0:	83 ec 0c       	subl   $0xc,%esp
c00015a3:	ba 00 00 00 00 	movl   $0x0,%edx
c00015a8:	8a 54 24 10    	movb   0x10(%esp,1),%dl
c00015ac:	8d 42 f9       	leal   0xfffffff9(%edx),%eax
c00015af:	83 f8 06       	cmpl   $0x6,%eax
c00015b2:	0f 87 aa 00 00 	ja     c0001662 <_console_putch+0xc2>
c00015b7:	00 
c00015b8:	ff 24 85 c0 15 	jmp    *0xc00015c0(,%eax,4)
c00015bd:	00 c0 
c00015bf:	90             	nop    
c00015c0:	45             	incl   %ebp
c00015c1:	16             	pushl  %ss
c00015c2:	00 c0          	addb   %al,%al
c00015c4:	62 16          	boundl (%esi),%edx
c00015c6:	00 c0          	addb   %al,%al
c00015c8:	12 16          	adcb   (%esi),%dl
c00015ca:	00 c0          	addb   %al,%al
c00015cc:	dc 15 00 c0 62 	fcoml  0x1662c000
c00015d1:	16 
c00015d2:	00 c0          	addb   %al,%al
c00015d4:	4c             	decl   %esp
c00015d5:	16             	pushl  %ss
c00015d6:	00 c0          	addb   %al,%al
c00015d8:	fa             	cli    
c00015d9:	15 00 c0 a1 30 	adcl   $0x30a1c000,%eax
c00015de:	60             	pusha  
c00015df:	00 c0          	addb   %al,%al
c00015e1:	40             	incl   %eax
c00015e2:	a3 30 60 00 c0 	movl   %eax,0xc0006030
c00015e7:	83 ec 08       	subl   $0x8,%esp
c00015ea:	50             	pushl  %eax
c00015eb:	6a 00          	pushl  $0x0
c00015ed:	e8 f9 01 00 00 	call   c00017eb <_console_setCursor>
c00015f2:	83 c4 10       	addl   $0x10,%esp
c00015f5:	e9 a2 00 00 00 	jmp    c000169c <_console_putch+0xfc>
c00015fa:	83 ec 08       	subl   $0x8,%esp
c00015fd:	ff 35 30 60 00 	pushl  0xc0006030
c0001602:	c0 
c0001603:	6a 00          	pushl  $0x0
c0001605:	e8 e1 01 00 00 	call   c00017eb <_console_setCursor>
c000160a:	83 c4 10       	addl   $0x10,%esp
c000160d:	e9 8a 00 00 00 	jmp    c000169c <_console_putch+0xfc>
c0001612:	83 ec 0c       	subl   $0xc,%esp
c0001615:	6a 20          	pushl  $0x20
c0001617:	e8 84 ff ff ff 	call   c00015a0 <_console_putch>
c000161c:	c7 04 24 20 00 	movl   $0x20,(%esp,1)
c0001621:	00 00 
c0001623:	e8 78 ff ff ff 	call   c00015a0 <_console_putch>
c0001628:	c7 04 24 20 00 	movl   $0x20,(%esp,1)
c000162d:	00 00 
c000162f:	e8 6c ff ff ff 	call   c00015a0 <_console_putch>
c0001634:	c7 04 24 20 00 	movl   $0x20,(%esp,1)
c0001639:	00 00 
c000163b:	e8 60 ff ff ff 	call   c00015a0 <_console_putch>
c0001640:	83 c4 10       	addl   $0x10,%esp
c0001643:	eb 57          	jmp    c000169c <_console_putch+0xfc>
c0001645:	e8 a4 02 00 00 	call   c00018ee <_console_beep>
c000164a:	eb 50          	jmp    c000169c <_console_putch+0xfc>
c000164c:	e8 fe 01 00 00 	call   c000184f <_console_cls>
c0001651:	83 ec 08       	subl   $0x8,%esp
c0001654:	6a 00          	pushl  $0x0
c0001656:	6a 00          	pushl  $0x0
c0001658:	e8 8e 01 00 00 	call   c00017eb <_console_setCursor>
c000165d:	83 c4 10       	addl   $0x10,%esp
c0001660:	eb 3a          	jmp    c000169c <_console_putch+0xfc>
c0001662:	b8 00 00 00 00 	movl   $0x0,%eax
c0001667:	a0 20 60 00 c0 	movb   0xc0006020,%al
c000166c:	50             	pushl  %eax
c000166d:	52             	pushl  %edx
c000166e:	ff 35 30 60 00 	pushl  0xc0006030
c0001673:	c0 
c0001674:	ff 35 10 60 00 	pushl  0xc0006010
c0001679:	c0 
c000167a:	e8 64 00 00 00 	call   c00016e3 <_console_putChar>
c000167f:	a1 10 60 00 c0 	movl   0xc0006010,%eax
c0001684:	40             	incl   %eax
c0001685:	a3 10 60 00 c0 	movl   %eax,0xc0006010
c000168a:	83 c4 08       	addl   $0x8,%esp
c000168d:	ff 35 30 60 00 	pushl  0xc0006030
c0001692:	c0 
c0001693:	50             	pushl  %eax
c0001694:	e8 52 01 00 00 	call   c00017eb <_console_setCursor>
c0001699:	83 c4 10       	addl   $0x10,%esp
c000169c:	83 3d 10 60 00 	cmpl   $0x4f,0xc0006010
c00016a1:	c0 4f 
c00016a3:	7e 19          	jle    c00016be <_console_putch+0x11e>
c00016a5:	a1 30 60 00 c0 	movl   0xc0006030,%eax
c00016aa:	40             	incl   %eax
c00016ab:	a3 30 60 00 c0 	movl   %eax,0xc0006030
c00016b0:	83 ec 08       	subl   $0x8,%esp
c00016b3:	50             	pushl  %eax
c00016b4:	6a 00          	pushl  $0x0
c00016b6:	e8 30 01 00 00 	call   c00017eb <_console_setCursor>
c00016bb:	83 c4 10       	addl   $0x10,%esp
c00016be:	83 3d 30 60 00 	cmpl   $0x18,0xc0006030
c00016c3:	c0 18 
c00016c5:	7e 18          	jle    c00016df <_console_putch+0x13f>
c00016c7:	e8 8a 00 00 00 	call   c0001756 <_console_scrollup>
c00016cc:	83 ec 08       	subl   $0x8,%esp
c00016cf:	6a 18          	pushl  $0x18
c00016d1:	ff 35 10 60 00 	pushl  0xc0006010
c00016d6:	c0 
c00016d7:	e8 0f 01 00 00 	call   c00017eb <_console_setCursor>
c00016dc:	83 c4 10       	addl   $0x10,%esp
c00016df:	83 c4 0c       	addl   $0xc,%esp
c00016e2:	c3             	ret    

c00016e3 <_console_putChar>:
c00016e3:	53             	pushl  %ebx
c00016e4:	8b 44 24 0c    	movl   0xc(%esp,1),%eax
c00016e8:	8b 5c 24 14    	movl   0x14(%esp,1),%ebx
c00016ec:	8d 04 80       	leal   (%eax,%eax,4),%eax
c00016ef:	c1 e0 04       	shll   $0x4,%eax
c00016f2:	03 44 24 08    	addl   0x8(%esp,1),%eax
c00016f6:	01 c0          	addl   %eax,%eax
c00016f8:	8b 4c 24 10    	movl   0x10(%esp,1),%ecx
c00016fc:	8b 15 00 60 00 	movl   0xc0006000,%edx
c0001701:	c0 
c0001702:	88 0c 10       	movb   %cl,(%eax,%edx,1)
c0001705:	8b 15 00 60 00 	movl   0xc0006000,%edx
c000170a:	c0 
c000170b:	88 5c 10 01    	movb   %bl,0x1(%eax,%edx,1)
c000170f:	5b             	popl   %ebx
c0001710:	c3             	ret    

c0001711 <_console_getChar>:
c0001711:	8b 44 24 08    	movl   0x8(%esp,1),%eax
c0001715:	8d 04 80       	leal   (%eax,%eax,4),%eax
c0001718:	c1 e0 04       	shll   $0x4,%eax
c000171b:	03 44 24 04    	addl   0x4(%esp,1),%eax
c000171f:	8b 15 00 60 00 	movl   0xc0006000,%edx
c0001724:	c0 
c0001725:	8a 04 42       	movb   (%edx,%eax,2),%al
c0001728:	25 ff 00 00 00 	andl   $0xff,%eax
c000172d:	c3             	ret    

c000172e <_console_setAttrib>:
c000172e:	8b 44 24 04    	movl   0x4(%esp,1),%eax
c0001732:	a2 20 60 00 c0 	movb   %al,0xc0006020
c0001737:	c3             	ret    

c0001738 <_console_getAttrib>:
c0001738:	8b 44 24 08    	movl   0x8(%esp,1),%eax
c000173c:	8d 04 80       	leal   (%eax,%eax,4),%eax
c000173f:	c1 e0 04       	shll   $0x4,%eax
c0001742:	03 44 24 04    	addl   0x4(%esp,1),%eax
c0001746:	8b 15 00 60 00 	movl   0xc0006000,%edx
c000174b:	c0 
c000174c:	8a 44 42 01    	movb   0x1(%edx,%eax,2),%al
c0001750:	25 ff 00 00 00 	andl   $0xff,%eax
c0001755:	c3             	ret    

c0001756 <_console_scrollup>:
c0001756:	55             	pushl  %ebp
c0001757:	57             	pushl  %edi
c0001758:	56             	pushl  %esi
c0001759:	53             	pushl  %ebx
c000175a:	83 ec 04       	subl   $0x4,%esp
c000175d:	c7 04 24 03 00 	movl   $0x3,(%esp,1)
c0001762:	00 00 
c0001764:	bd 40 01 00 00 	movl   $0x140,%ebp
c0001769:	8d b5 a0 00 00 	leal   0xa0(%ebp),%esi
c000176e:	00 
c000176f:	89 eb          	movl   %ebp,%ebx
c0001771:	bf 00 00 00 00 	movl   $0x0,%edi
c0001776:	8b 15 00 60 00 	movl   0xc0006000,%edx
c000177b:	c0 
c000177c:	8d 04 32       	leal   (%edx,%esi,1),%eax
c000177f:	b9 00 00 00 00 	movl   $0x0,%ecx
c0001784:	8a 48 01       	movb   0x1(%eax),%cl
c0001787:	8a 00          	movb   (%eax),%al
c0001789:	25 ff 00 00 00 	andl   $0xff,%eax
c000178e:	88 04 13       	movb   %al,(%ebx,%edx,1)
c0001791:	a1 00 60 00 c0 	movl   0xc0006000,%eax
c0001796:	88 4c 03 01    	movb   %cl,0x1(%ebx,%eax,1)
c000179a:	47             	incl   %edi
c000179b:	83 c6 02       	addl   $0x2,%esi
c000179e:	83 c3 02       	addl   $0x2,%ebx
c00017a1:	83 ff 50       	cmpl   $0x50,%edi
c00017a4:	75 d0          	jne    c0001776 <_console_scrollup+0x20>
c00017a6:	ff 04 24       	incl   (%esp,1)
c00017a9:	81 c5 a0 00 00 	addl   $0xa0,%ebp
c00017ae:	00 
c00017af:	83 3c 24 19    	cmpl   $0x19,(%esp,1)
c00017b3:	75 b4          	jne    c0001769 <_console_scrollup+0x13>
c00017b5:	b9 00 0f 00 00 	movl   $0xf00,%ecx
c00017ba:	b8 00 00 00 00 	movl   $0x0,%eax
c00017bf:	a0 20 60 00 c0 	movb   0xc0006020,%al
c00017c4:	8b 15 00 60 00 	movl   0xc0006000,%edx
c00017c9:	c0 
c00017ca:	c6 04 0a 20    	movb   $0x20,(%edx,%ecx,1)
c00017ce:	8b 15 00 60 00 	movl   0xc0006000,%edx
c00017d3:	c0 
c00017d4:	88 44 0a 01    	movb   %al,0x1(%edx,%ecx,1)
c00017d8:	83 c1 02       	addl   $0x2,%ecx
c00017db:	81 f9 a0 0f 00 	cmpl   $0xfa0,%ecx
c00017e0:	00 
c00017e1:	75 d7          	jne    c00017ba <_console_scrollup+0x64>
c00017e3:	83 c4 04       	addl   $0x4,%esp
c00017e6:	5b             	popl   %ebx
c00017e7:	5e             	popl   %esi
c00017e8:	5f             	popl   %edi
c00017e9:	5d             	popl   %ebp
c00017ea:	c3             	ret    

c00017eb <_console_setCursor>:
c00017eb:	53             	pushl  %ebx
c00017ec:	83 ec 10       	subl   $0x10,%esp
c00017ef:	8b 54 24 18    	movl   0x18(%esp,1),%edx
c00017f3:	8b 44 24 1c    	movl   0x1c(%esp,1),%eax
c00017f7:	8d 1c 80       	leal   (%eax,%eax,4),%ebx
c00017fa:	c1 e3 04       	shll   $0x4,%ebx
c00017fd:	01 d3          	addl   %edx,%ebx
c00017ff:	89 15 10 60 00 	movl   %edx,0xc0006010
c0001804:	c0 
c0001805:	a3 30 60 00 c0 	movl   %eax,0xc0006030
c000180a:	6a 0e          	pushl  $0xe
c000180c:	68 d4 03 00 00 	pushl  $0x3d4
c0001811:	e8 23 fa ff ff 	call   c0001239 <_outportb>
c0001816:	83 c4 08       	addl   $0x8,%esp
c0001819:	0f b6 c7       	movzbl %bh,%eax
c000181c:	50             	pushl  %eax
c000181d:	68 d5 03 00 00 	pushl  $0x3d5
c0001822:	e8 12 fa ff ff 	call   c0001239 <_outportb>
c0001827:	83 c4 08       	addl   $0x8,%esp
c000182a:	6a 0f          	pushl  $0xf
c000182c:	68 d4 03 00 00 	pushl  $0x3d4
c0001831:	e8 03 fa ff ff 	call   c0001239 <_outportb>
c0001836:	83 c4 08       	addl   $0x8,%esp
c0001839:	81 e3 ff 00 00 	andl   $0xff,%ebx
c000183e:	00 
c000183f:	53             	pushl  %ebx
c0001840:	68 d5 03 00 00 	pushl  $0x3d5
c0001845:	e8 ef f9 ff ff 	call   c0001239 <_outportb>
c000184a:	83 c4 18       	addl   $0x18,%esp
c000184d:	5b             	popl   %ebx
c000184e:	c3             	ret    

c000184f <_console_cls>:
c000184f:	56             	pushl  %esi
c0001850:	53             	pushl  %ebx
c0001851:	83 ec 04       	subl   $0x4,%esp
c0001854:	be 40 01 00 00 	movl   $0x140,%esi
c0001859:	89 f1          	movl   %esi,%ecx
c000185b:	bb 02 00 00 00 	movl   $0x2,%ebx
c0001860:	b8 00 00 00 00 	movl   $0x0,%eax
c0001865:	a0 20 60 00 c0 	movb   0xc0006020,%al
c000186a:	8b 15 00 60 00 	movl   0xc0006000,%edx
c000186f:	c0 
c0001870:	c6 04 11 20    	movb   $0x20,(%ecx,%edx,1)
c0001874:	8b 15 00 60 00 	movl   0xc0006000,%edx
c0001879:	c0 
c000187a:	88 44 11 01    	movb   %al,0x1(%ecx,%edx,1)
c000187e:	43             	incl   %ebx
c000187f:	81 c1 a0 00 00 	addl   $0xa0,%ecx
c0001884:	00 
c0001885:	83 fb 19       	cmpl   $0x19,%ebx
c0001888:	75 d6          	jne    c0001860 <_console_cls+0x11>
c000188a:	83 c6 02       	addl   $0x2,%esi
c000188d:	81 fe e0 01 00 	cmpl   $0x1e0,%esi
c0001892:	00 
c0001893:	75 c4          	jne    c0001859 <_console_cls+0xa>
c0001895:	c7 05 10 60 00 	movl   $0x0,0xc0006010
c000189a:	c0 00 00 00 00 
c000189f:	c7 05 30 60 00 	movl   $0x2,0xc0006030
c00018a4:	c0 02 00 00 00 
c00018a9:	83 ec 08       	subl   $0x8,%esp
c00018ac:	6a 0e          	pushl  $0xe
c00018ae:	68 d4 03 00 00 	pushl  $0x3d4
c00018b3:	e8 81 f9 ff ff 	call   c0001239 <_outportb>
c00018b8:	83 c4 08       	addl   $0x8,%esp
c00018bb:	6a 00          	pushl  $0x0
c00018bd:	68 d5 03 00 00 	pushl  $0x3d5
c00018c2:	e8 72 f9 ff ff 	call   c0001239 <_outportb>
c00018c7:	83 c4 08       	addl   $0x8,%esp
c00018ca:	6a 0f          	pushl  $0xf
c00018cc:	68 d4 03 00 00 	pushl  $0x3d4
c00018d1:	e8 63 f9 ff ff 	call   c0001239 <_outportb>
c00018d6:	83 c4 08       	addl   $0x8,%esp
c00018d9:	68 a0 00 00 00 	pushl  $0xa0
c00018de:	68 d5 03 00 00 	pushl  $0x3d5
c00018e3:	e8 51 f9 ff ff 	call   c0001239 <_outportb>
c00018e8:	83 c4 14       	addl   $0x14,%esp
c00018eb:	5b             	popl   %ebx
c00018ec:	5e             	popl   %esi
c00018ed:	c3             	ret    

c00018ee <_console_beep>:
c00018ee:	c3             	ret    
c00018ef:	20 00          	andb   %al,(%eax)
c00018f1:	41             	incl   %ecx
c00018f2:	4d             	decl   %ebp
c00018f3:	4f             	decl   %edi
c00018f4:	53             	pushl  %ebx
c00018f5:	20 25 64 2e 25 	andb   %ah,0x64252e64
c00018fa:	64 
c00018fb:	2e 25 64 0a 00 	andl   $0x2d000a64,%eax
c0001900:	2d 
	...

c0001902 <_console_init>:
c0001902:	53             	pushl  %ebx
c0001903:	83 ec 08       	subl   $0x8,%esp
c0001906:	c7 05 00 60 00 	movl   $0xb8000,0xc0006000
c000190b:	c0 00 80 0b 00 
c0001910:	c6 05 20 60 00 	movb   $0x42,0xc0006020
c0001915:	c0 42 
c0001917:	e8 33 ff ff ff 	call   c000184f <_console_cls>
c000191c:	c7 05 10 60 00 	movl   $0x0,0xc0006010
c0001921:	c0 00 00 00 00 
c0001926:	c7 05 30 60 00 	movl   $0x0,0xc0006030
c000192b:	c0 00 00 00 00 
c0001930:	83 ec 08       	subl   $0x8,%esp
c0001933:	6a 0e          	pushl  $0xe
c0001935:	68 d4 03 00 00 	pushl  $0x3d4
c000193a:	e8 fa f8 ff ff 	call   c0001239 <_outportb>
c000193f:	83 c4 08       	addl   $0x8,%esp
c0001942:	6a 00          	pushl  $0x0
c0001944:	68 d5 03 00 00 	pushl  $0x3d5
c0001949:	e8 eb f8 ff ff 	call   c0001239 <_outportb>
c000194e:	83 c4 08       	addl   $0x8,%esp
c0001951:	6a 0f          	pushl  $0xf
c0001953:	68 d4 03 00 00 	pushl  $0x3d4
c0001958:	e8 dc f8 ff ff 	call   c0001239 <_outportb>
c000195d:	83 c4 08       	addl   $0x8,%esp
c0001960:	6a 00          	pushl  $0x0
c0001962:	68 d5 03 00 00 	pushl  $0x3d5
c0001967:	e8 cd f8 ff ff 	call   c0001239 <_outportb>
c000196c:	bb 50 00 00 00 	movl   $0x50,%ebx
c0001971:	83 c4 10       	addl   $0x10,%esp
c0001974:	83 ec 0c       	subl   $0xc,%esp
c0001977:	68 ef 18 00 c0 	pushl  $0xc00018ef
c000197c:	e8 2f f9 ff ff 	call   c00012b0 <_kprintf>
c0001981:	83 c4 10       	addl   $0x10,%esp
c0001984:	4b             	decl   %ebx
c0001985:	75 ed          	jne    c0001974 <_console_init+0x72>
c0001987:	c7 05 10 60 00 	movl   $0x0,0xc0006010
c000198c:	c0 00 00 00 00 
c0001991:	c7 05 30 60 00 	movl   $0x0,0xc0006030
c0001996:	c0 00 00 00 00 
c000199b:	83 ec 08       	subl   $0x8,%esp
c000199e:	6a 0e          	pushl  $0xe
c00019a0:	68 d4 03 00 00 	pushl  $0x3d4
c00019a5:	e8 8f f8 ff ff 	call   c0001239 <_outportb>
c00019aa:	83 c4 08       	addl   $0x8,%esp
c00019ad:	6a 00          	pushl  $0x0
c00019af:	68 d5 03 00 00 	pushl  $0x3d5
c00019b4:	e8 80 f8 ff ff 	call   c0001239 <_outportb>
c00019b9:	83 c4 08       	addl   $0x8,%esp
c00019bc:	6a 0f          	pushl  $0xf
c00019be:	68 d4 03 00 00 	pushl  $0x3d4
c00019c3:	e8 71 f8 ff ff 	call   c0001239 <_outportb>
c00019c8:	83 c4 08       	addl   $0x8,%esp
c00019cb:	6a 00          	pushl  $0x0
c00019cd:	68 d5 03 00 00 	pushl  $0x3d5
c00019d2:	e8 62 f8 ff ff 	call   c0001239 <_outportb>
c00019d7:	6a 00          	pushl  $0x0
c00019d9:	6a 03          	pushl  $0x3
c00019db:	6a 00          	pushl  $0x0
c00019dd:	68 f1 18 00 c0 	pushl  $0xc00018f1
c00019e2:	e8 c9 f8 ff ff 	call   c00012b0 <_kprintf>
c00019e7:	bb 50 00 00 00 	movl   $0x50,%ebx
c00019ec:	83 c4 20       	addl   $0x20,%esp
c00019ef:	83 ec 0c       	subl   $0xc,%esp
c00019f2:	68 00 19 00 c0 	pushl  $0xc0001900
c00019f7:	e8 b4 f8 ff ff 	call   c00012b0 <_kprintf>
c00019fc:	83 c4 10       	addl   $0x10,%esp
c00019ff:	4b             	decl   %ebx
c0001a00:	75 ed          	jne    c00019ef <_console_init+0xed>
c0001a02:	c7 05 10 60 00 	movl   $0x0,0xc0006010
c0001a07:	c0 00 00 00 00 
c0001a0c:	c7 05 30 60 00 	movl   $0x2,0xc0006030
c0001a11:	c0 02 00 00 00 
c0001a16:	83 ec 08       	subl   $0x8,%esp
c0001a19:	6a 0e          	pushl  $0xe
c0001a1b:	68 d4 03 00 00 	pushl  $0x3d4
c0001a20:	e8 14 f8 ff ff 	call   c0001239 <_outportb>
c0001a25:	83 c4 08       	addl   $0x8,%esp
c0001a28:	6a 00          	pushl  $0x0
c0001a2a:	68 d5 03 00 00 	pushl  $0x3d5
c0001a2f:	e8 05 f8 ff ff 	call   c0001239 <_outportb>
c0001a34:	83 c4 08       	addl   $0x8,%esp
c0001a37:	6a 0f          	pushl  $0xf
c0001a39:	68 d4 03 00 00 	pushl  $0x3d4
c0001a3e:	e8 f6 f7 ff ff 	call   c0001239 <_outportb>
c0001a43:	83 c4 08       	addl   $0x8,%esp
c0001a46:	68 a0 00 00 00 	pushl  $0xa0
c0001a4b:	68 d5 03 00 00 	pushl  $0x3d5
c0001a50:	e8 e4 f7 ff ff 	call   c0001239 <_outportb>
c0001a55:	83 c4 18       	addl   $0x18,%esp
c0001a58:	5b             	popl   %ebx
c0001a59:	c3             	ret    
c0001a5a:	90             	nop    
c0001a5b:	90             	nop    
c0001a5c:	90             	nop    
c0001a5d:	90             	nop    
c0001a5e:	90             	nop    
c0001a5f:	90             	nop    

c0001a60 <_gdt_setEntry>:
c0001a60:	56             	pushl  %esi
c0001a61:	53             	pushl  %ebx
c0001a62:	8b 54 24 0c    	movl   0xc(%esp,1),%edx
c0001a66:	8b 5c 24 10    	movl   0x10(%esp,1),%ebx
c0001a6a:	8b 4c 24 14    	movl   0x14(%esp,1),%ecx
c0001a6e:	89 d0          	movl   %edx,%eax
c0001a70:	c1 f8 1f       	sarl   $0x1f,%eax
c0001a73:	c1 e8 1d       	shrl   $0x1d,%eax
c0001a76:	01 d0          	addl   %edx,%eax
c0001a78:	c1 f8 03       	sarl   $0x3,%eax
c0001a7b:	be 50 60 00 c0 	movl   $0xc0006050,%esi
c0001a80:	66 89 5c c6 02 	movw   %bx,0x2(%esi,%eax,8)
c0001a85:	89 da          	movl   %ebx,%edx
c0001a87:	c1 ea 10       	shrl   $0x10,%edx
c0001a8a:	88 14 c5 54 60 	movb   %dl,0xc0006054(,%eax,8)
c0001a8f:	00 c0 
c0001a91:	c1 eb 18       	shrl   $0x18,%ebx
c0001a94:	88 1c c5 57 60 	movb   %bl,0xc0006057(,%eax,8)
c0001a99:	00 c0 
c0001a9b:	66 89 0c c6    	movw   %cx,(%esi,%eax,8)
c0001a9f:	c1 e9 10       	shrl   $0x10,%ecx
c0001aa2:	83 e1 0f       	andl   $0xf,%ecx
c0001aa5:	8a 54 24 1c    	movb   0x1c(%esp,1),%dl
c0001aa9:	83 e2 f0       	andl   $0xfffffff0,%edx
c0001aac:	09 d1          	orl    %edx,%ecx
c0001aae:	88 0c c5 56 60 	movb   %cl,0xc0006056(,%eax,8)
c0001ab3:	00 c0 
c0001ab5:	8b 54 24 18    	movl   0x18(%esp,1),%edx
c0001ab9:	88 14 c5 55 60 	movb   %dl,0xc0006055(,%eax,8)
c0001abe:	00 c0 
c0001ac0:	5b             	popl   %ebx
c0001ac1:	5e             	popl   %esi
c0001ac2:	c3             	ret    

c0001ac3 <_gdt_init>:
c0001ac3:	83 ec 10       	subl   $0x10,%esp
c0001ac6:	66 c7 05 40 60 	movw   $0x1f,0xc0006040
c0001acb:	00 c0 1f 00 
c0001acf:	c7 05 42 60 00 	movl   $0xc0006050,0xc0006042
c0001ad4:	c0 50 60 00 c0 
c0001ad9:	6a 20          	pushl  $0x20
c0001adb:	6a 00          	pushl  $0x0
c0001add:	68 50 60 00 c0 	pushl  $0xc0006050
c0001ae2:	e8 29 f7 ff ff 	call   c0001210 <_memset>
c0001ae7:	66 c7 05 52 60 	movw   $0x0,0xc0006052
c0001aec:	00 c0 00 00 
c0001af0:	c6 05 54 60 00 	movb   $0x0,0xc0006054
c0001af5:	c0 00 
c0001af7:	c6 05 57 60 00 	movb   $0x0,0xc0006057
c0001afc:	c0 00 
c0001afe:	66 c7 05 50 60 	movw   $0x0,0xc0006050
c0001b03:	00 c0 00 00 
c0001b07:	c6 05 56 60 00 	movb   $0x0,0xc0006056
c0001b0c:	c0 00 
c0001b0e:	c6 05 55 60 00 	movb   $0x0,0xc0006055
c0001b13:	c0 00 
c0001b15:	66 c7 05 5a 60 	movw   $0x0,0xc000605a
c0001b1a:	00 c0 00 00 
c0001b1e:	c6 05 5c 60 00 	movb   $0x0,0xc000605c
c0001b23:	c0 00 
c0001b25:	c6 05 5f 60 00 	movb   $0x0,0xc000605f
c0001b2a:	c0 00 
c0001b2c:	66 c7 05 58 60 	movw   $0xffff,0xc0006058
c0001b31:	00 c0 ff ff 
c0001b35:	c6 05 5e 60 00 	movb   $0xcf,0xc000605e
c0001b3a:	c0 cf 
c0001b3c:	c6 05 5d 60 00 	movb   $0x9a,0xc000605d
c0001b41:	c0 9a 
c0001b43:	66 c7 05 62 60 	movw   $0x0,0xc0006062
c0001b48:	00 c0 00 00 
c0001b4c:	c6 05 64 60 00 	movb   $0x0,0xc0006064
c0001b51:	c0 00 
c0001b53:	c6 05 67 60 00 	movb   $0x0,0xc0006067
c0001b58:	c0 00 
c0001b5a:	66 c7 05 60 60 	movw   $0xffff,0xc0006060
c0001b5f:	00 c0 ff ff 
c0001b63:	c6 05 66 60 00 	movb   $0xcf,0xc0006066
c0001b68:	c0 cf 
c0001b6a:	c6 05 65 60 00 	movb   $0x92,0xc0006065
c0001b6f:	c0 92 
c0001b71:	66 c7 05 6a 60 	movw   $0x0,0xc000606a
c0001b76:	00 c0 00 00 
c0001b7a:	c6 05 6c 60 00 	movb   $0x0,0xc000606c
c0001b7f:	c0 00 
c0001b81:	c6 05 6f 60 00 	movb   $0x0,0xc000606f
c0001b86:	c0 00 
c0001b88:	66 c7 05 68 60 	movw   $0x0,0xc0006068
c0001b8d:	00 c0 00 00 
c0001b91:	c6 05 6e 60 00 	movb   $0x0,0xc000606e
c0001b96:	c0 00 
c0001b98:	c6 05 6d 60 00 	movb   $0x0,0xc000606d
c0001b9d:	c0 00 
c0001b9f:	b8 40 60 00 c0 	movl   $0xc0006040,%eax
c0001ba4:	0f 01 10       	lgdt   (%eax)
c0001ba7:	66 b8 10 00    	movw   $0x10,%ax
c0001bab:	8e d8          	movl   %eax,%ds
c0001bad:	8e d0          	movl   %eax,%ss
c0001baf:	8e c0          	movl   %eax,%es
c0001bb1:	8e e0          	movl   %eax,%fs
c0001bb3:	8e e8          	movl   %eax,%gs
c0001bb5:	ea bc 1b 00 c0 	ljmp   0x8,0xc0001bbc
c0001bba:	08 00 

c0001bbc <gdtflush>:
c0001bbc:	83 c4 1c       	addl   $0x1c,%esp
c0001bbf:	c3             	ret    

c0001bc0 <_idt_setEntry>:
c0001bc0:	53             	pushl  %ebx
c0001bc1:	8b 5c 24 0c    	movl   0xc(%esp,1),%ebx
c0001bc5:	ba 00 00 00 00 	movl   $0x0,%edx
c0001bca:	8a 54 24 08    	movb   0x8(%esp,1),%dl
c0001bce:	b9 70 60 00 c0 	movl   $0xc0006070,%ecx
c0001bd3:	89 d8          	movl   %ebx,%eax
c0001bd5:	c1 e8 10       	shrl   $0x10,%eax
c0001bd8:	66 89 44 d1 06 	movw   %ax,0x6(%ecx,%edx,8)
c0001bdd:	66 89 1c d1    	movw   %bx,(%ecx,%edx,8)
c0001be1:	8b 44 24 14    	movl   0x14(%esp,1),%eax
c0001be5:	88 04 d5 75 60 	movb   %al,0xc0006075(,%edx,8)
c0001bea:	00 c0 
c0001bec:	c6 04 d5 74 60 	movb   $0x0,0xc0006074(,%edx,8)
c0001bf1:	00 c0 00 
c0001bf4:	8b 44 24 10    	movl   0x10(%esp,1),%eax
c0001bf8:	66 89 44 d1 02 	movw   %ax,0x2(%ecx,%edx,8)
c0001bfd:	5b             	popl   %ebx
c0001bfe:	c3             	ret    

c0001bff <_idt_init>:
c0001bff:	56             	pushl  %esi
c0001c00:	53             	pushl  %ebx
c0001c01:	83 ec 08       	subl   $0x8,%esp
c0001c04:	66 c7 05 70 68 	movw   $0x7ff,0xc0006870
c0001c09:	00 c0 ff 07 
c0001c0d:	c7 05 72 68 00 	movl   $0xc0006070,0xc0006872
c0001c12:	c0 70 60 00 c0 
c0001c17:	68 00 08 00 00 	pushl  $0x800
c0001c1c:	6a 00          	pushl  $0x0
c0001c1e:	68 70 60 00 c0 	pushl  $0xc0006070
c0001c23:	e8 e8 f5 ff ff 	call   c0001210 <_memset>
c0001c28:	be 00 00 00 00 	movl   $0x0,%esi
c0001c2d:	bb 76 60 00 c0 	movl   $0xc0006076,%ebx
c0001c32:	83 c4 10       	addl   $0x10,%esp
c0001c35:	8b 14 b5 00 30 	movl   0xc0003000(,%esi,4),%edx
c0001c3a:	00 c0 
c0001c3c:	89 d0          	movl   %edx,%eax
c0001c3e:	c1 e8 10       	shrl   $0x10,%eax
c0001c41:	66 89 03       	movw   %ax,(%ebx)
c0001c44:	66 89 53 fa    	movw   %dx,0xfffffffa(%ebx)
c0001c48:	c6 43 ff 8e    	movb   $0x8e,0xffffffff(%ebx)
c0001c4c:	c6 43 fe 00    	movb   $0x0,0xfffffffe(%ebx)
c0001c50:	66 c7 43 fc 08 	movw   $0x8,0xfffffffc(%ebx)
c0001c55:	00 
c0001c56:	83 ec 08       	subl   $0x8,%esp
c0001c59:	6a 00          	pushl  $0x0
c0001c5b:	56             	pushl  %esi
c0001c5c:	e8 df 02 00 00 	call   c0001f40 <_isr_setHandler>
c0001c61:	46             	incl   %esi
c0001c62:	83 c3 08       	addl   $0x8,%ebx
c0001c65:	83 c4 10       	addl   $0x10,%esp
c0001c68:	83 fe 20       	cmpl   $0x20,%esi
c0001c6b:	75 c8          	jne    c0001c35 <_idt_init+0x36>
c0001c6d:	83 ec 08       	subl   $0x8,%esp
c0001c70:	68 e3 28 00 c0 	pushl  $0xc00028e3
c0001c75:	6a 0e          	pushl  $0xe
c0001c77:	e8 c4 02 00 00 	call   c0001f40 <_isr_setHandler>
c0001c7c:	b8 70 68 00 c0 	movl   $0xc0006870,%eax
c0001c81:	0f 01 18       	lidt   (%eax)
c0001c84:	83 c4 14       	addl   $0x14,%esp
c0001c87:	5b             	popl   %ebx
c0001c88:	5e             	popl   %esi
c0001c89:	c3             	ret    
c0001c8a:	90             	nop    
c0001c8b:	90             	nop    
c0001c8c:	90             	nop    
c0001c8d:	90             	nop    
c0001c8e:	90             	nop    
c0001c8f:	90             	nop    

c0001c90 <_irq_remap>:
c0001c90:	83 ec 14       	subl   $0x14,%esp
c0001c93:	6a 11          	pushl  $0x11
c0001c95:	6a 20          	pushl  $0x20
c0001c97:	e8 9d f5 ff ff 	call   c0001239 <_outportb>
c0001c9c:	83 c4 08       	addl   $0x8,%esp
c0001c9f:	6a 11          	pushl  $0x11
c0001ca1:	68 a0 00 00 00 	pushl  $0xa0
c0001ca6:	e8 8e f5 ff ff 	call   c0001239 <_outportb>
c0001cab:	83 c4 08       	addl   $0x8,%esp
c0001cae:	6a 20          	pushl  $0x20
c0001cb0:	6a 21          	pushl  $0x21
c0001cb2:	e8 82 f5 ff ff 	call   c0001239 <_outportb>
c0001cb7:	83 c4 08       	addl   $0x8,%esp
c0001cba:	6a 28          	pushl  $0x28
c0001cbc:	68 a1 00 00 00 	pushl  $0xa1
c0001cc1:	e8 73 f5 ff ff 	call   c0001239 <_outportb>
c0001cc6:	83 c4 08       	addl   $0x8,%esp
c0001cc9:	6a 04          	pushl  $0x4
c0001ccb:	6a 21          	pushl  $0x21
c0001ccd:	e8 67 f5 ff ff 	call   c0001239 <_outportb>
c0001cd2:	83 c4 08       	addl   $0x8,%esp
c0001cd5:	6a 02          	pushl  $0x2
c0001cd7:	68 a1 00 00 00 	pushl  $0xa1
c0001cdc:	e8 58 f5 ff ff 	call   c0001239 <_outportb>
c0001ce1:	83 c4 08       	addl   $0x8,%esp
c0001ce4:	6a 01          	pushl  $0x1
c0001ce6:	6a 21          	pushl  $0x21
c0001ce8:	e8 4c f5 ff ff 	call   c0001239 <_outportb>
c0001ced:	83 c4 08       	addl   $0x8,%esp
c0001cf0:	6a 01          	pushl  $0x1
c0001cf2:	68 a1 00 00 00 	pushl  $0xa1
c0001cf7:	e8 3d f5 ff ff 	call   c0001239 <_outportb>
c0001cfc:	83 c4 08       	addl   $0x8,%esp
c0001cff:	6a 00          	pushl  $0x0
c0001d01:	6a 21          	pushl  $0x21
c0001d03:	e8 31 f5 ff ff 	call   c0001239 <_outportb>
c0001d08:	83 c4 08       	addl   $0x8,%esp
c0001d0b:	6a 00          	pushl  $0x0
c0001d0d:	68 a1 00 00 00 	pushl  $0xa1
c0001d12:	e8 22 f5 ff ff 	call   c0001239 <_outportb>
c0001d17:	83 c4 1c       	addl   $0x1c,%esp
c0001d1a:	c3             	ret    

c0001d1b <_irq_init>:
c0001d1b:	53             	pushl  %ebx
c0001d1c:	83 ec 08       	subl   $0x8,%esp
c0001d1f:	e8 6c ff ff ff 	call   c0001c90 <_irq_remap>
c0001d24:	bb 20 00 00 00 	movl   $0x20,%ebx
c0001d29:	68 8e 00 00 00 	pushl  $0x8e
c0001d2e:	6a 08          	pushl  $0x8
c0001d30:	ff 34 9d 00 30 	pushl  0xc0003000(,%ebx,4)
c0001d35:	00 c0 
c0001d37:	53             	pushl  %ebx
c0001d38:	e8 83 fe ff ff 	call   c0001bc0 <_idt_setEntry>
c0001d3d:	83 c4 08       	addl   $0x8,%esp
c0001d40:	6a 00          	pushl  $0x0
c0001d42:	53             	pushl  %ebx
c0001d43:	e8 f8 01 00 00 	call   c0001f40 <_isr_setHandler>
c0001d48:	43             	incl   %ebx
c0001d49:	83 c4 10       	addl   $0x10,%esp
c0001d4c:	83 fb 30       	cmpl   $0x30,%ebx
c0001d4f:	75 d8          	jne    c0001d29 <_irq_init+0xe>
c0001d51:	83 c4 08       	addl   $0x8,%esp
c0001d54:	5b             	popl   %ebx
c0001d55:	c3             	ret    
c0001d56:	90             	nop    
c0001d57:	90             	nop    
c0001d58:	90             	nop    
c0001d59:	90             	nop    
c0001d5a:	90             	nop    
c0001d5b:	90             	nop    
c0001d5c:	90             	nop    
c0001d5d:	90             	nop    
c0001d5e:	90             	nop    
c0001d5f:	90             	nop    

c0001d60 <.text>:
c0001d60:	44             	incl   %esp
c0001d61:	69 76 69 64 65 	imull  $0x42206564,0x69(%esi),%esi
c0001d66:	20 42 
c0001d68:	79 20          	jns    c0001d8a <.text+0x2a>
c0001d6a:	5a             	popl   %edx
c0001d6b:	65 72 6f       	jb     c0001ddd <.text+0x7d>
c0001d6e:	00 44 65 62    	addb   %al,0x62(%ebp,2)
c0001d72:	75 67          	jne    c0001ddb <.text+0x7b>
c0001d74:	00 4e 6f       	addb   %cl,0x6f(%esi)
c0001d77:	6e             	outsb  %ds:(%esi),(%dx)
c0001d78:	20 4d 61       	andb   %cl,0x61(%ebp)
c0001d7b:	73 6b          	jae    c0001de8 <.text+0x88>
c0001d7d:	61             	popa   
c0001d7e:	62 6c 65 20    	boundl 0x20(%ebp,2),%ebp
c0001d82:	49             	decl   %ecx
c0001d83:	6e             	outsb  %ds:(%esi),(%dx)
c0001d84:	74 65          	je     c0001deb <.text+0x8b>
c0001d86:	72 72          	jb     c0001dfa <.text+0x9a>
c0001d88:	75 70          	jne    c0001dfa <.text+0x9a>
c0001d8a:	74 00          	je     c0001d8c <.text+0x2c>
c0001d8c:	42             	incl   %edx
c0001d8d:	72 65          	jb     c0001df4 <.text+0x94>
c0001d8f:	61             	popa   
c0001d90:	6b 70 6f 69    	imull  $0x69,0x6f(%eax),%esi
c0001d94:	6e             	outsb  %ds:(%esi),(%dx)
c0001d95:	74 00          	je     c0001d97 <.text+0x37>
c0001d97:	49             	decl   %ecx
c0001d98:	6e             	outsb  %ds:(%esi),(%dx)
c0001d99:	74 6f          	je     c0001e0a <.text+0xaa>
c0001d9b:	20 44 65 74    	andb   %al,0x74(%ebp,2)
c0001d9f:	65 63 74 65 64 	arpl   %si,%gs:0x64(%ebp,2)
c0001da4:	20 4f 76       	andb   %cl,0x76(%edi)
c0001da7:	65 72 66       	jb     c0001e10 <.text+0xb0>
c0001daa:	6c             	insb   (%dx),%es:(%edi)
c0001dab:	6f             	outsl  %ds:(%esi),(%dx)
c0001dac:	77 00          	ja     c0001dae <.text+0x4e>
c0001dae:	4f             	decl   %edi
c0001daf:	75 74          	jne    c0001e25 <.text+0xc5>
c0001db1:	20 6f 66       	andb   %ch,0x66(%edi)
c0001db4:	20 42 6f       	andb   %al,0x6f(%edx)
c0001db7:	75 6e          	jne    c0001e27 <.text+0xc7>
c0001db9:	64 73 00       	jae    c0001dbc <.text+0x5c>
c0001dbc:	49             	decl   %ecx
c0001dbd:	6e             	outsb  %ds:(%esi),(%dx)
c0001dbe:	76 61          	jbe    c0001e21 <.text+0xc1>
c0001dc0:	6c             	insb   (%dx),%es:(%edi)
c0001dc1:	69 64 20 4f 70 	imull  $0x646f6370,0x4f(%eax,1),%esp
c0001dc6:	63 6f 64 
c0001dc9:	65 00 4e 6f    	addb   %cl,%gs:0x6f(%esi)
c0001dcd:	20 43 6f       	andb   %al,0x6f(%ebx)
c0001dd0:	70 72          	jo     c0001e44 <.text+0xe4>
c0001dd2:	6f             	outsl  %ds:(%esi),(%dx)
c0001dd3:	63 65 73       	arpl   %sp,0x73(%ebp)
c0001dd6:	73 6f          	jae    c0001e47 <.text+0xe7>
c0001dd8:	72 00          	jb     c0001dda <.text+0x7a>
c0001dda:	44             	incl   %esp
c0001ddb:	6f             	outsl  %ds:(%esi),(%dx)
c0001ddc:	75 62          	jne    c0001e40 <.text+0xe0>
c0001dde:	6c             	insb   (%dx),%es:(%edi)
c0001ddf:	65 20 46 61    	andb   %al,%gs:0x61(%esi)
c0001de3:	75 6c          	jne    c0001e51 <.text+0xf1>
c0001de5:	74 00          	je     c0001de7 <.text+0x87>
c0001de7:	43             	incl   %ebx
c0001de8:	6f             	outsl  %ds:(%esi),(%dx)
c0001de9:	70 72          	jo     c0001e5d <.text+0xfd>
c0001deb:	6f             	outsl  %ds:(%esi),(%dx)
c0001dec:	63 65 73       	arpl   %sp,0x73(%ebp)
c0001def:	73 6f          	jae    c0001e60 <.text+0x100>
c0001df1:	72 20          	jb     c0001e13 <.text+0xb3>
c0001df3:	53             	pushl  %ebx
c0001df4:	65 67 6d       	addr16 insl (%dx),%es:(%di)
c0001df7:	65 6e          	outsb  %ds:(%esi),(%dx)
c0001df9:	74 20          	je     c0001e1b <.text+0xbb>
c0001dfb:	4f             	decl   %edi
c0001dfc:	76 65          	jbe    c0001e63 <.text+0x103>
c0001dfe:	72 72          	jb     c0001e72 <.text+0x112>
c0001e00:	75 6e          	jne    c0001e70 <.text+0x110>
c0001e02:	00 42 61       	addb   %al,0x61(%edx)
c0001e05:	64 20 54 53 53 	andb   %dl,%fs:0x53(%ebx,%edx,2)
c0001e0a:	00 53 65       	addb   %dl,0x65(%ebx)
c0001e0d:	67 6d          	addr16 insl (%dx),%es:(%di)
c0001e0f:	65 6e          	outsb  %ds:(%esi),(%dx)
c0001e11:	74 20          	je     c0001e33 <.text+0xd3>
c0001e13:	4e             	decl   %esi
c0001e14:	6f             	outsl  %ds:(%esi),(%dx)
c0001e15:	74 20          	je     c0001e37 <.text+0xd7>
c0001e17:	50             	pushl  %eax
c0001e18:	72 65          	jb     c0001e7f <.text+0x11f>
c0001e1a:	73 65          	jae    c0001e81 <.text+0x121>
c0001e1c:	6e             	outsb  %ds:(%esi),(%dx)
c0001e1d:	74 00          	je     c0001e1f <.text+0xbf>
c0001e1f:	53             	pushl  %ebx
c0001e20:	74 61          	je     c0001e83 <.text+0x123>
c0001e22:	63 6b 20       	arpl   %bp,0x20(%ebx)
c0001e25:	46             	incl   %esi
c0001e26:	61             	popa   
c0001e27:	75 6c          	jne    c0001e95 <.text+0x135>
c0001e29:	74 00          	je     c0001e2b <.text+0xcb>
c0001e2b:	47             	incl   %edi
c0001e2c:	65 6e          	outsb  %ds:(%esi),(%dx)
c0001e2e:	65 72 61       	jb     c0001e92 <.text+0x132>
c0001e31:	6c             	insb   (%dx),%es:(%edi)
c0001e32:	20 50 72       	andb   %dl,0x72(%eax)
c0001e35:	6f             	outsl  %ds:(%esi),(%dx)
c0001e36:	74 65          	je     c0001e9d <.text+0x13d>
c0001e38:	63 74 69 6f    	arpl   %si,0x6f(%ecx,%ebp,2)
c0001e3c:	6e             	outsb  %ds:(%esi),(%dx)
c0001e3d:	20 46 61       	andb   %al,0x61(%esi)
c0001e40:	75 6c          	jne    c0001eae <.text+0x14e>
c0001e42:	74 00          	je     c0001e44 <.text+0xe4>
c0001e44:	50             	pushl  %eax
c0001e45:	61             	popa   
c0001e46:	67 65 20 46 61 	addr16 andb %al,%gs:0x61(bp)
c0001e4b:	75 6c          	jne    c0001eb9 <_isr_dispatcher+0x8>
c0001e4d:	74 00          	je     c0001e4f <.text+0xef>
c0001e4f:	55             	pushl  %ebp
c0001e50:	6e             	outsb  %ds:(%esi),(%dx)
c0001e51:	6b 6e 6f 77    	imull  $0x77,0x6f(%esi),%ebp
c0001e55:	6e             	outsb  %ds:(%esi),(%dx)
c0001e56:	20 49 6e       	andb   %cl,0x6e(%ecx)
c0001e59:	74 65          	je     c0001ec0 <_isr_dispatcher+0xf>
c0001e5b:	72 72          	jb     c0001ecf <_isr_dispatcher+0x1e>
c0001e5d:	75 70          	jne    c0001ecf <_isr_dispatcher+0x1e>
c0001e5f:	74 00          	je     c0001e61 <.text+0x101>
c0001e61:	43             	incl   %ebx
c0001e62:	6f             	outsl  %ds:(%esi),(%dx)
c0001e63:	70 72          	jo     c0001ed7 <_isr_dispatcher+0x26>
c0001e65:	6f             	outsl  %ds:(%esi),(%dx)
c0001e66:	63 65 73       	arpl   %sp,0x73(%ebp)
c0001e69:	73 6f          	jae    c0001eda <_isr_dispatcher+0x29>
c0001e6b:	72 20          	jb     c0001e8d <.text+0x12d>
c0001e6d:	46             	incl   %esi
c0001e6e:	61             	popa   
c0001e6f:	75 6c          	jne    c0001edd <_isr_dispatcher+0x2c>
c0001e71:	74 00          	je     c0001e73 <.text+0x113>
c0001e73:	41             	incl   %ecx
c0001e74:	6c             	insb   (%dx),%es:(%edi)
c0001e75:	69 67 6e 6d 65 	imull  $0x746e656d,0x6e(%edi),%esp
c0001e7a:	6e 74 
c0001e7c:	20 43 68       	andb   %al,0x68(%ebx)
c0001e7f:	65 63 6b 00    	arpl   %bp,%gs:0x0(%ebx)
c0001e83:	4d             	decl   %ebp
c0001e84:	61             	popa   
c0001e85:	63 68 69       	arpl   %bp,0x69(%eax)
c0001e88:	6e             	outsb  %ds:(%esi),(%dx)
c0001e89:	65 20 43 68    	andb   %al,%gs:0x68(%ebx)
c0001e8d:	65 63 6b 00    	arpl   %bp,%gs:0x0(%ebx)
c0001e91:	52             	pushl  %edx
c0001e92:	65 73 65       	jae    c0001efa <_isr_dispatcher+0x49>
c0001e95:	72 76          	jb     c0001f0d <_isr_dispatcher+0x5c>
c0001e97:	65 64 00 69 73 	addb   %ch,%fs:%gs:0x73(%ecx)
c0001e9c:	72 5f          	jb     c0001efd <_isr_dispatcher+0x4c>
c0001e9e:	64 69 73 70 61 	imull  $0x68637461,%fs:0x70(%ebx),%esi
c0001ea3:	74 63 68 
c0001ea6:	65 72 28       	jb     c0001ed1 <_isr_dispatcher+0x20>
c0001ea9:	29 20          	subl   %esp,(%eax)
c0001eab:	2d 20 25 73 0a 	subl   $0xa732520,%eax
	...

c0001eb1 <_isr_dispatcher>:
c0001eb1:	56             	pushl  %esi
c0001eb2:	53             	pushl  %ebx
c0001eb3:	83 ec 04       	subl   $0x4,%esp
c0001eb6:	8b 5c 24 10    	movl   0x10(%esp,1),%ebx
c0001eba:	e8 84 f3 ff ff 	call   c0001243 <_kernel_lock>
c0001ebf:	8b 43 30       	movl   0x30(%ebx),%eax
c0001ec2:	8b 14 85 80 68 	movl   0xc0006880(,%eax,4),%edx
c0001ec7:	00 c0 
c0001ec9:	85 d2          	testl  %edx,%edx
c0001ecb:	74 0d          	je     c0001eda <_isr_dispatcher+0x29>
c0001ecd:	83 ec 0c       	subl   $0xc,%esp
c0001ed0:	53             	pushl  %ebx
c0001ed1:	ff d2          	call   *%edx
c0001ed3:	89 c6          	movl   %eax,%esi
c0001ed5:	83 c4 10       	addl   $0x10,%esp
c0001ed8:	eb 23          	jmp    c0001efd <_isr_dispatcher+0x4c>
c0001eda:	be 00 00 00 00 	movl   $0x0,%esi
c0001edf:	83 f8 1f       	cmpl   $0x1f,%eax
c0001ee2:	77 19          	ja     c0001efd <_isr_dispatcher+0x4c>
c0001ee4:	83 ec 08       	subl   $0x8,%esp
c0001ee7:	ff 34 85 c0 30 	pushl  0xc00030c0(,%eax,4)
c0001eec:	00 c0 
c0001eee:	68 9a 1e 00 c0 	pushl  $0xc0001e9a
c0001ef3:	e8 b8 f3 ff ff 	call   c00012b0 <_kprintf>
c0001ef8:	83 c4 10       	addl   $0x10,%esp
c0001efb:	eb fe          	jmp    c0001efb <_isr_dispatcher+0x4a>
c0001efd:	8b 53 30       	movl   0x30(%ebx),%edx
c0001f00:	8d 42 d8       	leal   0xffffffd8(%edx),%eax
c0001f03:	83 f8 07       	cmpl   $0x7,%eax
c0001f06:	77 14          	ja     c0001f1c <_isr_dispatcher+0x6b>
c0001f08:	83 ec 08       	subl   $0x8,%esp
c0001f0b:	6a 20          	pushl  $0x20
c0001f0d:	68 a0 00 00 00 	pushl  $0xa0
c0001f12:	e8 22 f3 ff ff 	call   c0001239 <_outportb>
c0001f17:	83 c4 10       	addl   $0x10,%esp
c0001f1a:	eb 17          	jmp    c0001f33 <_isr_dispatcher+0x82>
c0001f1c:	8d 42 e0       	leal   0xffffffe0(%edx),%eax
c0001f1f:	83 f8 0f       	cmpl   $0xf,%eax
c0001f22:	77 0f          	ja     c0001f33 <_isr_dispatcher+0x82>
c0001f24:	83 ec 08       	subl   $0x8,%esp
c0001f27:	6a 20          	pushl  $0x20
c0001f29:	6a 20          	pushl  $0x20
c0001f2b:	e8 09 f3 ff ff 	call   c0001239 <_outportb>
c0001f30:	83 c4 10       	addl   $0x10,%esp
c0001f33:	e8 13 f3 ff ff 	call   c000124b <_kernel_unlock>
c0001f38:	89 f0          	movl   %esi,%eax
c0001f3a:	83 c4 04       	addl   $0x4,%esp
c0001f3d:	5b             	popl   %ebx
c0001f3e:	5e             	popl   %esi
c0001f3f:	c3             	ret    

c0001f40 <_isr_setHandler>:
c0001f40:	8b 54 24 04    	movl   0x4(%esp,1),%edx
c0001f44:	8b 44 24 08    	movl   0x8(%esp,1),%eax
c0001f48:	89 04 95 80 68 	movl   %eax,0xc0006880(,%edx,4)
c0001f4d:	00 c0 
c0001f4f:	c3             	ret    

c0001f50 <_debug_putint>:
c0001f50:	53             	pushl  %ebx
c0001f51:	83 ec 08       	subl   $0x8,%esp
c0001f54:	8b 5c 24 10    	movl   0x10(%esp,1),%ebx
c0001f58:	85 db          	testl  %ebx,%ebx
c0001f5a:	78 0e          	js     c0001f6a <_debug_putint+0x1a>
c0001f5c:	83 ec 0c       	subl   $0xc,%esp
c0001f5f:	53             	pushl  %ebx
c0001f60:	e8 ba 00 00 00 	call   c000201f <_debug_putuint>
c0001f65:	83 c4 10       	addl   $0x10,%esp
c0001f68:	eb 19          	jmp    c0001f83 <_debug_putint+0x33>
c0001f6a:	83 ec 0c       	subl   $0xc,%esp
c0001f6d:	6a 2d          	pushl  $0x2d
c0001f6f:	e8 73 01 00 00 	call   c00020e7 <_debug_putch>
c0001f74:	89 d8          	movl   %ebx,%eax
c0001f76:	f7 d8          	negl   %eax
c0001f78:	89 04 24       	movl   %eax,(%esp,1)
c0001f7b:	e8 9f 00 00 00 	call   c000201f <_debug_putuint>
c0001f80:	83 c4 10       	addl   $0x10,%esp
c0001f83:	83 c4 08       	addl   $0x8,%esp
c0001f86:	5b             	popl   %ebx
c0001f87:	c3             	ret    

c0001f88 <_hex.806>:
c0001f88:	30 31          	xorb   %dh,(%ecx)
c0001f8a:	32 33          	xorb   (%ebx),%dh
c0001f8c:	34 35          	xorb   $0x35,%al
c0001f8e:	36 37          	aaa    
c0001f90:	38 39          	cmpb   %bh,(%ecx)
c0001f92:	41             	incl   %ecx
c0001f93:	42             	incl   %edx
c0001f94:	43             	incl   %ebx
c0001f95:	44             	incl   %esp
c0001f96:	45             	incl   %ebp
c0001f97:	46             	incl   %esi

c0001f98 <_debug_puthex>:
c0001f98:	56             	pushl  %esi
c0001f99:	53             	pushl  %ebx
c0001f9a:	83 ec 10       	subl   $0x10,%esp
c0001f9d:	6a 30          	pushl  $0x30
c0001f9f:	e8 43 01 00 00 	call   c00020e7 <_debug_putch>
c0001fa4:	c7 04 24 78 00 	movl   $0x78,(%esp,1)
c0001fa9:	00 00 
c0001fab:	e8 37 01 00 00 	call   c00020e7 <_debug_putch>
c0001fb0:	8b 44 24 20    	movl   0x20(%esp,1),%eax
c0001fb4:	c1 e8 1c       	shrl   $0x1c,%eax
c0001fb7:	83 c4 10       	addl   $0x10,%esp
c0001fba:	be 00 00 00 10 	movl   $0x10000000,%esi
c0001fbf:	85 c0          	testl  %eax,%eax
c0001fc1:	74 06          	je     c0001fc9 <_debug_puthex+0x31>
c0001fc3:	8b 44 24 10    	movl   0x10(%esp,1),%eax
c0001fc7:	eb 26          	jmp    c0001fef <_debug_puthex+0x57>
c0001fc9:	c1 ee 04       	shrl   $0x4,%esi
c0001fcc:	8b 44 24 10    	movl   0x10(%esp,1),%eax
c0001fd0:	ba 00 00 00 00 	movl   $0x0,%edx
c0001fd5:	f7 f6          	divl   %esi,%eax
c0001fd7:	85 c0          	testl  %eax,%eax
c0001fd9:	0f 94 c2       	sete   %dl
c0001fdc:	83 fe 0f       	cmpl   $0xf,%esi
c0001fdf:	0f 97 c0       	seta   %al
c0001fe2:	84 d0          	testb  %dl,%al
c0001fe4:	75 e3          	jne    c0001fc9 <_debug_puthex+0x31>
c0001fe6:	83 fe 0e       	cmpl   $0xe,%esi
c0001fe9:	76 2e          	jbe    c0002019 <_debug_puthex+0x81>
c0001feb:	8b 44 24 10    	movl   0x10(%esp,1),%eax
c0001fef:	83 ec 0c       	subl   $0xc,%esp
c0001ff2:	ba 00 00 00 00 	movl   $0x0,%edx
c0001ff7:	f7 f6          	divl   %esi,%eax
c0001ff9:	89 d3          	movl   %edx,%ebx
c0001ffb:	8a 80 88 1f 00 	movb   0xc0001f88(%eax),%al
c0002000:	c0 
c0002001:	25 ff 00 00 00 	andl   $0xff,%eax
c0002006:	50             	pushl  %eax
c0002007:	e8 db 00 00 00 	call   c00020e7 <_debug_putch>
c000200c:	89 d8          	movl   %ebx,%eax
c000200e:	c1 ee 04       	shrl   $0x4,%esi
c0002011:	83 c4 10       	addl   $0x10,%esp
c0002014:	83 fe 0e       	cmpl   $0xe,%esi
c0002017:	77 d6          	ja     c0001fef <_debug_puthex+0x57>
c0002019:	83 c4 04       	addl   $0x4,%esp
c000201c:	5b             	popl   %ebx
c000201d:	5e             	popl   %esi
c000201e:	c3             	ret    

c000201f <_debug_putuint>:
c000201f:	56             	pushl  %esi
c0002020:	53             	pushl  %ebx
c0002021:	81 ec 04 01 00 	subl   $0x104,%esp
c0002026:	00 
c0002027:	8b 8c 24 10 01 	movl   0x110(%esp,1),%ecx
c000202c:	00 00 
c000202e:	89 ca          	movl   %ecx,%edx
c0002030:	c1 ea 09       	shrl   $0x9,%edx
c0002033:	b8 83 4b 04 00 	movl   $0x44b83,%eax
c0002038:	f7 e2          	mull   %edx,%eax
c000203a:	c1 ea 07       	shrl   $0x7,%edx
c000203d:	85 d2          	testl  %edx,%edx
c000203f:	74 0c          	je     c000204d <_debug_putuint+0x2e>
c0002041:	bb 00 ca 9a 3b 	movl   $0x3b9aca00,%ebx
c0002046:	be 00 00 00 00 	movl   $0x0,%esi
c000204b:	eb 3a          	jmp    c0002087 <_debug_putuint+0x68>
c000204d:	bb 00 ca 9a 3b 	movl   $0x3b9aca00,%ebx
c0002052:	be cd cc cc cc 	movl   $0xcccccccd,%esi
c0002057:	89 d8          	movl   %ebx,%eax
c0002059:	f7 e6          	mull   %esi,%eax
c000205b:	89 d3          	movl   %edx,%ebx
c000205d:	c1 eb 03       	shrl   $0x3,%ebx
c0002060:	89 c8          	movl   %ecx,%eax
c0002062:	ba 00 00 00 00 	movl   $0x0,%edx
c0002067:	f7 f3          	divl   %ebx,%eax
c0002069:	85 c0          	testl  %eax,%eax
c000206b:	0f 94 c2       	sete   %dl
c000206e:	83 fb 09       	cmpl   $0x9,%ebx
c0002071:	0f 97 c0       	seta   %al
c0002074:	84 d0          	testb  %dl,%al
c0002076:	75 df          	jne    c0002057 <_debug_putuint+0x38>
c0002078:	be 00 00 00 00 	movl   $0x0,%esi
c000207d:	83 fb 09       	cmpl   $0x9,%ebx
c0002080:	76 2b          	jbe    c00020ad <_debug_putuint+0x8e>
c0002082:	be 00 00 00 00 	movl   $0x0,%esi
c0002087:	89 c8          	movl   %ecx,%eax
c0002089:	ba 00 00 00 00 	movl   $0x0,%edx
c000208e:	f7 f3          	divl   %ebx,%eax
c0002090:	83 c0 30       	addl   $0x30,%eax
c0002093:	88 44 34 05    	movb   %al,0x5(%esp,%esi,1)
c0002097:	46             	incl   %esi
c0002098:	89 d1          	movl   %edx,%ecx
c000209a:	ba cd cc cc cc 	movl   $0xcccccccd,%edx
c000209f:	89 d8          	movl   %ebx,%eax
c00020a1:	f7 e2          	mull   %edx,%eax
c00020a3:	89 d3          	movl   %edx,%ebx
c00020a5:	c1 eb 03       	shrl   $0x3,%ebx
c00020a8:	83 fb 09       	cmpl   $0x9,%ebx
c00020ab:	77 da          	ja     c0002087 <_debug_putuint+0x68>
c00020ad:	8d 41 30       	leal   0x30(%ecx),%eax
c00020b0:	88 44 34 05    	movb   %al,0x5(%esp,%esi,1)
c00020b4:	c6 44 34 06 00 	movb   $0x0,0x6(%esp,%esi,1)
c00020b9:	8a 44 24 05    	movb   0x5(%esp,1),%al
c00020bd:	84 c0          	testb  %al,%al
c00020bf:	74 1d          	je     c00020de <_debug_putuint+0xbf>
c00020c1:	8d 5c 24 05    	leal   0x5(%esp,1),%ebx
c00020c5:	83 ec 0c       	subl   $0xc,%esp
c00020c8:	25 ff 00 00 00 	andl   $0xff,%eax
c00020cd:	50             	pushl  %eax
c00020ce:	e8 14 00 00 00 	call   c00020e7 <_debug_putch>
c00020d3:	8a 43 01       	movb   0x1(%ebx),%al
c00020d6:	43             	incl   %ebx
c00020d7:	83 c4 10       	addl   $0x10,%esp
c00020da:	84 c0          	testb  %al,%al
c00020dc:	75 e7          	jne    c00020c5 <_debug_putuint+0xa6>
c00020de:	81 c4 04 01 00 	addl   $0x104,%esp
c00020e3:	00 
c00020e4:	5b             	popl   %ebx
c00020e5:	5e             	popl   %esi
c00020e6:	c3             	ret    

c00020e7 <_debug_putch>:
c00020e7:	83 ec 14       	subl   $0x14,%esp
c00020ea:	b8 00 00 00 00 	movl   $0x0,%eax
c00020ef:	8a 44 24 18    	movb   0x18(%esp,1),%al
c00020f3:	50             	pushl  %eax
c00020f4:	68 e9 00 00 00 	pushl  $0xe9
c00020f9:	e8 3b f1 ff ff 	call   c0001239 <_outportb>
c00020fe:	83 c4 1c       	addl   $0x1c,%esp
c0002101:	c3             	ret    
c0002102:	5b             	popl   %ebx
c0002103:	41             	incl   %ecx
c0002104:	4d             	decl   %ebp
c0002105:	4f             	decl   %edi
c0002106:	53             	pushl  %ebx
c0002107:	5d             	popl   %ebp
c0002108:	20 00          	andb   %al,(%eax)

c000210a <_debug_kprintf>:
c000210a:	55             	pushl  %ebp
c000210b:	57             	pushl  %edi
c000210c:	56             	pushl  %esi
c000210d:	53             	pushl  %ebx
c000210e:	81 ec 1c 01 00 	subl   $0x11c,%esp
c0002113:	00 
c0002114:	a1 02 21 00 c0 	movl   0xc0002102,%eax
c0002119:	8b 15 06 21 00 	movl   0xc0002106,%edx
c000211e:	c0 
c000211f:	89 84 24 14 01 	movl   %eax,0x114(%esp,1)
c0002124:	00 00 
c0002126:	89 94 24 18 01 	movl   %edx,0x118(%esp,1)
c000212b:	00 00 
c000212d:	8d b4 24 34 01 	leal   0x134(%esp,1),%esi
c0002132:	00 00 
c0002134:	8a 84 24 14 01 	movb   0x114(%esp,1),%al
c0002139:	00 00 
c000213b:	84 c0          	testb  %al,%al
c000213d:	74 25          	je     c0002164 <_debug_kprintf+0x5a>
c000213f:	8d 9c 24 14 01 	leal   0x114(%esp,1),%ebx
c0002144:	00 00 
c0002146:	83 ec 08       	subl   $0x8,%esp
c0002149:	25 ff 00 00 00 	andl   $0xff,%eax
c000214e:	50             	pushl  %eax
c000214f:	68 e9 00 00 00 	pushl  $0xe9
c0002154:	e8 e0 f0 ff ff 	call   c0001239 <_outportb>
c0002159:	8a 43 01       	movb   0x1(%ebx),%al
c000215c:	43             	incl   %ebx
c000215d:	83 c4 10       	addl   $0x10,%esp
c0002160:	84 c0          	testb  %al,%al
c0002162:	75 e2          	jne    c0002146 <_debug_kprintf+0x3c>
c0002164:	bf 00 00 00 00 	movl   $0x0,%edi
c0002169:	e9 40 02 00 00 	jmp    c00023ae <_debug_kprintf+0x2a4>
c000216e:	3c 25          	cmpb   $0x25,%al
c0002170:	0f 85 21 02 00 	jne    c0002397 <_debug_kprintf+0x28d>
c0002175:	00 
c0002176:	8a 54 17 01    	movb   0x1(%edi,%edx,1),%dl
c000217a:	0f be c2       	movsbl %dl,%eax
c000217d:	83 e8 63       	subl   $0x63,%eax
c0002180:	83 f8 15       	cmpl   $0x15,%eax
c0002183:	0f 87 ed 01 00 	ja     c0002376 <_debug_kprintf+0x26c>
c0002188:	00 
c0002189:	ff 24 85 90 21 	jmp    *0xc0002190(,%eax,4)
c000218e:	00 c0 
c0002190:	1d 22 00 c0 3d 	sbbl   $0x3dc00022,%eax
c0002195:	22 00          	andb   (%eax),%al
c0002197:	c0             	(bad)  
c0002198:	76 23          	jbe    c00021bd <_debug_kprintf+0xb3>
c000219a:	00 c0          	addb   %al,%al
c000219c:	76 23          	jbe    c00021c1 <_debug_kprintf+0xb7>
c000219e:	00 c0          	addb   %al,%al
c00021a0:	76 23          	jbe    c00021c5 <_debug_kprintf+0xbb>
c00021a2:	00 c0          	addb   %al,%al
c00021a4:	76 23          	jbe    c00021c9 <_debug_kprintf+0xbf>
c00021a6:	00 c0          	addb   %al,%al
c00021a8:	75 22          	jne    c00021cc <_debug_kprintf+0xc2>
c00021aa:	00 c0          	addb   %al,%al
c00021ac:	76 23          	jbe    c00021d1 <_debug_kprintf+0xc7>
c00021ae:	00 c0          	addb   %al,%al
c00021b0:	76 23          	jbe    c00021d5 <_debug_kprintf+0xcb>
c00021b2:	00 c0          	addb   %al,%al
c00021b4:	76 23          	jbe    c00021d9 <_debug_kprintf+0xcf>
c00021b6:	00 c0          	addb   %al,%al
c00021b8:	76 23          	jbe    c00021dd <_debug_kprintf+0xd3>
c00021ba:	00 c0          	addb   %al,%al
c00021bc:	76 23          	jbe    c00021e1 <_debug_kprintf+0xd7>
c00021be:	00 c0          	addb   %al,%al
c00021c0:	76 23          	jbe    c00021e5 <_debug_kprintf+0xdb>
c00021c2:	00 c0          	addb   %al,%al
c00021c4:	76 23          	jbe    c00021e9 <_debug_kprintf+0xdf>
c00021c6:	00 c0          	addb   %al,%al
c00021c8:	76 23          	jbe    c00021ed <_debug_kprintf+0xe3>
c00021ca:	00 c0          	addb   %al,%al
c00021cc:	76 23          	jbe    c00021f1 <_debug_kprintf+0xe7>
c00021ce:	00 c0          	addb   %al,%al
c00021d0:	e8 21 00 c0 76 	call   36c021f6 <MULTIBOOT_HEADER_MAGIC+0x1b1271f4>
c00021d5:	23 00          	andl   (%eax),%eax
c00021d7:	c0 ad 22 00 c0 	shrb   $0x23,0x76c00022(%ebp)
c00021dc:	76 23 
c00021de:	00 c0          	addb   %al,%al
c00021e0:	76 23          	jbe    c0002205 <_debug_kprintf+0xfb>
c00021e2:	00 c0          	addb   %al,%al
c00021e4:	64 23 00       	andl   %fs:(%eax),%eax
c00021e7:	c0 8d 6e 04 8b 	rorb   $0x8a,0x168b046e(%ebp)
c00021ec:	16 8a 
c00021ee:	02 84 c0 0f 84 	addb   0x199840f(%eax,%eax,8),%al
c00021f3:	99 01 
c00021f5:	00 00          	addb   %al,(%eax)
c00021f7:	89 d3          	movl   %edx,%ebx
c00021f9:	83 ec 08       	subl   $0x8,%esp
c00021fc:	25 ff 00 00 00 	andl   $0xff,%eax
c0002201:	50             	pushl  %eax
c0002202:	68 e9 00 00 00 	pushl  $0xe9
c0002207:	e8 2d f0 ff ff 	call   c0001239 <_outportb>
c000220c:	8a 43 01       	movb   0x1(%ebx),%al
c000220f:	43             	incl   %ebx
c0002210:	83 c4 10       	addl   $0x10,%esp
c0002213:	84 c0          	testb  %al,%al
c0002215:	0f 84 75 01 00 	je     c0002390 <_debug_kprintf+0x286>
c000221a:	00 
c000221b:	eb dc          	jmp    c00021f9 <_debug_kprintf+0xef>
c000221d:	8d 6e 04       	leal   0x4(%esi),%ebp
c0002220:	83 ec 08       	subl   $0x8,%esp
c0002223:	b8 00 00 00 00 	movl   $0x0,%eax
c0002228:	8a 06          	movb   (%esi),%al
c000222a:	50             	pushl  %eax
c000222b:	68 e9 00 00 00 	pushl  $0xe9
c0002230:	e8 04 f0 ff ff 	call   c0001239 <_outportb>
c0002235:	83 c4 10       	addl   $0x10,%esp
c0002238:	e9 53 01 00 00 	jmp    c0002390 <_debug_kprintf+0x286>
c000223d:	8d 6e 04       	leal   0x4(%esi),%ebp
c0002240:	8b 1e          	movl   (%esi),%ebx
c0002242:	85 db          	testl  %ebx,%ebx
c0002244:	78 11          	js     c0002257 <_debug_kprintf+0x14d>
c0002246:	83 ec 0c       	subl   $0xc,%esp
c0002249:	53             	pushl  %ebx
c000224a:	e8 d0 fd ff ff 	call   c000201f <_debug_putuint>
c000224f:	83 c4 10       	addl   $0x10,%esp
c0002252:	e9 39 01 00 00 	jmp    c0002390 <_debug_kprintf+0x286>
c0002257:	83 ec 0c       	subl   $0xc,%esp
c000225a:	6a 2d          	pushl  $0x2d
c000225c:	e8 86 fe ff ff 	call   c00020e7 <_debug_putch>
c0002261:	89 d8          	movl   %ebx,%eax
c0002263:	f7 d8          	negl   %eax
c0002265:	89 04 24       	movl   %eax,(%esp,1)
c0002268:	e8 b2 fd ff ff 	call   c000201f <_debug_putuint>
c000226d:	83 c4 10       	addl   $0x10,%esp
c0002270:	e9 1b 01 00 00 	jmp    c0002390 <_debug_kprintf+0x286>
c0002275:	8d 6e 04       	leal   0x4(%esi),%ebp
c0002278:	8b 1e          	movl   (%esi),%ebx
c000227a:	85 db          	testl  %ebx,%ebx
c000227c:	78 11          	js     c000228f <_debug_kprintf+0x185>
c000227e:	83 ec 0c       	subl   $0xc,%esp
c0002281:	53             	pushl  %ebx
c0002282:	e8 98 fd ff ff 	call   c000201f <_debug_putuint>
c0002287:	83 c4 10       	addl   $0x10,%esp
c000228a:	e9 01 01 00 00 	jmp    c0002390 <_debug_kprintf+0x286>
c000228f:	83 ec 0c       	subl   $0xc,%esp
c0002292:	6a 2d          	pushl  $0x2d
c0002294:	e8 4e fe ff ff 	call   c00020e7 <_debug_putch>
c0002299:	89 d8          	movl   %ebx,%eax
c000229b:	f7 d8          	negl   %eax
c000229d:	89 04 24       	movl   %eax,(%esp,1)
c00022a0:	e8 7a fd ff ff 	call   c000201f <_debug_putuint>
c00022a5:	83 c4 10       	addl   $0x10,%esp
c00022a8:	e9 e3 00 00 00 	jmp    c0002390 <_debug_kprintf+0x286>
c00022ad:	8d 6e 04       	leal   0x4(%esi),%ebp
c00022b0:	8b 0e          	movl   (%esi),%ecx
c00022b2:	89 ca          	movl   %ecx,%edx
c00022b4:	c1 ea 09       	shrl   $0x9,%edx
c00022b7:	b8 83 4b 04 00 	movl   $0x44b83,%eax
c00022bc:	f7 e2          	mull   %edx,%eax
c00022be:	c1 ea 07       	shrl   $0x7,%edx
c00022c1:	85 d2          	testl  %edx,%edx
c00022c3:	74 0c          	je     c00022d1 <_debug_kprintf+0x1c7>
c00022c5:	bb 00 ca 9a 3b 	movl   $0x3b9aca00,%ebx
c00022ca:	be 00 00 00 00 	movl   $0x0,%esi
c00022cf:	eb 3a          	jmp    c000230b <_debug_kprintf+0x201>
c00022d1:	bb 00 ca 9a 3b 	movl   $0x3b9aca00,%ebx
c00022d6:	be cd cc cc cc 	movl   $0xcccccccd,%esi
c00022db:	89 d8          	movl   %ebx,%eax
c00022dd:	f7 e6          	mull   %esi,%eax
c00022df:	89 d3          	movl   %edx,%ebx
c00022e1:	c1 eb 03       	shrl   $0x3,%ebx
c00022e4:	89 c8          	movl   %ecx,%eax
c00022e6:	ba 00 00 00 00 	movl   $0x0,%edx
c00022eb:	f7 f3          	divl   %ebx,%eax
c00022ed:	85 c0          	testl  %eax,%eax
c00022ef:	0f 94 c2       	sete   %dl
c00022f2:	83 fb 09       	cmpl   $0x9,%ebx
c00022f5:	0f 97 c0       	seta   %al
c00022f8:	84 d0          	testb  %dl,%al
c00022fa:	75 df          	jne    c00022db <_debug_kprintf+0x1d1>
c00022fc:	be 00 00 00 00 	movl   $0x0,%esi
c0002301:	83 fb 09       	cmpl   $0x9,%ebx
c0002304:	76 2b          	jbe    c0002331 <_debug_kprintf+0x227>
c0002306:	be 00 00 00 00 	movl   $0x0,%esi
c000230b:	89 c8          	movl   %ecx,%eax
c000230d:	ba 00 00 00 00 	movl   $0x0,%edx
c0002312:	f7 f3          	divl   %ebx,%eax
c0002314:	83 c0 30       	addl   $0x30,%eax
c0002317:	88 44 34 15    	movb   %al,0x15(%esp,%esi,1)
c000231b:	46             	incl   %esi
c000231c:	89 d1          	movl   %edx,%ecx
c000231e:	ba cd cc cc cc 	movl   $0xcccccccd,%edx
c0002323:	89 d8          	movl   %ebx,%eax
c0002325:	f7 e2          	mull   %edx,%eax
c0002327:	89 d3          	movl   %edx,%ebx
c0002329:	c1 eb 03       	shrl   $0x3,%ebx
c000232c:	83 fb 09       	cmpl   $0x9,%ebx
c000232f:	77 da          	ja     c000230b <_debug_kprintf+0x201>
c0002331:	8d 41 30       	leal   0x30(%ecx),%eax
c0002334:	88 44 34 15    	movb   %al,0x15(%esp,%esi,1)
c0002338:	c6 44 34 16 00 	movb   $0x0,0x16(%esp,%esi,1)
c000233d:	8a 44 24 15    	movb   0x15(%esp,1),%al
c0002341:	84 c0          	testb  %al,%al
c0002343:	74 4b          	je     c0002390 <_debug_kprintf+0x286>
c0002345:	8d 5c 24 15    	leal   0x15(%esp,1),%ebx
c0002349:	83 ec 0c       	subl   $0xc,%esp
c000234c:	25 ff 00 00 00 	andl   $0xff,%eax
c0002351:	50             	pushl  %eax
c0002352:	e8 90 fd ff ff 	call   c00020e7 <_debug_putch>
c0002357:	8a 43 01       	movb   0x1(%ebx),%al
c000235a:	43             	incl   %ebx
c000235b:	83 c4 10       	addl   $0x10,%esp
c000235e:	84 c0          	testb  %al,%al
c0002360:	74 2e          	je     c0002390 <_debug_kprintf+0x286>
c0002362:	eb e5          	jmp    c0002349 <_debug_kprintf+0x23f>
c0002364:	8d 6e 04       	leal   0x4(%esi),%ebp
c0002367:	83 ec 0c       	subl   $0xc,%esp
c000236a:	ff 36          	pushl  (%esi)
c000236c:	e8 27 fc ff ff 	call   c0001f98 <_debug_puthex>
c0002371:	83 c4 10       	addl   $0x10,%esp
c0002374:	eb 1a          	jmp    c0002390 <_debug_kprintf+0x286>
c0002376:	83 ec 08       	subl   $0x8,%esp
c0002379:	b8 00 00 00 00 	movl   $0x0,%eax
c000237e:	88 d0          	movb   %dl,%al
c0002380:	50             	pushl  %eax
c0002381:	68 e9 00 00 00 	pushl  $0xe9
c0002386:	e8 ae ee ff ff 	call   c0001239 <_outportb>
c000238b:	89 f5          	movl   %esi,%ebp
c000238d:	83 c4 10       	addl   $0x10,%esp
c0002390:	83 c7 02       	addl   $0x2,%edi
c0002393:	89 ee          	movl   %ebp,%esi
c0002395:	eb 17          	jmp    c00023ae <_debug_kprintf+0x2a4>
c0002397:	83 ec 08       	subl   $0x8,%esp
c000239a:	25 ff 00 00 00 	andl   $0xff,%eax
c000239f:	50             	pushl  %eax
c00023a0:	68 e9 00 00 00 	pushl  $0xe9
c00023a5:	e8 8f ee ff ff 	call   c0001239 <_outportb>
c00023aa:	47             	incl   %edi
c00023ab:	83 c4 10       	addl   $0x10,%esp
c00023ae:	8b 94 24 30 01 	movl   0x130(%esp,1),%edx
c00023b3:	00 00 
c00023b5:	8a 04 3a       	movb   (%edx,%edi,1),%al
c00023b8:	84 c0          	testb  %al,%al
c00023ba:	0f 85 ae fd ff 	jne    c000216e <_debug_kprintf+0x64>
c00023bf:	ff 
c00023c0:	81 c4 1c 01 00 	addl   $0x11c,%esp
c00023c5:	00 
c00023c6:	5b             	popl   %ebx
c00023c7:	5e             	popl   %esi
c00023c8:	5f             	popl   %edi
c00023c9:	5d             	popl   %ebp
c00023ca:	c3             	ret    
c00023cb:	90             	nop    
c00023cc:	90             	nop    
c00023cd:	90             	nop    
c00023ce:	90             	nop    
c00023cf:	90             	nop    

c00023d0 <_mm_init>:
c00023d0:	83 ec 18       	subl   $0x18,%esp
c00023d3:	ff 74 24 1c    	pushl  0x1c(%esp,1)
c00023d7:	e8 30 07 00 00 	call   c0002b0c <_physical_init>
c00023dc:	e8 22 05 00 00 	call   c0002903 <_paging_init>
c00023e1:	83 c4 1c       	addl   $0x1c,%esp
c00023e4:	c3             	ret    

c00023e5 <_mm_morecore>:
c00023e5:	56             	pushl  %esi
c00023e6:	53             	pushl  %ebx
c00023e7:	83 ec 04       	subl   $0x4,%esp
c00023ea:	8b 44 24 10    	movl   0x10(%esp,1),%eax
c00023ee:	c1 e8 0c       	shrl   $0xc,%eax
c00023f1:	40             	incl   %eax
c00023f2:	83 3d 04 50 00 	cmpl   $0x0,0xc0005004
c00023f7:	c0 00 
c00023f9:	75 14          	jne    c000240f <_mm_morecore+0x2a>
c00023fb:	c7 05 04 50 00 	movl   $0xd0000000,0xc0005004
c0002400:	c0 00 00 00 d0 
c0002405:	c7 05 08 50 00 	movl   $0xd0000000,0xc0005008
c000240a:	c0 00 00 00 d0 
c000240f:	8b 35 04 50 00 	movl   0xc0005004,%esi
c0002414:	c0 
c0002415:	8d 58 ff       	leal   0xffffffff(%eax),%ebx
c0002418:	85 c0          	testl  %eax,%eax
c000241a:	7e 4b          	jle    c0002467 <_mm_morecore+0x82>
c000241c:	e8 15 06 00 00 	call   c0002a36 <_physical_pageAlloc>
c0002421:	85 c0          	testl  %eax,%eax
c0002423:	75 07          	jne    c000242c <_mm_morecore+0x47>
c0002425:	be 00 00 00 00 	movl   $0x0,%esi
c000242a:	eb 3b          	jmp    c0002467 <_mm_morecore+0x82>
c000242c:	83 ec 04       	subl   $0x4,%esp
c000242f:	6a 01          	pushl  $0x1
c0002431:	50             	pushl  %eax
c0002432:	ff 35 04 50 00 	pushl  0xc0005004
c0002437:	c0 
c0002438:	e8 7c 03 00 00 	call   c00027b9 <_paging_setPageTableEntry>
c000243d:	83 c4 0c       	addl   $0xc,%esp
c0002440:	68 00 10 00 00 	pushl  $0x1000
c0002445:	6a 00          	pushl  $0x0
c0002447:	ff 35 04 50 00 	pushl  0xc0005004
c000244c:	c0 
c000244d:	e8 be ed ff ff 	call   c0001210 <_memset>
c0002452:	81 05 04 50 00 	addl   $0x1000,0xc0005004
c0002457:	c0 00 10 00 00 
c000245c:	4b             	decl   %ebx
c000245d:	8d 43 01       	leal   0x1(%ebx),%eax
c0002460:	83 c4 10       	addl   $0x10,%esp
c0002463:	85 c0          	testl  %eax,%eax
c0002465:	7f b5          	jg     c000241c <_mm_morecore+0x37>
c0002467:	89 f0          	movl   %esi,%eax
c0002469:	83 c4 04       	addl   $0x4,%esp
c000246c:	5b             	popl   %ebx
c000246d:	5e             	popl   %esi
c000246e:	c3             	ret    

c000246f <_mm_free>:
c000246f:	83 ec 0c       	subl   $0xc,%esp
c0002472:	e8 cc ed ff ff 	call   c0001243 <_kernel_lock>
c0002477:	8b 54 24 10    	movl   0x10(%esp,1),%edx
c000247b:	83 ea 0c       	subl   $0xc,%edx
c000247e:	a1 08 50 00 c0 	movl   0xc0005008,%eax
c0002483:	85 c0          	testl  %eax,%eax
c0002485:	75 5d          	jne    c00024e4 <_mm_free+0x75>
c0002487:	eb 0a          	jmp    c0002493 <_mm_free+0x24>
c0002489:	39 c2          	cmpl   %eax,%edx
c000248b:	74 0d          	je     c000249a <_mm_free+0x2b>
c000248d:	8b 00          	movl   (%eax),%eax
c000248f:	85 c0          	testl  %eax,%eax
c0002491:	75 f6          	jne    c0002489 <_mm_free+0x1a>
c0002493:	e8 b3 ed ff ff 	call   c000124b <_kernel_unlock>
c0002498:	eb 5e          	jmp    c00024f8 <_mm_free+0x89>
c000249a:	c7 40 08 00 00 	movl   $0x0,0x8(%eax)
c000249f:	00 00 
c00024a1:	8b 0d 08 50 00 	movl   0xc0005008,%ecx
c00024a6:	c0 
c00024a7:	85 c9          	testl  %ecx,%ecx
c00024a9:	75 2a          	jne    c00024d5 <_mm_free+0x66>
c00024ab:	eb 30          	jmp    c00024dd <_mm_free+0x6e>
c00024ad:	8b 41 04       	movl   0x4(%ecx),%eax
c00024b0:	03 42 04       	addl   0x4(%edx),%eax
c00024b3:	83 c0 0c       	addl   $0xc,%eax
c00024b6:	89 41 04       	movl   %eax,0x4(%ecx)
c00024b9:	8b 01          	movl   (%ecx),%eax
c00024bb:	8b 10          	movl   (%eax),%edx
c00024bd:	89 11          	movl   %edx,(%ecx)
c00024bf:	83 79 08 00    	cmpl   $0x0,0x8(%ecx)
c00024c3:	75 0a          	jne    c00024cf <_mm_free+0x60>
c00024c5:	85 d2          	testl  %edx,%edx
c00024c7:	74 06          	je     c00024cf <_mm_free+0x60>
c00024c9:	83 7a 08 00    	cmpl   $0x0,0x8(%edx)
c00024cd:	74 de          	je     c00024ad <_mm_free+0x3e>
c00024cf:	8b 09          	movl   (%ecx),%ecx
c00024d1:	85 c9          	testl  %ecx,%ecx
c00024d3:	74 08          	je     c00024dd <_mm_free+0x6e>
c00024d5:	83 79 08 00    	cmpl   $0x0,0x8(%ecx)
c00024d9:	75 f4          	jne    c00024cf <_mm_free+0x60>
c00024db:	eb 0d          	jmp    c00024ea <_mm_free+0x7b>
c00024dd:	e8 69 ed ff ff 	call   c000124b <_kernel_unlock>
c00024e2:	eb 14          	jmp    c00024f8 <_mm_free+0x89>
c00024e4:	39 c2          	cmpl   %eax,%edx
c00024e6:	75 a5          	jne    c000248d <_mm_free+0x1e>
c00024e8:	eb b0          	jmp    c000249a <_mm_free+0x2b>
c00024ea:	8b 11          	movl   (%ecx),%edx
c00024ec:	85 d2          	testl  %edx,%edx
c00024ee:	74 df          	je     c00024cf <_mm_free+0x60>
c00024f0:	83 7a 08 00    	cmpl   $0x0,0x8(%edx)
c00024f4:	74 b7          	je     c00024ad <_mm_free+0x3e>
c00024f6:	eb d7          	jmp    c00024cf <_mm_free+0x60>
c00024f8:	83 c4 0c       	addl   $0xc,%esp
c00024fb:	c3             	ret    

c00024fc <_mm_malloc>:
c00024fc:	55             	pushl  %ebp
c00024fd:	57             	pushl  %edi
c00024fe:	56             	pushl  %esi
c00024ff:	53             	pushl  %ebx
c0002500:	83 ec 0c       	subl   $0xc,%esp
c0002503:	8b 7c 24 20    	movl   0x20(%esp,1),%edi
c0002507:	e8 37 ed ff ff 	call   c0001243 <_kernel_lock>
c000250c:	85 ff          	testl  %edi,%edi
c000250e:	75 0f          	jne    c000251f <_mm_malloc+0x23>
c0002510:	e8 36 ed ff ff 	call   c000124b <_kernel_unlock>
c0002515:	b8 00 00 00 00 	movl   $0x0,%eax
c000251a:	e9 2c 01 00 00 	jmp    c000264b <_mm_malloc+0x14f>
c000251f:	8d 47 07       	leal   0x7(%edi),%eax
c0002522:	83 e0 f8       	andl   $0xfffffff8,%eax
c0002525:	8d 70 0c       	leal   0xc(%eax),%esi
c0002528:	8b 1d 08 50 00 	movl   0xc0005008,%ebx
c000252d:	c0 
c000252e:	85 db          	testl  %ebx,%ebx
c0002530:	74 11          	je     c0002543 <_mm_malloc+0x47>
c0002532:	83 7b 08 00    	cmpl   $0x0,0x8(%ebx)
c0002536:	75 05          	jne    c000253d <_mm_malloc+0x41>
c0002538:	3b 73 04       	cmpl   0x4(%ebx),%esi
c000253b:	76 17          	jbe    c0002554 <_mm_malloc+0x58>
c000253d:	8b 1b          	movl   (%ebx),%ebx
c000253f:	85 db          	testl  %ebx,%ebx
c0002541:	75 ef          	jne    c0002532 <_mm_malloc+0x36>
c0002543:	89 f0          	movl   %esi,%eax
c0002545:	c1 e8 0c       	shrl   $0xc,%eax
c0002548:	40             	incl   %eax
c0002549:	83 3d 04 50 00 	cmpl   $0x0,0xc0005004
c000254e:	c0 00 
c0002550:	75 44          	jne    c0002596 <_mm_malloc+0x9a>
c0002552:	eb 2e          	jmp    c0002582 <_mm_malloc+0x86>
c0002554:	8d 04 1e       	leal   (%esi,%ebx,1),%eax
c0002557:	8b 53 04       	movl   0x4(%ebx),%edx
c000255a:	29 f2          	subl   %esi,%edx
c000255c:	89 50 04       	movl   %edx,0x4(%eax)
c000255f:	c7 40 08 00 00 	movl   $0x0,0x8(%eax)
c0002564:	00 00 
c0002566:	8b 13          	movl   (%ebx),%edx
c0002568:	89 10          	movl   %edx,(%eax)
c000256a:	89 7b 04       	movl   %edi,0x4(%ebx)
c000256d:	c7 43 08 01 00 	movl   $0x1,0x8(%ebx)
c0002572:	00 00 
c0002574:	89 03          	movl   %eax,(%ebx)
c0002576:	e9 c8 00 00 00 	jmp    c0002643 <_mm_malloc+0x147>
c000257b:	bd 00 00 00 00 	movl   $0x0,%ebp
c0002580:	eb 65          	jmp    c00025e7 <_mm_malloc+0xeb>
c0002582:	c7 05 04 50 00 	movl   $0xd0000000,0xc0005004
c0002587:	c0 00 00 00 d0 
c000258c:	c7 05 08 50 00 	movl   $0xd0000000,0xc0005008
c0002591:	c0 00 00 00 d0 
c0002596:	8b 2d 04 50 00 	movl   0xc0005004,%ebp
c000259b:	c0 
c000259c:	8d 58 ff       	leal   0xffffffff(%eax),%ebx
c000259f:	85 c0          	testl  %eax,%eax
c00025a1:	7e 44          	jle    c00025e7 <_mm_malloc+0xeb>
c00025a3:	e8 8e 04 00 00 	call   c0002a36 <_physical_pageAlloc>
c00025a8:	85 c0          	testl  %eax,%eax
c00025aa:	74 cf          	je     c000257b <_mm_malloc+0x7f>
c00025ac:	83 ec 04       	subl   $0x4,%esp
c00025af:	6a 01          	pushl  $0x1
c00025b1:	50             	pushl  %eax
c00025b2:	ff 35 04 50 00 	pushl  0xc0005004
c00025b7:	c0 
c00025b8:	e8 fc 01 00 00 	call   c00027b9 <_paging_setPageTableEntry>
c00025bd:	83 c4 0c       	addl   $0xc,%esp
c00025c0:	68 00 10 00 00 	pushl  $0x1000
c00025c5:	6a 00          	pushl  $0x0
c00025c7:	ff 35 04 50 00 	pushl  0xc0005004
c00025cc:	c0 
c00025cd:	e8 3e ec ff ff 	call   c0001210 <_memset>
c00025d2:	81 05 04 50 00 	addl   $0x1000,0xc0005004
c00025d7:	c0 00 10 00 00 
c00025dc:	4b             	decl   %ebx
c00025dd:	8d 43 01       	leal   0x1(%ebx),%eax
c00025e0:	83 c4 10       	addl   $0x10,%esp
c00025e3:	85 c0          	testl  %eax,%eax
c00025e5:	7f bc          	jg     c00025a3 <_mm_malloc+0xa7>
c00025e7:	89 eb          	movl   %ebp,%ebx
c00025e9:	85 ed          	testl  %ebp,%ebp
c00025eb:	75 0c          	jne    c00025f9 <_mm_malloc+0xfd>
c00025ed:	e8 59 ec ff ff 	call   c000124b <_kernel_unlock>
c00025f2:	b8 00 00 00 00 	movl   $0x0,%eax
c00025f7:	eb 52          	jmp    c000264b <_mm_malloc+0x14f>
c00025f9:	8d 0c 2e       	leal   (%esi,%ebp,1),%ecx
c00025fc:	f7 c6 ff 0f 00 	testl  $0xfff,%esi
c0002601:	00 
c0002602:	74 1c          	je     c0002620 <_mm_malloc+0x124>
c0002604:	89 f0          	movl   %esi,%eax
c0002606:	c1 f8 1f       	sarl   $0x1f,%eax
c0002609:	c1 e8 14       	shrl   $0x14,%eax
c000260c:	8d 14 06       	leal   (%esi,%eax,1),%edx
c000260f:	81 e2 ff 0f 00 	andl   $0xfff,%edx
c0002614:	00 
c0002615:	29 c2          	subl   %eax,%edx
c0002617:	b8 f4 0f 00 00 	movl   $0xff4,%eax
c000261c:	29 d0          	subl   %edx,%eax
c000261e:	eb 07          	jmp    c0002627 <_mm_malloc+0x12b>
c0002620:	b8 f4 0f 00 00 	movl   $0xff4,%eax
c0002625:	29 f0          	subl   %esi,%eax
c0002627:	89 41 04       	movl   %eax,0x4(%ecx)
c000262a:	c7 41 08 00 00 	movl   $0x0,0x8(%ecx)
c000262f:	00 00 
c0002631:	c7 01 00 00 00 	movl   $0x0,(%ecx)
c0002636:	00 
c0002637:	89 7b 04       	movl   %edi,0x4(%ebx)
c000263a:	c7 43 08 01 00 	movl   $0x1,0x8(%ebx)
c000263f:	00 00 
c0002641:	89 0b          	movl   %ecx,(%ebx)
c0002643:	e8 03 ec ff ff 	call   c000124b <_kernel_unlock>
c0002648:	8d 43 0c       	leal   0xc(%ebx),%eax
c000264b:	83 c4 0c       	addl   $0xc,%esp
c000264e:	5b             	popl   %ebx
c000264f:	5e             	popl   %esi
c0002650:	5f             	popl   %edi
c0002651:	5d             	popl   %ebp
c0002652:	c3             	ret    
c0002653:	90             	nop    
c0002654:	90             	nop    
c0002655:	90             	nop    
c0002656:	90             	nop    
c0002657:	90             	nop    
c0002658:	90             	nop    
c0002659:	90             	nop    
c000265a:	90             	nop    
c000265b:	90             	nop    
c000265c:	90             	nop    
c000265d:	90             	nop    
c000265e:	90             	nop    
c000265f:	90             	nop    

c0002660 <_paging_getCurrentPageDir>:
c0002660:	0f 20 d8       	movl   %cr3,%eax
c0002663:	c3             	ret    

c0002664 <_paging_setCurrentPageDir>:
c0002664:	8b 44 24 04    	movl   0x4(%esp,1),%eax
c0002668:	0f 22 d8       	movl   %eax,%cr3
c000266b:	c3             	ret    

c000266c <_paging_getPageDirectoryEntry>:
c000266c:	8b 44 24 04    	movl   0x4(%esp,1),%eax
c0002670:	c1 e8 16       	shrl   $0x16,%eax
c0002673:	8b 15 80 6c 00 	movl   0xc0006c80,%edx
c0002678:	c0 
c0002679:	8d 04 82       	leal   (%edx,%eax,4),%eax
c000267c:	c3             	ret    

c000267d <_paging_clearDirectory>:
c000267d:	83 ec 10       	subl   $0x10,%esp
c0002680:	68 00 10 00 00 	pushl  $0x1000
c0002685:	6a 00          	pushl  $0x0
c0002687:	ff 35 80 6c 00 	pushl  0xc0006c80
c000268c:	c0 
c000268d:	e8 7e eb ff ff 	call   c0001210 <_memset>
c0002692:	b9 00 00 00 00 	movl   $0x0,%ecx
c0002697:	83 c4 10       	addl   $0x10,%esp
c000269a:	89 ca          	movl   %ecx,%edx
c000269c:	03 15 80 6c 00 	addl   0xc0006c80,%edx
c00026a1:	c0 
c00026a2:	8a 02          	movb   (%edx),%al
c00026a4:	83 e0 fa       	andl   $0xfffffffa,%eax
c00026a7:	83 c8 02       	orl    $0x2,%eax
c00026aa:	88 02          	movb   %al,(%edx)
c00026ac:	83 c1 04       	addl   $0x4,%ecx
c00026af:	81 f9 00 10 00 	cmpl   $0x1000,%ecx
c00026b4:	00 
c00026b5:	75 e3          	jne    c000269a <_paging_clearDirectory+0x1d>
c00026b7:	83 c4 0c       	addl   $0xc,%esp
c00026ba:	c3             	ret    

c00026bb <_paging_setPageDirectoryEntry>:
c00026bb:	56             	pushl  %esi
c00026bc:	53             	pushl  %ebx
c00026bd:	83 ec 08       	subl   $0x8,%esp
c00026c0:	8b 74 24 18    	movl   0x18(%esp,1),%esi
c00026c4:	8b 5c 24 14    	movl   0x14(%esp,1),%ebx
c00026c8:	c1 eb 16       	shrl   $0x16,%ebx
c00026cb:	a1 80 6c 00 c0 	movl   0xc0006c80,%eax
c00026d0:	8d 1c 98       	leal   (%eax,%ebx,4),%ebx
c00026d3:	68 00 10 00 00 	pushl  $0x1000
c00026d8:	6a 00          	pushl  $0x0
c00026da:	56             	pushl  %esi
c00026db:	e8 30 eb ff ff 	call   c0001210 <_memset>
c00026e0:	c6 03 03       	movb   $0x3,(%ebx)
c00026e3:	80 63 01 fe    	andb   $0xfe,0x1(%ebx)
c00026e7:	81 e6 00 f0 ff 	andl   $0xfffff000,%esi
c00026ec:	ff 
c00026ed:	8b 03          	movl   (%ebx),%eax
c00026ef:	25 ff 01 00 00 	andl   $0x1ff,%eax
c00026f4:	09 f0          	orl    %esi,%eax
c00026f6:	89 03          	movl   %eax,(%ebx)
c00026f8:	83 c4 14       	addl   $0x14,%esp
c00026fb:	5b             	popl   %ebx
c00026fc:	5e             	popl   %esi
c00026fd:	c3             	ret    

c00026fe <_paging_getPageTableEntry>:
c00026fe:	55             	pushl  %ebp
c00026ff:	57             	pushl  %edi
c0002700:	56             	pushl  %esi
c0002701:	53             	pushl  %ebx
c0002702:	83 ec 0c       	subl   $0xc,%esp
c0002705:	8b 74 24 20    	movl   0x20(%esp,1),%esi
c0002709:	89 f5          	movl   %esi,%ebp
c000270b:	89 f0          	movl   %esi,%eax
c000270d:	c1 e8 16       	shrl   $0x16,%eax
c0002710:	8d 1c 85 00 00 	leal   0x0(,%eax,4),%ebx
c0002715:	00 00 
c0002717:	8b 0d 80 6c 00 	movl   0xc0006c80,%ecx
c000271c:	c0 
c000271d:	8a 44 19 01    	movb   0x1(%ecx,%ebx,1),%al
c0002721:	c0 e8 04       	shrb   $0x4,%al
c0002724:	25 ff 00 00 00 	andl   $0xff,%eax
c0002729:	ba 00 00 00 00 	movl   $0x0,%edx
c000272e:	8a 54 19 02    	movb   0x2(%ecx,%ebx,1),%dl
c0002732:	c1 e2 04       	shll   $0x4,%edx
c0002735:	09 c2          	orl    %eax,%edx
c0002737:	b8 00 00 00 00 	movl   $0x0,%eax
c000273c:	8a 44 19 03    	movb   0x3(%ecx,%ebx,1),%al
c0002740:	c1 e0 0c       	shll   $0xc,%eax
c0002743:	09 d0          	orl    %edx,%eax
c0002745:	89 c7          	movl   %eax,%edi
c0002747:	c1 e7 0c       	shll   $0xc,%edi
c000274a:	75 58          	jne    c00027a4 <_paging_getPageTableEntry+0xa6>
c000274c:	e8 e5 02 00 00 	call   c0002a36 <_physical_pageAlloc>
c0002751:	89 c7          	movl   %eax,%edi
c0002753:	03 1d 80 6c 00 	addl   0xc0006c80,%ebx
c0002758:	c0 
c0002759:	83 ec 04       	subl   $0x4,%esp
c000275c:	68 00 10 00 00 	pushl  $0x1000
c0002761:	6a 00          	pushl  $0x0
c0002763:	50             	pushl  %eax
c0002764:	e8 a7 ea ff ff 	call   c0001210 <_memset>
c0002769:	c6 03 03       	movb   $0x3,(%ebx)
c000276c:	80 63 01 fe    	andb   $0xfe,0x1(%ebx)
c0002770:	89 fa          	movl   %edi,%edx
c0002772:	81 e2 00 f0 ff 	andl   $0xfffff000,%edx
c0002777:	ff 
c0002778:	8b 03          	movl   (%ebx),%eax
c000277a:	25 ff 01 00 00 	andl   $0x1ff,%eax
c000277f:	09 d0          	orl    %edx,%eax
c0002781:	89 03          	movl   %eax,(%ebx)
c0002783:	bb 00 04 00 00 	movl   $0x400,%ebx
c0002788:	83 c4 10       	addl   $0x10,%esp
c000278b:	81 c6 00 10 00 	addl   $0x1000,%esi
c0002790:	00 
c0002791:	83 ec 04       	subl   $0x4,%esp
c0002794:	6a 00          	pushl  $0x0
c0002796:	6a 00          	pushl  $0x0
c0002798:	56             	pushl  %esi
c0002799:	e8 1b 00 00 00 	call   c00027b9 <_paging_setPageTableEntry>
c000279e:	83 c4 10       	addl   $0x10,%esp
c00027a1:	4b             	decl   %ebx
c00027a2:	75 ed          	jne    c0002791 <_paging_getPageTableEntry+0x93>
c00027a4:	89 e8          	movl   %ebp,%eax
c00027a6:	c1 e8 0a       	shrl   $0xa,%eax
c00027a9:	25 fc 0f 00 00 	andl   $0xffc,%eax
c00027ae:	8d 04 07       	leal   (%edi,%eax,1),%eax
c00027b1:	83 c4 0c       	addl   $0xc,%esp
c00027b4:	5b             	popl   %ebx
c00027b5:	5e             	popl   %esi
c00027b6:	5f             	popl   %edi
c00027b7:	5d             	popl   %ebp
c00027b8:	c3             	ret    

c00027b9 <_paging_setPageTableEntry>:
c00027b9:	55             	pushl  %ebp
c00027ba:	57             	pushl  %edi
c00027bb:	56             	pushl  %esi
c00027bc:	53             	pushl  %ebx
c00027bd:	83 ec 0c       	subl   $0xc,%esp
c00027c0:	8b 44 24 20    	movl   0x20(%esp,1),%eax
c00027c4:	05 ff 0f 00 00 	addl   $0xfff,%eax
c00027c9:	89 c6          	movl   %eax,%esi
c00027cb:	81 e6 00 f0 ff 	andl   $0xfffff000,%esi
c00027d0:	ff 
c00027d1:	89 f5          	movl   %esi,%ebp
c00027d3:	89 f0          	movl   %esi,%eax
c00027d5:	c1 e8 16       	shrl   $0x16,%eax
c00027d8:	8d 1c 85 00 00 	leal   0x0(,%eax,4),%ebx
c00027dd:	00 00 
c00027df:	8b 0d 80 6c 00 	movl   0xc0006c80,%ecx
c00027e4:	c0 
c00027e5:	8a 44 19 01    	movb   0x1(%ecx,%ebx,1),%al
c00027e9:	c0 e8 04       	shrb   $0x4,%al
c00027ec:	25 ff 00 00 00 	andl   $0xff,%eax
c00027f1:	ba 00 00 00 00 	movl   $0x0,%edx
c00027f6:	8a 54 19 02    	movb   0x2(%ecx,%ebx,1),%dl
c00027fa:	c1 e2 04       	shll   $0x4,%edx
c00027fd:	09 c2          	orl    %eax,%edx
c00027ff:	b8 00 00 00 00 	movl   $0x0,%eax
c0002804:	8a 44 19 03    	movb   0x3(%ecx,%ebx,1),%al
c0002808:	c1 e0 0c       	shll   $0xc,%eax
c000280b:	09 d0          	orl    %edx,%eax
c000280d:	89 c7          	movl   %eax,%edi
c000280f:	c1 e7 0c       	shll   $0xc,%edi
c0002812:	75 58          	jne    c000286c <_paging_setPageTableEntry+0xb3>
c0002814:	e8 1d 02 00 00 	call   c0002a36 <_physical_pageAlloc>
c0002819:	89 c7          	movl   %eax,%edi
c000281b:	03 1d 80 6c 00 	addl   0xc0006c80,%ebx
c0002820:	c0 
c0002821:	83 ec 04       	subl   $0x4,%esp
c0002824:	68 00 10 00 00 	pushl  $0x1000
c0002829:	6a 00          	pushl  $0x0
c000282b:	50             	pushl  %eax
c000282c:	e8 df e9 ff ff 	call   c0001210 <_memset>
c0002831:	c6 03 03       	movb   $0x3,(%ebx)
c0002834:	80 63 01 fe    	andb   $0xfe,0x1(%ebx)
c0002838:	89 fa          	movl   %edi,%edx
c000283a:	81 e2 00 f0 ff 	andl   $0xfffff000,%edx
c000283f:	ff 
c0002840:	8b 03          	movl   (%ebx),%eax
c0002842:	25 ff 01 00 00 	andl   $0x1ff,%eax
c0002847:	09 d0          	orl    %edx,%eax
c0002849:	89 03          	movl   %eax,(%ebx)
c000284b:	bb 00 04 00 00 	movl   $0x400,%ebx
c0002850:	83 c4 10       	addl   $0x10,%esp
c0002853:	81 c6 00 10 00 	addl   $0x1000,%esi
c0002858:	00 
c0002859:	83 ec 04       	subl   $0x4,%esp
c000285c:	6a 00          	pushl  $0x0
c000285e:	6a 00          	pushl  $0x0
c0002860:	56             	pushl  %esi
c0002861:	e8 53 ff ff ff 	call   c00027b9 <_paging_setPageTableEntry>
c0002866:	83 c4 10       	addl   $0x10,%esp
c0002869:	4b             	decl   %ebx
c000286a:	75 ed          	jne    c0002859 <_paging_setPageTableEntry+0xa0>
c000286c:	89 ea          	movl   %ebp,%edx
c000286e:	c1 ea 0a       	shrl   $0xa,%edx
c0002871:	81 e2 fc 0f 00 	andl   $0xffc,%edx
c0002876:	00 
c0002877:	8d 14 17       	leal   (%edi,%edx,1),%edx
c000287a:	8b 4c 24 28    	movl   0x28(%esp,1),%ecx
c000287e:	83 e1 01       	andl   $0x1,%ecx
c0002881:	8b 02          	movl   (%edx),%eax
c0002883:	83 e0 fe       	andl   $0xfffffffe,%eax
c0002886:	09 c8          	orl    %ecx,%eax
c0002888:	89 02          	movl   %eax,(%edx)
c000288a:	8a 02          	movb   (%edx),%al
c000288c:	83 c8 02       	orl    $0x2,%eax
c000288f:	83 e0 03       	andl   $0x3,%eax
c0002892:	88 02          	movb   %al,(%edx)
c0002894:	80 62 01 fe    	andb   $0xfe,0x1(%edx)
c0002898:	8b 4c 24 24    	movl   0x24(%esp,1),%ecx
c000289c:	81 c1 ff 0f 00 	addl   $0xfff,%ecx
c00028a1:	00 
c00028a2:	81 e1 00 f0 ff 	andl   $0xfffff000,%ecx
c00028a7:	ff 
c00028a8:	8b 02          	movl   (%edx),%eax
c00028aa:	25 ff 01 00 00 	andl   $0x1ff,%eax
c00028af:	09 c8          	orl    %ecx,%eax
c00028b1:	89 02          	movl   %eax,(%edx)
c00028b3:	83 c4 0c       	addl   $0xc,%esp
c00028b6:	5b             	popl   %ebx
c00028b7:	5e             	popl   %esi
c00028b8:	5f             	popl   %edi
c00028b9:	5d             	popl   %ebp
c00028ba:	c3             	ret    
c00028bb:	90             	nop    
c00028bc:	50             	pushl  %eax
c00028bd:	61             	popa   
c00028be:	67 65 20 46 61 	addr16 andb %al,%gs:0x61(bp)
c00028c3:	75 6c          	jne    c0002931 <_paging_init+0x2e>
c00028c5:	74 20          	je     c00028e7 <_paging_pageFaultHandler+0x4>
c00028c7:	61             	popa   
c00028c8:	74 20          	je     c00028ea <_paging_pageFaultHandler+0x7>
c00028ca:	43             	incl   %ebx
c00028cb:	53             	pushl  %ebx
c00028cc:	3a 45 49       	cmpb   0x49(%ebp),%al
c00028cf:	50             	pushl  %eax
c00028d0:	20 25 64 3a 25 	andb   %ah,0x78253a64
c00028d5:	78 
c00028d6:	20 41 64       	andb   %al,0x64(%ecx)
c00028d9:	64 72 65       	jb     c0002941 <_paging_init+0x3e>
c00028dc:	73 73          	jae    c0002951 <_paging_init+0x4e>
c00028de:	20 25 78 0a 00 	andb   %ah,0x83000a78
c00028e3:	83 

c00028e3 <_paging_pageFaultHandler>:
c00028e3:	83 ec 0c       	subl   $0xc,%esp
c00028e6:	8b 54 24 10    	movl   0x10(%esp,1),%edx
c00028ea:	0f 20 d0       	movl   %cr2,%eax
c00028ed:	50             	pushl  %eax
c00028ee:	ff 72 38       	pushl  0x38(%edx)
c00028f1:	ff 72 3c       	pushl  0x3c(%edx)
c00028f4:	68 bc 28 00 c0 	pushl  $0xc00028bc
c00028f9:	e8 b2 e9 ff ff 	call   c00012b0 <_kprintf>
c00028fe:	83 c4 10       	addl   $0x10,%esp
c0002901:	eb fe          	jmp    c0002901 <_paging_pageFaultHandler+0x1e>

c0002903 <_paging_init>:
c0002903:	56             	pushl  %esi
c0002904:	53             	pushl  %ebx
c0002905:	83 ec 04       	subl   $0x4,%esp
c0002908:	e8 29 01 00 00 	call   c0002a36 <_physical_pageAlloc>
c000290d:	a3 80 6c 00 c0 	movl   %eax,0xc0006c80
c0002912:	83 ec 04       	subl   $0x4,%esp
c0002915:	68 00 10 00 00 	pushl  $0x1000
c000291a:	6a 00          	pushl  $0x0
c000291c:	50             	pushl  %eax
c000291d:	e8 ee e8 ff ff 	call   c0001210 <_memset>
c0002922:	b9 00 00 00 00 	movl   $0x0,%ecx
c0002927:	83 c4 10       	addl   $0x10,%esp
c000292a:	89 ca          	movl   %ecx,%edx
c000292c:	03 15 80 6c 00 	addl   0xc0006c80,%edx
c0002931:	c0 
c0002932:	8a 02          	movb   (%edx),%al
c0002934:	83 e0 fa       	andl   $0xfffffffa,%eax
c0002937:	83 c8 02       	orl    $0x2,%eax
c000293a:	88 02          	movb   %al,(%edx)
c000293c:	83 c1 04       	addl   $0x4,%ecx
c000293f:	81 f9 00 10 00 	cmpl   $0x1000,%ecx
c0002944:	00 
c0002945:	75 e3          	jne    c000292a <_paging_init+0x27>
c0002947:	bb 00 00 00 00 	movl   $0x0,%ebx
c000294c:	83 ec 04       	subl   $0x4,%esp
c000294f:	6a 01          	pushl  $0x1
c0002951:	53             	pushl  %ebx
c0002952:	53             	pushl  %ebx
c0002953:	e8 61 fe ff ff 	call   c00027b9 <_paging_setPageTableEntry>
c0002958:	81 c3 00 10 00 	addl   $0x1000,%ebx
c000295d:	00 
c000295e:	83 c4 10       	addl   $0x10,%esp
c0002961:	81 fb 00 00 40 	cmpl   $0x400000,%ebx
c0002966:	00 
c0002967:	75 e3          	jne    c000294c <_paging_init+0x49>
c0002969:	bb 00 10 10 00 	movl   $0x101000,%ebx
c000296e:	be 00 10 00 c0 	movl   $0xc0001000,%esi
c0002973:	eb 1b          	jmp    c0002990 <_paging_init+0x8d>
c0002975:	83 ec 04       	subl   $0x4,%esp
c0002978:	6a 01          	pushl  $0x1
c000297a:	53             	pushl  %ebx
c000297b:	56             	pushl  %esi
c000297c:	e8 38 fe ff ff 	call   c00027b9 <_paging_setPageTableEntry>
c0002981:	81 c6 00 10 00 	addl   $0x1000,%esi
c0002986:	00 
c0002987:	81 c3 00 10 00 	addl   $0x1000,%ebx
c000298c:	00 
c000298d:	83 c4 10       	addl   $0x10,%esp
c0002990:	e8 9b 00 00 00 	call   c0002a30 <_physical_getBitmapSize>
c0002995:	05 00 80 10 00 	addl   $0x108000,%eax
c000299a:	39 c3          	cmpl   %eax,%ebx
c000299c:	72 d7          	jb     c0002975 <_paging_init+0x72>
c000299e:	a1 80 6c 00 c0 	movl   0xc0006c80,%eax
c00029a3:	0f 22 d8       	movl   %eax,%cr3
c00029a6:	0f 20 c0       	movl   %cr0,%eax
c00029a9:	0d 00 00 00 80 	orl    $0x80000000,%eax
c00029ae:	0f 22 c0       	movl   %eax,%cr0
c00029b1:	83 c4 04       	addl   $0x4,%esp
c00029b4:	5b             	popl   %ebx
c00029b5:	5e             	popl   %esi
c00029b6:	c3             	ret    
c00029b7:	90             	nop    
c00029b8:	90             	nop    
c00029b9:	90             	nop    
c00029ba:	90             	nop    
c00029bb:	90             	nop    
c00029bc:	90             	nop    
c00029bd:	90             	nop    
c00029be:	90             	nop    
c00029bf:	90             	nop    

c00029c0 <_physical_isPageFree>:
c00029c0:	8b 4c 24 04    	movl   0x4(%esp,1),%ecx
c00029c4:	89 ca          	movl   %ecx,%edx
c00029c6:	c1 ea 0f       	shrl   $0xf,%edx
c00029c9:	a1 a0 6c 00 c0 	movl   0xc0006ca0,%eax
c00029ce:	0f be 04 02    	movsbl (%edx,%eax,1),%eax
c00029d2:	c1 e9 0c       	shrl   $0xc,%ecx
c00029d5:	f7 d1          	notl   %ecx
c00029d7:	83 e1 07       	andl   $0x7,%ecx
c00029da:	d3 f8          	sarl   %cl,%eax
c00029dc:	f7 d0          	notl   %eax
c00029de:	83 e0 01       	andl   $0x1,%eax
c00029e1:	c3             	ret    

c00029e2 <_physical_pageAllocAddress>:
c00029e2:	56             	pushl  %esi
c00029e3:	53             	pushl  %ebx
c00029e4:	8b 44 24 0c    	movl   0xc(%esp,1),%eax
c00029e8:	05 ff 0f 00 00 	addl   $0xfff,%eax
c00029ed:	89 c2          	movl   %eax,%edx
c00029ef:	81 e2 00 f0 ff 	andl   $0xfffff000,%edx
c00029f4:	ff 
c00029f5:	89 d0          	movl   %edx,%eax
c00029f7:	c1 e8 0f       	shrl   $0xf,%eax
c00029fa:	89 c6          	movl   %eax,%esi
c00029fc:	03 35 a0 6c 00 	addl   0xc0006ca0,%esi
c0002a01:	c0 
c0002a02:	8a 1e          	movb   (%esi),%bl
c0002a04:	89 d0          	movl   %edx,%eax
c0002a06:	c1 e8 0c       	shrl   $0xc,%eax
c0002a09:	f7 d0          	notl   %eax
c0002a0b:	89 c1          	movl   %eax,%ecx
c0002a0d:	83 e1 07       	andl   $0x7,%ecx
c0002a10:	0f be c3       	movsbl %bl,%eax
c0002a13:	d3 f8          	sarl   %cl,%eax
c0002a15:	a8 01          	testb  $0x1,%al
c0002a17:	74 07          	je     c0002a20 <_physical_pageAllocAddress+0x3e>
c0002a19:	ba 00 00 00 00 	movl   $0x0,%edx
c0002a1e:	eb 0b          	jmp    c0002a2b <_physical_pageAllocAddress+0x49>
c0002a20:	b8 01 00 00 00 	movl   $0x1,%eax
c0002a25:	d3 e0          	shll   %cl,%eax
c0002a27:	09 d8          	orl    %ebx,%eax
c0002a29:	88 06          	movb   %al,(%esi)
c0002a2b:	89 d0          	movl   %edx,%eax
c0002a2d:	5b             	popl   %ebx
c0002a2e:	5e             	popl   %esi
c0002a2f:	c3             	ret    

c0002a30 <_physical_getBitmapSize>:
c0002a30:	a1 90 6c 00 c0 	movl   0xc0006c90,%eax
c0002a35:	c3             	ret    

c0002a36 <_physical_pageAlloc>:
c0002a36:	56             	pushl  %esi
c0002a37:	53             	pushl  %ebx
c0002a38:	83 ec 04       	subl   $0x4,%esp
c0002a3b:	e8 03 e8 ff ff 	call   c0001243 <_kernel_lock>
c0002a40:	8b 35 a0 6c 00 	movl   0xc0006ca0,%esi
c0002a45:	c0 
c0002a46:	ba 00 10 00 00 	movl   $0x1000,%edx
c0002a4b:	f6 06 40       	testb  $0x40,(%esi)
c0002a4e:	74 2f          	je     c0002a7f <_physical_pageAlloc+0x49>
c0002a50:	bb 00 10 00 00 	movl   $0x1000,%ebx
c0002a55:	81 c3 00 10 00 	addl   $0x1000,%ebx
c0002a5a:	00 
c0002a5b:	89 da          	movl   %ebx,%edx
c0002a5d:	89 d8          	movl   %ebx,%eax
c0002a5f:	c1 e8 0f       	shrl   $0xf,%eax
c0002a62:	0f be 04 30    	movsbl (%eax,%esi,1),%eax
c0002a66:	89 d9          	movl   %ebx,%ecx
c0002a68:	c1 e9 0c       	shrl   $0xc,%ecx
c0002a6b:	f7 d1          	notl   %ecx
c0002a6d:	83 e1 07       	andl   $0x7,%ecx
c0002a70:	d3 f8          	sarl   %cl,%eax
c0002a72:	a8 01          	testb  $0x1,%al
c0002a74:	74 09          	je     c0002a7f <_physical_pageAlloc+0x49>
c0002a76:	eb dd          	jmp    c0002a55 <_physical_pageAlloc+0x1f>
c0002a78:	bb 00 00 00 00 	movl   $0x0,%ebx
c0002a7d:	eb 38          	jmp    c0002ab7 <_physical_pageAlloc+0x81>
c0002a7f:	8d 82 ff 0f 00 	leal   0xfff(%edx),%eax
c0002a84:	00 
c0002a85:	89 c3          	movl   %eax,%ebx
c0002a87:	81 e3 00 f0 ff 	andl   $0xfffff000,%ebx
c0002a8c:	ff 
c0002a8d:	89 d8          	movl   %ebx,%eax
c0002a8f:	c1 e8 0f       	shrl   $0xf,%eax
c0002a92:	8d 34 30       	leal   (%eax,%esi,1),%esi
c0002a95:	8a 16          	movb   (%esi),%dl
c0002a97:	89 d8          	movl   %ebx,%eax
c0002a99:	c1 e8 0c       	shrl   $0xc,%eax
c0002a9c:	f7 d0          	notl   %eax
c0002a9e:	89 c1          	movl   %eax,%ecx
c0002aa0:	83 e1 07       	andl   $0x7,%ecx
c0002aa3:	0f be c2       	movsbl %dl,%eax
c0002aa6:	d3 f8          	sarl   %cl,%eax
c0002aa8:	a8 01          	testb  $0x1,%al
c0002aaa:	75 cc          	jne    c0002a78 <_physical_pageAlloc+0x42>
c0002aac:	b8 01 00 00 00 	movl   $0x1,%eax
c0002ab1:	d3 e0          	shll   %cl,%eax
c0002ab3:	09 d0          	orl    %edx,%eax
c0002ab5:	88 06          	movb   %al,(%esi)
c0002ab7:	e8 8f e7 ff ff 	call   c000124b <_kernel_unlock>
c0002abc:	89 d8          	movl   %ebx,%eax
c0002abe:	83 c4 04       	addl   $0x4,%esp
c0002ac1:	5b             	popl   %ebx
c0002ac2:	5e             	popl   %esi
c0002ac3:	c3             	ret    

c0002ac4 <_physical_pageFree>:
c0002ac4:	56             	pushl  %esi
c0002ac5:	53             	pushl  %ebx
c0002ac6:	83 ec 04       	subl   $0x4,%esp
c0002ac9:	8b 5c 24 10    	movl   0x10(%esp,1),%ebx
c0002acd:	e8 71 e7 ff ff 	call   c0001243 <_kernel_lock>
c0002ad2:	89 d8          	movl   %ebx,%eax
c0002ad4:	c1 e8 0f       	shrl   $0xf,%eax
c0002ad7:	89 c6          	movl   %eax,%esi
c0002ad9:	03 35 a0 6c 00 	addl   0xc0006ca0,%esi
c0002ade:	c0 
c0002adf:	8a 16          	movb   (%esi),%dl
c0002ae1:	c1 eb 0c       	shrl   $0xc,%ebx
c0002ae4:	f7 d3          	notl   %ebx
c0002ae6:	89 d9          	movl   %ebx,%ecx
c0002ae8:	83 e1 07       	andl   $0x7,%ecx
c0002aeb:	0f be c2       	movsbl %dl,%eax
c0002aee:	d3 f8          	sarl   %cl,%eax
c0002af0:	a8 01          	testb  $0x1,%al
c0002af2:	74 0d          	je     c0002b01 <_physical_pageFree+0x3d>
c0002af4:	b8 01 00 00 00 	movl   $0x1,%eax
c0002af9:	d3 e0          	shll   %cl,%eax
c0002afb:	f7 d0          	notl   %eax
c0002afd:	21 d0          	andl   %edx,%eax
c0002aff:	88 06          	movb   %al,(%esi)
c0002b01:	e8 45 e7 ff ff 	call   c000124b <_kernel_unlock>
c0002b06:	83 c4 04       	addl   $0x4,%esp
c0002b09:	5b             	popl   %ebx
c0002b0a:	5e             	popl   %esi
c0002b0b:	c3             	ret    

c0002b0c <_physical_init>:
c0002b0c:	57             	pushl  %edi
c0002b0d:	56             	pushl  %esi
c0002b0e:	53             	pushl  %ebx
c0002b0f:	8b 44 24 10    	movl   0x10(%esp,1),%eax
c0002b13:	c1 e8 0a       	shrl   $0xa,%eax
c0002b16:	c1 e0 08       	shll   $0x8,%eax
c0002b19:	05 00 01 00 00 	addl   $0x100,%eax
c0002b1e:	c1 e8 03       	shrl   $0x3,%eax
c0002b21:	a3 90 6c 00 c0 	movl   %eax,0xc0006c90
c0002b26:	c7 05 a0 6c 00 	movl   $0xc0008000,0xc0006ca0
c0002b2b:	c0 00 80 00 c0 
c0002b30:	83 ec 04       	subl   $0x4,%esp
c0002b33:	50             	pushl  %eax
c0002b34:	6a 00          	pushl  $0x0
c0002b36:	68 00 80 00 c0 	pushl  $0xc0008000
c0002b3b:	e8 d0 e6 ff ff 	call   c0001210 <_memset>
c0002b40:	be ff 0f 0a 00 	movl   $0xa0fff,%esi
c0002b45:	83 c4 10       	addl   $0x10,%esp
c0002b48:	89 f0          	movl   %esi,%eax
c0002b4a:	25 00 f0 ff ff 	andl   $0xfffff000,%eax
c0002b4f:	89 c2          	movl   %eax,%edx
c0002b51:	c1 ea 0f       	shrl   $0xf,%edx
c0002b54:	89 d3          	movl   %edx,%ebx
c0002b56:	03 1d a0 6c 00 	addl   0xc0006ca0,%ebx
c0002b5b:	c0 
c0002b5c:	8a 13          	movb   (%ebx),%dl
c0002b5e:	c1 e8 0c       	shrl   $0xc,%eax
c0002b61:	f7 d0          	notl   %eax
c0002b63:	89 c1          	movl   %eax,%ecx
c0002b65:	83 e1 07       	andl   $0x7,%ecx
c0002b68:	0f be c2       	movsbl %dl,%eax
c0002b6b:	d3 f8          	sarl   %cl,%eax
c0002b6d:	a8 01          	testb  $0x1,%al
c0002b6f:	74 62          	je     c0002bd3 <_physical_init+0xc7>
c0002b71:	81 c6 00 10 00 	addl   $0x1000,%esi
c0002b76:	00 
c0002b77:	81 fe ff 0f 10 	cmpl   $0x100fff,%esi
c0002b7c:	00 
c0002b7d:	75 c9          	jne    c0002b48 <_physical_init+0x3c>
c0002b7f:	be 00 10 10 00 	movl   $0x101000,%esi
c0002b84:	bf 00 80 10 00 	movl   $0x108000,%edi
c0002b89:	a1 90 6c 00 c0 	movl   0xc0006c90,%eax
c0002b8e:	01 f8          	addl   %edi,%eax
c0002b90:	39 c6          	cmpl   %eax,%esi
c0002b92:	73 59          	jae    c0002bed <_physical_init+0xe1>
c0002b94:	8d 86 ff 0f 00 	leal   0xfff(%esi),%eax
c0002b99:	00 
c0002b9a:	25 00 f0 ff ff 	andl   $0xfffff000,%eax
c0002b9f:	89 c2          	movl   %eax,%edx
c0002ba1:	c1 ea 0f       	shrl   $0xf,%edx
c0002ba4:	03 15 a0 6c 00 	addl   0xc0006ca0,%edx
c0002ba9:	c0 
c0002baa:	8a 1a          	movb   (%edx),%bl
c0002bac:	c1 e8 0c       	shrl   $0xc,%eax
c0002baf:	f7 d0          	notl   %eax
c0002bb1:	89 c1          	movl   %eax,%ecx
c0002bb3:	83 e1 07       	andl   $0x7,%ecx
c0002bb6:	0f be c3       	movsbl %bl,%eax
c0002bb9:	d3 f8          	sarl   %cl,%eax
c0002bbb:	a8 01          	testb  $0x1,%al
c0002bbd:	74 21          	je     c0002be0 <_physical_init+0xd4>
c0002bbf:	81 c6 00 10 00 	addl   $0x1000,%esi
c0002bc4:	00 
c0002bc5:	89 f8          	movl   %edi,%eax
c0002bc7:	03 05 90 6c 00 	addl   0xc0006c90,%eax
c0002bcc:	c0 
c0002bcd:	39 c6          	cmpl   %eax,%esi
c0002bcf:	73 1c          	jae    c0002bed <_physical_init+0xe1>
c0002bd1:	eb c1          	jmp    c0002b94 <_physical_init+0x88>
c0002bd3:	b8 01 00 00 00 	movl   $0x1,%eax
c0002bd8:	d3 e0          	shll   %cl,%eax
c0002bda:	09 d0          	orl    %edx,%eax
c0002bdc:	88 03          	movb   %al,(%ebx)
c0002bde:	eb 91          	jmp    c0002b71 <_physical_init+0x65>
c0002be0:	b8 01 00 00 00 	movl   $0x1,%eax
c0002be5:	d3 e0          	shll   %cl,%eax
c0002be7:	09 d8          	orl    %ebx,%eax
c0002be9:	88 02          	movb   %al,(%edx)
c0002beb:	eb d2          	jmp    c0002bbf <_physical_init+0xb3>
c0002bed:	5b             	popl   %ebx
c0002bee:	5e             	popl   %esi
c0002bef:	5f             	popl   %edi
c0002bf0:	c3             	ret    
c0002bf1:	90             	nop    
c0002bf2:	90             	nop    
c0002bf3:	90             	nop    
c0002bf4:	90             	nop    
c0002bf5:	90             	nop    
c0002bf6:	90             	nop    
c0002bf7:	90             	nop    
c0002bf8:	90             	nop    
c0002bf9:	90             	nop    
c0002bfa:	90             	nop    
c0002bfb:	90             	nop    
c0002bfc:	90             	nop    
c0002bfd:	90             	nop    
c0002bfe:	90             	nop    
c0002bff:	90             	nop    

c0002c00 <_ThreadTest1>:
c0002c00:	c6 05 00 80 0b 	movb   $0x31,0xb8000
c0002c05:	00 31 
c0002c07:	80 3d 00 80 0b 	cmpb   $0x31,0xb8000
c0002c0c:	00 31 
c0002c0e:	0f 94 c0       	sete   %al
c0002c11:	83 c0 31       	addl   $0x31,%eax
c0002c14:	a2 00 80 0b 00 	movb   %al,0xb8000
c0002c19:	eb ec          	jmp    c0002c07 <_ThreadTest1+0x7>

c0002c1b <_ThreadTest2>:
c0002c1b:	c6 05 02 80 0b 	movb   $0x61,0xb8002
c0002c20:	00 61 
c0002c22:	80 3d 02 80 0b 	cmpb   $0x61,0xb8002
c0002c27:	00 61 
c0002c29:	0f 94 c0       	sete   %al
c0002c2c:	83 c0 61       	addl   $0x61,%eax
c0002c2f:	a2 02 80 0b 00 	movb   %al,0xb8002
c0002c34:	eb ec          	jmp    c0002c22 <_ThreadTest2+0x7>

c0002c36 <_scheduler_addTask>:
c0002c36:	8b 54 24 04    	movl   0x4(%esp,1),%edx
c0002c3a:	8b 02          	movl   (%edx),%eax
c0002c3c:	89 14 85 b0 6c 	movl   %edx,0xc0006cb0(,%eax,4)
c0002c41:	00 c0 
c0002c43:	c3             	ret    

c0002c44 <_scheduler_removeTask>:
c0002c44:	8b 44 24 04    	movl   0x4(%esp,1),%eax
c0002c48:	8b 00          	movl   (%eax),%eax
c0002c4a:	c7 04 85 b0 6c 	movl   $0x0,0xc0006cb0(,%eax,4)
c0002c4f:	00 c0 00 00 00 
c0002c54:	00 
c0002c55:	c3             	ret    
c0002c56:	89 f6          	movl   %esi,%esi
c0002c58:	54             	pushl  %esp
c0002c59:	69 6d 65 72 3a 	imull  $0x5b203a72,0x65(%ebp),%ebp
c0002c5e:	20 5b 
c0002c60:	25 64 5d 20 74 	andl   $0x74205d64,%eax
c0002c65:	69 63 6b 73 20 	imull  $0x203d2073,0x6b(%ebx),%esp
c0002c6a:	3d 20 
c0002c6c:	25 64 20 20 63 	andl   $0x63202064,%eax
c0002c71:	75 72          	jne    c0002ce5 <_scheduler_switch+0x63>
c0002c73:	72 65          	jb     c0002cda <_scheduler_switch+0x58>
c0002c75:	6e             	outsb  %ds:(%esi),(%dx)
c0002c76:	74 5f          	je     c0002cd7 <_scheduler_switch+0x55>
c0002c78:	65 73 70       	jae    c0002ceb <_scheduler_switch+0x69>
c0002c7b:	20 3d 20 25 78 	andb   %bh,0xa782520
c0002c80:	0a 
	...

c0002c82 <_scheduler_switch>:
c0002c82:	83 ec 0c       	subl   $0xc,%esp
c0002c85:	a1 10 50 00 c0 	movl   0xc0005010,%eax
c0002c8a:	40             	incl   %eax
c0002c8b:	a3 10 50 00 c0 	movl   %eax,0xc0005010
c0002c90:	83 f8 08       	cmpl   $0x8,%eax
c0002c93:	76 02          	jbe    c0002c97 <_scheduler_switch+0x15>
c0002c95:	eb fe          	jmp    c0002c95 <_scheduler_switch+0x13>
c0002c97:	83 3d 14 50 00 	cmpl   $0x0,0xc0005014
c0002c9c:	c0 00 
c0002c9e:	75 1a          	jne    c0002cba <_scheduler_switch+0x38>
c0002ca0:	a1 b0 6c 00 c0 	movl   0xc0006cb0,%eax
c0002ca5:	a3 14 50 00 c0 	movl   %eax,0xc0005014
c0002caa:	8b 50 0c       	movl   0xc(%eax),%edx
c0002cad:	89 15 0c 50 00 	movl   %edx,0xc000500c
c0002cb2:	c0 
c0002cb3:	c7 40 08 01 00 	movl   $0x1,0x8(%eax)
c0002cb8:	00 00 
c0002cba:	ff 35 0c 50 00 	pushl  0xc000500c
c0002cbf:	c0 
c0002cc0:	ff 35 10 50 00 	pushl  0xc0005010
c0002cc5:	c0 
c0002cc6:	a1 14 50 00 c0 	movl   0xc0005014,%eax
c0002ccb:	ff 30          	pushl  (%eax)
c0002ccd:	68 58 2c 00 c0 	pushl  $0xc0002c58
c0002cd2:	e8 d9 e5 ff ff 	call   c00012b0 <_kprintf>
c0002cd7:	8b 15 0c 50 00 	movl   0xc000500c,%edx
c0002cdc:	c0 
c0002cdd:	a1 14 50 00 c0 	movl   0xc0005014,%eax
c0002ce2:	89 50 0c       	movl   %edx,0xc(%eax)
c0002ce5:	8b 15 14 50 00 	movl   0xc0005014,%edx
c0002cea:	c0 
c0002ceb:	8b 42 04       	movl   0x4(%edx),%eax
c0002cee:	83 c4 10       	addl   $0x10,%esp
c0002cf1:	85 c0          	testl  %eax,%eax
c0002cf3:	7f 38          	jg     c0002d2d <_scheduler_switch+0xab>
c0002cf5:	8b 02          	movl   (%edx),%eax
c0002cf7:	8b 04 85 b4 6c 	movl   0xc0006cb4(,%eax,4),%eax
c0002cfc:	00 c0 
c0002cfe:	85 c0          	testl  %eax,%eax
c0002d00:	74 07          	je     c0002d09 <_scheduler_switch+0x87>
c0002d02:	a3 14 50 00 c0 	movl   %eax,0xc0005014
c0002d07:	eb 0a          	jmp    c0002d13 <_scheduler_switch+0x91>
c0002d09:	a1 b0 6c 00 c0 	movl   0xc0006cb0,%eax
c0002d0e:	a3 14 50 00 c0 	movl   %eax,0xc0005014
c0002d13:	a1 14 50 00 c0 	movl   0xc0005014,%eax
c0002d18:	c7 40 04 01 00 	movl   $0x1,0x4(%eax)
c0002d1d:	00 00 
c0002d1f:	a1 14 50 00 c0 	movl   0xc0005014,%eax
c0002d24:	c7 40 08 01 00 	movl   $0x1,0x8(%eax)
c0002d29:	00 00 
c0002d2b:	eb 04          	jmp    c0002d31 <_scheduler_switch+0xaf>
c0002d2d:	48             	decl   %eax
c0002d2e:	89 42 04       	movl   %eax,0x4(%edx)
c0002d31:	a1 14 50 00 c0 	movl   0xc0005014,%eax
c0002d36:	8b 40 0c       	movl   0xc(%eax),%eax
c0002d39:	83 c4 0c       	addl   $0xc,%esp
c0002d3c:	c3             	ret    

c0002d3d <_scheduler_ltr>:
c0002d3d:	0f 00 5c 24 04 	ltr    0x4(%esp,1)
c0002d42:	c3             	ret    

c0002d43 <_scheduler_init>:
c0002d43:	83 ec 0c       	subl   $0xc,%esp
c0002d46:	b8 b0 6c 00 c0 	movl   $0xc0006cb0,%eax
c0002d4b:	ba ac 70 00 c0 	movl   $0xc00070ac,%edx
c0002d50:	c7 00 00 00 00 	movl   $0x0,(%eax)
c0002d55:	00 
c0002d56:	83 c0 04       	addl   $0x4,%eax
c0002d59:	39 c2          	cmpl   %eax,%edx
c0002d5b:	75 f3          	jne    c0002d50 <_scheduler_init+0xd>
c0002d5d:	83 ec 0c       	subl   $0xc,%esp
c0002d60:	68 00 2c 00 c0 	pushl  $0xc0002c00
c0002d65:	e8 72 00 00 00 	call   c0002ddc <_task_create>
c0002d6a:	c7 04 24 1b 2c 	movl   $0xc0002c1b,(%esp,1)
c0002d6f:	00 c0 
c0002d71:	e8 66 00 00 00 	call   c0002ddc <_task_create>
c0002d76:	83 c4 08       	addl   $0x8,%esp
c0002d79:	6a 36          	pushl  $0x36
c0002d7b:	6a 43          	pushl  $0x43
c0002d7d:	e8 b7 e4 ff ff 	call   c0001239 <_outportb>
c0002d82:	83 c4 08       	addl   $0x8,%esp
c0002d85:	6a 0b          	pushl  $0xb
c0002d87:	6a 40          	pushl  $0x40
c0002d89:	e8 ab e4 ff ff 	call   c0001239 <_outportb>
c0002d8e:	83 c4 08       	addl   $0x8,%esp
c0002d91:	6a 00          	pushl  $0x0
c0002d93:	6a 40          	pushl  $0x40
c0002d95:	e8 9f e4 ff ff 	call   c0001239 <_outportb>
c0002d9a:	83 c4 08       	addl   $0x8,%esp
c0002d9d:	68 82 2c 00 c0 	pushl  $0xc0002c82
c0002da2:	6a 20          	pushl  $0x20
c0002da4:	e8 97 f1 ff ff 	call   c0001f40 <_isr_setHandler>
c0002da9:	83 c4 1c       	addl   $0x1c,%esp
c0002dac:	c3             	ret    
c0002dad:	90             	nop    
c0002dae:	90             	nop    
c0002daf:	90             	nop    

c0002db0 <_task_destroy>:
c0002db0:	53             	pushl  %ebx
c0002db1:	83 ec 14       	subl   $0x14,%esp
c0002db4:	8b 5c 24 1c    	movl   0x1c(%esp,1),%ebx
c0002db8:	53             	pushl  %ebx
c0002db9:	e8 86 fe ff ff 	call   c0002c44 <_scheduler_removeTask>
c0002dbe:	83 c4 04       	addl   $0x4,%esp
c0002dc1:	ff 73 10       	pushl  0x10(%ebx)
c0002dc4:	e8 a6 f6 ff ff 	call   c000246f <_mm_free>
c0002dc9:	89 1c 24       	movl   %ebx,(%esp,1)
c0002dcc:	e8 9e f6 ff ff 	call   c000246f <_mm_free>
c0002dd1:	ff 0d 1c 50 00 	decl   0xc000501c
c0002dd6:	c0 
c0002dd7:	83 c4 18       	addl   $0x18,%esp
c0002dda:	5b             	popl   %ebx
c0002ddb:	c3             	ret    

c0002ddc <_task_create>:
c0002ddc:	57             	pushl  %edi
c0002ddd:	56             	pushl  %esi
c0002dde:	53             	pushl  %ebx
c0002ddf:	83 ec 0c       	subl   $0xc,%esp
c0002de2:	6a 18          	pushl  $0x18
c0002de4:	e8 13 f7 ff ff 	call   c00024fc <_mm_malloc>
c0002de9:	89 c7          	movl   %eax,%edi
c0002deb:	a1 1c 50 00 c0 	movl   0xc000501c,%eax
c0002df0:	89 07          	movl   %eax,(%edi)
c0002df2:	40             	incl   %eax
c0002df3:	a3 1c 50 00 c0 	movl   %eax,0xc000501c
c0002df8:	c7 47 04 01 00 	movl   $0x1,0x4(%edi)
c0002dfd:	00 00 
c0002dff:	c7 47 08 00 00 	movl   $0x0,0x8(%edi)
c0002e04:	00 00 
c0002e06:	e8 55 f8 ff ff 	call   c0002660 <_paging_getCurrentPageDir>
c0002e0b:	89 47 14       	movl   %eax,0x14(%edi)
c0002e0e:	c7 04 24 00 10 	movl   $0x1000,(%esp,1)
c0002e13:	00 00 
c0002e15:	e8 e2 f6 ff ff 	call   c00024fc <_mm_malloc>
c0002e1a:	89 c6          	movl   %eax,%esi
c0002e1c:	89 47 10       	movl   %eax,0x10(%edi)
c0002e1f:	8d 98 b4 0f 00 	leal   0xfb4(%eax),%ebx
c0002e24:	00 
c0002e25:	83 c4 0c       	addl   $0xc,%esp
c0002e28:	6a 4c          	pushl  $0x4c
c0002e2a:	6a 00          	pushl  $0x0
c0002e2c:	53             	pushl  %ebx
c0002e2d:	e8 de e3 ff ff 	call   c0001210 <_memset>
c0002e32:	c7 43 3c 08 00 	movl   $0x8,0x3c(%ebx)
c0002e37:	00 00 
c0002e39:	c7 86 b4 0f 00 	movl   $0x10,0xfb4(%esi)
c0002e3e:	00 10 00 00 00 
c0002e43:	c7 43 04 10 00 	movl   $0x10,0x4(%ebx)
c0002e48:	00 00 
c0002e4a:	c7 43 08 10 00 	movl   $0x10,0x8(%ebx)
c0002e4f:	00 00 
c0002e51:	c7 43 0c 10 00 	movl   $0x10,0xc(%ebx)
c0002e56:	00 00 
c0002e58:	c7 43 40 02 02 	movl   $0x202,0x40(%ebx)
c0002e5d:	00 00 
c0002e5f:	8b 44 24 20    	movl   0x20(%esp,1),%eax
c0002e63:	89 43 38       	movl   %eax,0x38(%ebx)
c0002e66:	c7 43 30 20 00 	movl   $0x20,0x30(%ebx)
c0002e6b:	00 00 
c0002e6d:	89 5f 0c       	movl   %ebx,0xc(%edi)
c0002e70:	89 3c 24       	movl   %edi,(%esp,1)
c0002e73:	e8 be fd ff ff 	call   c0002c36 <_scheduler_addTask>
c0002e78:	83 c4 10       	addl   $0x10,%esp
c0002e7b:	89 f8          	movl   %edi,%eax
c0002e7d:	5b             	popl   %ebx
c0002e7e:	5e             	popl   %esi
c0002e7f:	5f             	popl   %edi
c0002e80:	c3             	ret    
c0002e81:	90             	nop    
c0002e82:	90             	nop    
c0002e83:	90             	nop    
c0002e84:	90             	nop    
c0002e85:	90             	nop    
c0002e86:	90             	nop    
c0002e87:	90             	nop    
c0002e88:	90             	nop    
c0002e89:	90             	nop    
c0002e8a:	90             	nop    
c0002e8b:	90             	nop    
c0002e8c:	90             	nop    
c0002e8d:	90             	nop    
c0002e8e:	90             	nop    
c0002e8f:	90             	nop    
	...
